
/tmp/tmpjzijkdqn/out:     file format elf64-x86-64


Disassembly of section .init:

0000000000002000 <_init>:
    2000:	f3 0f 1e fa          	endbr64
    2004:	48 83 ec 08          	sub    $0x8,%rsp
    2008:	48 8b 05 b9 8f 00 00 	mov    0x8fb9(%rip),%rax        # afc8 <__gmon_start__@Base>
    200f:	48 85 c0             	test   %rax,%rax
    2012:	74 02                	je     2016 <_init+0x16>
    2014:	ff d0                	call   *%rax
    2016:	48 83 c4 08          	add    $0x8,%rsp
    201a:	c3                   	ret

Disassembly of section .plt:

0000000000002020 <_ZNSo3putEc@plt-0x10>:
    2020:	ff 35 ca 8f 00 00    	push   0x8fca(%rip)        # aff0 <_GLOBAL_OFFSET_TABLE_+0x8>
    2026:	ff 25 cc 8f 00 00    	jmp    *0x8fcc(%rip)        # aff8 <_GLOBAL_OFFSET_TABLE_+0x10>
    202c:	0f 1f 40 00          	nopl   0x0(%rax)

0000000000002030 <_ZNSo3putEc@plt>:
    2030:	ff 25 ca 8f 00 00    	jmp    *0x8fca(%rip)        # b000 <_ZNSo3putEc@GLIBCXX_3.4>
    2036:	68 00 00 00 00       	push   $0x0
    203b:	e9 e0 ff ff ff       	jmp    2020 <_init+0x20>

0000000000002040 <_ZNSt6chrono3_V212system_clock3nowEv@plt>:
    2040:	ff 25 c2 8f 00 00    	jmp    *0x8fc2(%rip)        # b008 <_ZNSt6chrono3_V212system_clock3nowEv@GLIBCXX_3.4.19>
    2046:	68 01 00 00 00       	push   $0x1
    204b:	e9 d0 ff ff ff       	jmp    2020 <_init+0x20>

0000000000002050 <_ZNSt8ios_baseD2Ev@plt>:
    2050:	ff 25 ba 8f 00 00    	jmp    *0x8fba(%rip)        # b010 <_ZNSt8ios_baseD2Ev@GLIBCXX_3.4>
    2056:	68 02 00 00 00       	push   $0x2
    205b:	e9 c0 ff ff ff       	jmp    2020 <_init+0x20>

0000000000002060 <_ZSt17__throw_bad_allocv@plt>:
    2060:	ff 25 b2 8f 00 00    	jmp    *0x8fb2(%rip)        # b018 <_ZSt17__throw_bad_allocv@GLIBCXX_3.4>
    2066:	68 03 00 00 00       	push   $0x3
    206b:	e9 b0 ff ff ff       	jmp    2020 <_init+0x20>

0000000000002070 <strlen@plt>:
    2070:	ff 25 aa 8f 00 00    	jmp    *0x8faa(%rip)        # b020 <strlen@GLIBC_2.2.5>
    2076:	68 04 00 00 00       	push   $0x4
    207b:	e9 a0 ff ff ff       	jmp    2020 <_init+0x20>

0000000000002080 <_ZSt4endlIcSt11char_traitsIcEERSt13basic_ostreamIT_T0_ES6_@plt>:
    2080:	ff 25 a2 8f 00 00    	jmp    *0x8fa2(%rip)        # b028 <_ZSt4endlIcSt11char_traitsIcEERSt13basic_ostreamIT_T0_ES6_@GLIBCXX_3.4>
    2086:	68 05 00 00 00       	push   $0x5
    208b:	e9 90 ff ff ff       	jmp    2020 <_init+0x20>

0000000000002090 <_ZSt20__throw_length_errorPKc@plt>:
    2090:	ff 25 9a 8f 00 00    	jmp    *0x8f9a(%rip)        # b030 <_ZSt20__throw_length_errorPKc@GLIBCXX_3.4>
    2096:	68 06 00 00 00       	push   $0x6
    209b:	e9 80 ff ff ff       	jmp    2020 <_init+0x20>

00000000000020a0 <memset@plt>:
    20a0:	ff 25 92 8f 00 00    	jmp    *0x8f92(%rip)        # b038 <memset@GLIBC_2.2.5>
    20a6:	68 07 00 00 00       	push   $0x7
    20ab:	e9 70 ff ff ff       	jmp    2020 <_init+0x20>

00000000000020b0 <_ZNSo9_M_insertImEERSoT_@plt>:
    20b0:	ff 25 8a 8f 00 00    	jmp    *0x8f8a(%rip)        # b040 <_ZNSo9_M_insertImEERSoT_@GLIBCXX_3.4.9>
    20b6:	68 08 00 00 00       	push   $0x8
    20bb:	e9 60 ff ff ff       	jmp    2020 <_init+0x20>

00000000000020c0 <_ZNSo5flushEv@plt>:
    20c0:	ff 25 82 8f 00 00    	jmp    *0x8f82(%rip)        # b048 <_ZNSo5flushEv@GLIBCXX_3.4>
    20c6:	68 09 00 00 00       	push   $0x9
    20cb:	e9 50 ff ff ff       	jmp    2020 <_init+0x20>

00000000000020d0 <_ZNSt7__cxx1118basic_stringstreamIcSt11char_traitsIcESaIcEEC1Ev@plt>:
    20d0:	ff 25 7a 8f 00 00    	jmp    *0x8f7a(%rip)        # b050 <_ZNSt7__cxx1118basic_stringstreamIcSt11char_traitsIcESaIcEEC1Ev@GLIBCXX_3.4.26>
    20d6:	68 0a 00 00 00       	push   $0xa
    20db:	e9 40 ff ff ff       	jmp    2020 <_init+0x20>

00000000000020e0 <_ZNSt7__cxx1118basic_stringstreamIcSt11char_traitsIcESaIcEED1Ev@plt>:
    20e0:	ff 25 72 8f 00 00    	jmp    *0x8f72(%rip)        # b058 <_ZNSt7__cxx1118basic_stringstreamIcSt11char_traitsIcESaIcEED1Ev@GLIBCXX_3.4.21>
    20e6:	68 0b 00 00 00       	push   $0xb
    20eb:	e9 30 ff ff ff       	jmp    2020 <_init+0x20>

00000000000020f0 <memcpy@plt>:
    20f0:	ff 25 6a 8f 00 00    	jmp    *0x8f6a(%rip)        # b060 <memcpy@GLIBC_2.14>
    20f6:	68 0c 00 00 00       	push   $0xc
    20fb:	e9 20 ff ff ff       	jmp    2020 <_init+0x20>

0000000000002100 <_Znwm@plt>:
    2100:	ff 25 62 8f 00 00    	jmp    *0x8f62(%rip)        # b068 <_Znwm@GLIBCXX_3.4>
    2106:	68 0d 00 00 00       	push   $0xd
    210b:	e9 10 ff ff ff       	jmp    2020 <_init+0x20>

0000000000002110 <_ZdlPvm@plt>:
    2110:	ff 25 5a 8f 00 00    	jmp    *0x8f5a(%rip)        # b070 <_ZdlPvm@CXXABI_1.3.9>
    2116:	68 0e 00 00 00       	push   $0xe
    211b:	e9 00 ff ff ff       	jmp    2020 <_init+0x20>

0000000000002120 <_ZNSt14basic_ofstreamIcSt11char_traitsIcEEC1EPKcSt13_Ios_Openmode@plt>:
    2120:	ff 25 52 8f 00 00    	jmp    *0x8f52(%rip)        # b078 <_ZNSt14basic_ofstreamIcSt11char_traitsIcEEC1EPKcSt13_Ios_Openmode@GLIBCXX_3.4>
    2126:	68 0f 00 00 00       	push   $0xf
    212b:	e9 f0 fe ff ff       	jmp    2020 <_init+0x20>

0000000000002130 <_ZSt16__ostream_insertIcSt11char_traitsIcEERSt13basic_ostreamIT_T0_ES6_PKS3_l@plt>:
    2130:	ff 25 4a 8f 00 00    	jmp    *0x8f4a(%rip)        # b080 <_ZSt16__ostream_insertIcSt11char_traitsIcEERSt13basic_ostreamIT_T0_ES6_PKS3_l@GLIBCXX_3.4.9>
    2136:	68 10 00 00 00       	push   $0x10
    213b:	e9 e0 fe ff ff       	jmp    2020 <_init+0x20>

0000000000002140 <_ZNKSt5ctypeIcE13_M_widen_initEv@plt>:
    2140:	ff 25 42 8f 00 00    	jmp    *0x8f42(%rip)        # b088 <_ZNKSt5ctypeIcE13_M_widen_initEv@GLIBCXX_3.4.11>
    2146:	68 11 00 00 00       	push   $0x11
    214b:	e9 d0 fe ff ff       	jmp    2020 <_init+0x20>

0000000000002150 <_ZSt16__throw_bad_castv@plt>:
    2150:	ff 25 3a 8f 00 00    	jmp    *0x8f3a(%rip)        # b090 <_ZSt16__throw_bad_castv@GLIBCXX_3.4>
    2156:	68 12 00 00 00       	push   $0x12
    215b:	e9 c0 fe ff ff       	jmp    2020 <_init+0x20>

0000000000002160 <log2f@plt>:
    2160:	ff 25 32 8f 00 00    	jmp    *0x8f32(%rip)        # b098 <log2f@GLIBC_2.27>
    2166:	68 13 00 00 00       	push   $0x13
    216b:	e9 b0 fe ff ff       	jmp    2020 <_init+0x20>

0000000000002170 <_ZNSo5writeEPKcl@plt>:
    2170:	ff 25 2a 8f 00 00    	jmp    *0x8f2a(%rip)        # b0a0 <_ZNSo5writeEPKcl@GLIBCXX_3.4>
    2176:	68 14 00 00 00       	push   $0x14
    217b:	e9 a0 fe ff ff       	jmp    2020 <_init+0x20>

0000000000002180 <_ZNSt7__cxx1112basic_stringIcSt11char_traitsIcESaIcEE15_M_replace_coldEPcmPKcmm@plt>:
    2180:	ff 25 22 8f 00 00    	jmp    *0x8f22(%rip)        # b0a8 <_ZNSt7__cxx1112basic_stringIcSt11char_traitsIcESaIcEE15_M_replace_coldEPcmPKcmm@GLIBCXX_3.4.31>
    2186:	68 15 00 00 00       	push   $0x15
    218b:	e9 90 fe ff ff       	jmp    2020 <_init+0x20>

0000000000002190 <strcmp@plt>:
    2190:	ff 25 1a 8f 00 00    	jmp    *0x8f1a(%rip)        # b0b0 <strcmp@GLIBC_2.2.5>
    2196:	68 16 00 00 00       	push   $0x16
    219b:	e9 80 fe ff ff       	jmp    2020 <_init+0x20>

00000000000021a0 <_ZNSt6localeD1Ev@plt>:
    21a0:	ff 25 12 8f 00 00    	jmp    *0x8f12(%rip)        # b0b8 <_ZNSt6localeD1Ev@GLIBCXX_3.4>
    21a6:	68 17 00 00 00       	push   $0x17
    21ab:	e9 70 fe ff ff       	jmp    2020 <_init+0x20>

00000000000021b0 <_ZNSt14basic_ofstreamIcSt11char_traitsIcEED1Ev@plt>:
    21b0:	ff 25 0a 8f 00 00    	jmp    *0x8f0a(%rip)        # b0c0 <_ZNSt14basic_ofstreamIcSt11char_traitsIcEED1Ev@GLIBCXX_3.4>
    21b6:	68 18 00 00 00       	push   $0x18
    21bb:	e9 60 fe ff ff       	jmp    2020 <_init+0x20>

00000000000021c0 <_ZNSo9_M_insertIdEERSoT_@plt>:
    21c0:	ff 25 02 8f 00 00    	jmp    *0x8f02(%rip)        # b0c8 <_ZNSo9_M_insertIdEERSoT_@GLIBCXX_3.4.9>
    21c6:	68 19 00 00 00       	push   $0x19
    21cb:	e9 50 fe ff ff       	jmp    2020 <_init+0x20>

00000000000021d0 <memmove@plt>:
    21d0:	ff 25 fa 8e 00 00    	jmp    *0x8efa(%rip)        # b0d0 <memmove@GLIBC_2.2.5>
    21d6:	68 1a 00 00 00       	push   $0x1a
    21db:	e9 40 fe ff ff       	jmp    2020 <_init+0x20>

00000000000021e0 <_ZNSt9basic_iosIcSt11char_traitsIcEE5clearESt12_Ios_Iostate@plt>:
    21e0:	ff 25 f2 8e 00 00    	jmp    *0x8ef2(%rip)        # b0d8 <_ZNSt9basic_iosIcSt11char_traitsIcEE5clearESt12_Ios_Iostate@GLIBCXX_3.4>
    21e6:	68 1b 00 00 00       	push   $0x1b
    21eb:	e9 30 fe ff ff       	jmp    2020 <_init+0x20>

00000000000021f0 <_Unwind_Resume@plt>:
    21f0:	ff 25 ea 8e 00 00    	jmp    *0x8eea(%rip)        # b0e0 <_Unwind_Resume@GCC_3.0>
    21f6:	68 1c 00 00 00       	push   $0x1c
    21fb:	e9 20 fe ff ff       	jmp    2020 <_init+0x20>

0000000000002200 <__isoc23_strtol@plt>:
    2200:	ff 25 e2 8e 00 00    	jmp    *0x8ee2(%rip)        # b0e8 <__isoc23_strtol@GLIBC_2.38>
    2206:	68 1d 00 00 00       	push   $0x1d
    220b:	e9 10 fe ff ff       	jmp    2020 <_init+0x20>

Disassembly of section .plt.got:

0000000000002210 <__cxa_finalize@plt>:
    2210:	ff 25 8a 8d 00 00    	jmp    *0x8d8a(%rip)        # afa0 <__cxa_finalize@GLIBC_2.2.5>
    2216:	66 90                	xchg   %ax,%ax

Disassembly of section .text:

0000000000002220 <set_fast_math>:
    2220:	f3 0f 1e fa          	endbr64
    2224:	55                   	push   %rbp
    2225:	48 89 e5             	mov    %rsp,%rbp
    2228:	0f ae 5d fc          	stmxcsr -0x4(%rbp)
    222c:	81 4d fc 40 80 00 00 	orl    $0x8040,-0x4(%rbp)
    2233:	0f ae 55 fc          	ldmxcsr -0x4(%rbp)
    2237:	5d                   	pop    %rbp
    2238:	c3                   	ret
    2239:	0f 1f 80 00 00 00 00 	nopl   0x0(%rax)

0000000000002240 <_start>:
    2240:	f3 0f 1e fa          	endbr64
    2244:	31 ed                	xor    %ebp,%ebp
    2246:	49 89 d1             	mov    %rdx,%r9
    2249:	5e                   	pop    %rsi
    224a:	48 89 e2             	mov    %rsp,%rdx
    224d:	48 83 e4 f0          	and    $0xfffffffffffffff0,%rsp
    2251:	50                   	push   %rax
    2252:	54                   	push   %rsp
    2253:	45 31 c0             	xor    %r8d,%r8d
    2256:	31 c9                	xor    %ecx,%ecx
    2258:	48 8d 3d f1 14 00 00 	lea    0x14f1(%rip),%rdi        # 3750 <main>
    225f:	ff 15 4b 8d 00 00    	call   *0x8d4b(%rip)        # afb0 <__libc_start_main@GLIBC_2.34>
    2265:	f4                   	hlt
    2266:	66 2e 0f 1f 84 00 00 	cs nopw 0x0(%rax,%rax,1)
    226d:	00 00 00 

0000000000002270 <deregister_tm_clones>:
    2270:	48 8d 3d 91 8e 00 00 	lea    0x8e91(%rip),%rdi        # b108 <__TMC_END__>
    2277:	48 8d 05 8a 8e 00 00 	lea    0x8e8a(%rip),%rax        # b108 <__TMC_END__>
    227e:	48 39 f8             	cmp    %rdi,%rax
    2281:	74 15                	je     2298 <deregister_tm_clones+0x28>
    2283:	48 8b 05 36 8d 00 00 	mov    0x8d36(%rip),%rax        # afc0 <_ITM_deregisterTMCloneTable@Base>
    228a:	48 85 c0             	test   %rax,%rax
    228d:	74 09                	je     2298 <deregister_tm_clones+0x28>
    228f:	ff e0                	jmp    *%rax
    2291:	0f 1f 80 00 00 00 00 	nopl   0x0(%rax)
    2298:	c3                   	ret
    2299:	0f 1f 80 00 00 00 00 	nopl   0x0(%rax)

00000000000022a0 <register_tm_clones>:
    22a0:	48 8d 3d 61 8e 00 00 	lea    0x8e61(%rip),%rdi        # b108 <__TMC_END__>
    22a7:	48 8d 35 5a 8e 00 00 	lea    0x8e5a(%rip),%rsi        # b108 <__TMC_END__>
    22ae:	48 29 fe             	sub    %rdi,%rsi
    22b1:	48 89 f0             	mov    %rsi,%rax
    22b4:	48 c1 ee 3f          	shr    $0x3f,%rsi
    22b8:	48 c1 f8 03          	sar    $0x3,%rax
    22bc:	48 01 c6             	add    %rax,%rsi
    22bf:	48 d1 fe             	sar    $1,%rsi
    22c2:	74 14                	je     22d8 <register_tm_clones+0x38>
    22c4:	48 8b 05 05 8d 00 00 	mov    0x8d05(%rip),%rax        # afd0 <_ITM_registerTMCloneTable@Base>
    22cb:	48 85 c0             	test   %rax,%rax
    22ce:	74 08                	je     22d8 <register_tm_clones+0x38>
    22d0:	ff e0                	jmp    *%rax
    22d2:	66 0f 1f 44 00 00    	nopw   0x0(%rax,%rax,1)
    22d8:	c3                   	ret
    22d9:	0f 1f 80 00 00 00 00 	nopl   0x0(%rax)

00000000000022e0 <__do_global_dtors_aux>:
    22e0:	f3 0f 1e fa          	endbr64
    22e4:	80 3d 1d 8e 00 00 00 	cmpb   $0x0,0x8e1d(%rip)        # b108 <__TMC_END__>
    22eb:	75 2b                	jne    2318 <__do_global_dtors_aux+0x38>
    22ed:	55                   	push   %rbp
    22ee:	48 83 3d aa 8c 00 00 	cmpq   $0x0,0x8caa(%rip)        # afa0 <__cxa_finalize@GLIBC_2.2.5>
    22f5:	00 
    22f6:	48 89 e5             	mov    %rsp,%rbp
    22f9:	74 0c                	je     2307 <__do_global_dtors_aux+0x27>
    22fb:	48 8b 3d f6 8d 00 00 	mov    0x8df6(%rip),%rdi        # b0f8 <__dso_handle>
    2302:	e8 09 ff ff ff       	call   2210 <__cxa_finalize@plt>
    2307:	e8 64 ff ff ff       	call   2270 <deregister_tm_clones>
    230c:	c6 05 f5 8d 00 00 01 	movb   $0x1,0x8df5(%rip)        # b108 <__TMC_END__>
    2313:	5d                   	pop    %rbp
    2314:	c3                   	ret
    2315:	0f 1f 00             	nopl   (%rax)
    2318:	c3                   	ret
    2319:	0f 1f 80 00 00 00 00 	nopl   0x0(%rax)

0000000000002320 <frame_dummy>:
    2320:	f3 0f 1e fa          	endbr64
    2324:	e9 77 ff ff ff       	jmp    22a0 <register_tm_clones>
    2329:	0f 1f 80 00 00 00 00 	nopl   0x0(%rax)

0000000000002330 <_Z21mandelbrot_cpu_scalarjjPj>:
    2330:	53                   	push   %rbx
    2331:	85 ff                	test   %edi,%edi
    2333:	0f 84 d5 01 00 00    	je     250e <_Z21mandelbrot_cpu_scalarjjPj+0x1de>
    2339:	89 f8                	mov    %edi,%eax
    233b:	85 f6                	test   %esi,%esi
    233d:	0f 84 cd 01 00 00    	je     2510 <_Z21mandelbrot_cpu_scalarjjPj+0x1e0>
    2343:	62 f1 7e 08 7b c7    	vcvtusi2ss %edi,%xmm0,%xmm0
    2349:	c5 fa 10 0d b3 6c 00 	vmovss 0x6cb3(%rip),%xmm1        # 9004 <_IO_stdin_used+0x4>
    2350:	00 
    2351:	c5 f2 5e c0          	vdivss %xmm0,%xmm1,%xmm0
    2355:	89 c1                	mov    %eax,%ecx
    2357:	83 e1 fe             	and    $0xfffffffe,%ecx
    235a:	45 31 c0             	xor    %r8d,%r8d
    235d:	c5 fa 10 0d a3 6c 00 	vmovss 0x6ca3(%rip),%xmm1        # 9008 <_IO_stdin_used+0x8>
    2364:	00 
    2365:	c5 fa 10 15 9f 6c 00 	vmovss 0x6c9f(%rip),%xmm2        # 900c <_IO_stdin_used+0xc>
    236c:	00 
    236d:	c5 fa 10 1d 9b 6c 00 	vmovss 0x6c9b(%rip),%xmm3        # 9010 <_IO_stdin_used+0x10>
    2374:	00 
    2375:	c5 fa 10 25 97 6c 00 	vmovss 0x6c97(%rip),%xmm4        # 9014 <_IO_stdin_used+0x14>
    237c:	00 
    237d:	eb 11                	jmp    2390 <_Z21mandelbrot_cpu_scalarjjPj+0x60>
    237f:	90                   	nop
    2380:	47 89 1c 91          	mov    %r11d,(%r9,%r10,4)
    2384:	49 ff c0             	inc    %r8
    2387:	49 39 c0             	cmp    %rax,%r8
    238a:	0f 84 7e 01 00 00    	je     250e <_Z21mandelbrot_cpu_scalarjjPj+0x1de>
    2390:	c4 c1 9a 2a e8       	vcvtsi2ss %r8,%xmm12,%xmm5
    2395:	4d 89 c1             	mov    %r8,%r9
    2398:	4c 0f af c8          	imul   %rax,%r9
    239c:	c5 d2 59 e9          	vmulss %xmm1,%xmm5,%xmm5
    23a0:	c4 e2 79 a9 ea       	vfmadd213ss %xmm2,%xmm0,%xmm5
    23a5:	4e 8d 0c 8a          	lea    (%rdx,%r9,4),%r9
    23a9:	45 31 d2             	xor    %r10d,%r10d
    23ac:	83 ff 01             	cmp    $0x1,%edi
    23af:	0f 85 78 00 00 00    	jne    242d <_Z21mandelbrot_cpu_scalarjjPj+0xfd>
    23b5:	a8 01                	test   $0x1,%al
    23b7:	74 cb                	je     2384 <_Z21mandelbrot_cpu_scalarjjPj+0x54>
    23b9:	c4 c1 9a 2a f2       	vcvtsi2ss %r10,%xmm12,%xmm6
    23be:	c5 ca 59 f1          	vmulss %xmm1,%xmm6,%xmm6
    23c2:	c4 e2 79 a9 f3       	vfmadd213ss %xmm3,%xmm0,%xmm6
    23c7:	45 31 db             	xor    %r11d,%r11d
    23ca:	c4 41 30 57 c9       	vxorps %xmm9,%xmm9,%xmm9
    23cf:	c4 41 28 57 d2       	vxorps %xmm10,%xmm10,%xmm10
    23d4:	c5 c0 57 ff          	vxorps %xmm7,%xmm7,%xmm7
    23d8:	c4 41 38 57 c0       	vxorps %xmm8,%xmm8,%xmm8
    23dd:	0f 1f 00             	nopl   (%rax)
    23e0:	c4 41 2a 5c c9       	vsubss %xmm9,%xmm10,%xmm9
    23e5:	c5 ba 5c ff          	vsubss %xmm7,%xmm8,%xmm7
    23e9:	c5 4a 58 d7          	vaddss %xmm7,%xmm6,%xmm10
    23ed:	c5 32 58 dd          	vaddss %xmm5,%xmm9,%xmm11
    23f1:	c4 41 2a 59 c2       	vmulss %xmm10,%xmm10,%xmm8
    23f6:	c4 c1 22 59 fb       	vmulss %xmm11,%xmm11,%xmm7
    23fb:	41 ff c3             	inc    %r11d
    23fe:	c5 3a 58 cf          	vaddss %xmm7,%xmm8,%xmm9
    2402:	c5 78 2e cc          	vucomiss %xmm4,%xmm9
    2406:	0f 87 74 ff ff ff    	ja     2380 <_Z21mandelbrot_cpu_scalarjjPj+0x50>
    240c:	c4 41 22 58 d2       	vaddss %xmm10,%xmm11,%xmm10
    2411:	c4 41 2a 59 d2       	vmulss %xmm10,%xmm10,%xmm10
    2416:	41 39 f3             	cmp    %esi,%r11d
    2419:	72 c5                	jb     23e0 <_Z21mandelbrot_cpu_scalarjjPj+0xb0>
    241b:	e9 60 ff ff ff       	jmp    2380 <_Z21mandelbrot_cpu_scalarjjPj+0x50>
    2420:	43 89 1c 99          	mov    %ebx,(%r9,%r11,4)
    2424:	49 83 c2 02          	add    $0x2,%r10
    2428:	49 39 ca             	cmp    %rcx,%r10
    242b:	74 88                	je     23b5 <_Z21mandelbrot_cpu_scalarjjPj+0x85>
    242d:	c4 c1 9a 2a f2       	vcvtsi2ss %r10,%xmm12,%xmm6
    2432:	c5 ca 59 f1          	vmulss %xmm1,%xmm6,%xmm6
    2436:	c4 e2 79 a9 f3       	vfmadd213ss %xmm3,%xmm0,%xmm6
    243b:	45 31 db             	xor    %r11d,%r11d
    243e:	c4 41 30 57 c9       	vxorps %xmm9,%xmm9,%xmm9
    2443:	c4 41 28 57 d2       	vxorps %xmm10,%xmm10,%xmm10
    2448:	c5 c0 57 ff          	vxorps %xmm7,%xmm7,%xmm7
    244c:	c4 41 38 57 c0       	vxorps %xmm8,%xmm8,%xmm8
    2451:	66 66 66 66 66 66 2e 	data16 data16 data16 data16 data16 cs nopw 0x0(%rax,%rax,1)
    2458:	0f 1f 84 00 00 00 00 
    245f:	00 
    2460:	c4 41 2a 5c c9       	vsubss %xmm9,%xmm10,%xmm9
    2465:	c5 ba 5c ff          	vsubss %xmm7,%xmm8,%xmm7
    2469:	c5 4a 58 d7          	vaddss %xmm7,%xmm6,%xmm10
    246d:	c5 32 58 dd          	vaddss %xmm5,%xmm9,%xmm11
    2471:	c4 41 2a 59 c2       	vmulss %xmm10,%xmm10,%xmm8
    2476:	c4 c1 22 59 fb       	vmulss %xmm11,%xmm11,%xmm7
    247b:	41 ff c3             	inc    %r11d
    247e:	c5 3a 58 cf          	vaddss %xmm7,%xmm8,%xmm9
    2482:	c5 78 2e cc          	vucomiss %xmm4,%xmm9
    2486:	77 0f                	ja     2497 <_Z21mandelbrot_cpu_scalarjjPj+0x167>
    2488:	c4 41 22 58 d2       	vaddss %xmm10,%xmm11,%xmm10
    248d:	c4 41 2a 59 d2       	vmulss %xmm10,%xmm10,%xmm10
    2492:	41 39 f3             	cmp    %esi,%r11d
    2495:	72 c9                	jb     2460 <_Z21mandelbrot_cpu_scalarjjPj+0x130>
    2497:	47 89 1c 91          	mov    %r11d,(%r9,%r10,4)
    249b:	4d 89 d3             	mov    %r10,%r11
    249e:	49 83 cb 01          	or     $0x1,%r11
    24a2:	c4 c1 9a 2a f3       	vcvtsi2ss %r11,%xmm12,%xmm6
    24a7:	c5 ca 59 f1          	vmulss %xmm1,%xmm6,%xmm6
    24ab:	c4 e2 79 a9 f3       	vfmadd213ss %xmm3,%xmm0,%xmm6
    24b0:	31 db                	xor    %ebx,%ebx
    24b2:	c4 41 30 57 c9       	vxorps %xmm9,%xmm9,%xmm9
    24b7:	c4 41 28 57 d2       	vxorps %xmm10,%xmm10,%xmm10
    24bc:	c5 c0 57 ff          	vxorps %xmm7,%xmm7,%xmm7
    24c0:	c4 41 38 57 c0       	vxorps %xmm8,%xmm8,%xmm8
    24c5:	66 66 2e 0f 1f 84 00 	data16 cs nopw 0x0(%rax,%rax,1)
    24cc:	00 00 00 00 
    24d0:	c4 41 2a 5c c9       	vsubss %xmm9,%xmm10,%xmm9
    24d5:	c5 ba 5c ff          	vsubss %xmm7,%xmm8,%xmm7
    24d9:	c5 4a 58 d7          	vaddss %xmm7,%xmm6,%xmm10
    24dd:	c5 32 58 dd          	vaddss %xmm5,%xmm9,%xmm11
    24e1:	c4 41 2a 59 c2       	vmulss %xmm10,%xmm10,%xmm8
    24e6:	c4 c1 22 59 fb       	vmulss %xmm11,%xmm11,%xmm7
    24eb:	ff c3                	inc    %ebx
    24ed:	c5 3a 58 cf          	vaddss %xmm7,%xmm8,%xmm9
    24f1:	c5 78 2e cc          	vucomiss %xmm4,%xmm9
    24f5:	0f 87 25 ff ff ff    	ja     2420 <_Z21mandelbrot_cpu_scalarjjPj+0xf0>
    24fb:	c4 41 22 58 d2       	vaddss %xmm10,%xmm11,%xmm10
    2500:	c4 41 2a 59 d2       	vmulss %xmm10,%xmm10,%xmm10
    2505:	39 f3                	cmp    %esi,%ebx
    2507:	72 c7                	jb     24d0 <_Z21mandelbrot_cpu_scalarjjPj+0x1a0>
    2509:	e9 12 ff ff ff       	jmp    2420 <_Z21mandelbrot_cpu_scalarjjPj+0xf0>
    250e:	5b                   	pop    %rbx
    250f:	c3                   	ret
    2510:	48 0f af c0          	imul   %rax,%rax
    2514:	48 c1 e0 02          	shl    $0x2,%rax
    2518:	48 89 d7             	mov    %rdx,%rdi
    251b:	31 f6                	xor    %esi,%esi
    251d:	48 89 c2             	mov    %rax,%rdx
    2520:	5b                   	pop    %rbx
    2521:	e9 7a fb ff ff       	jmp    20a0 <memset@plt>
    2526:	66 2e 0f 1f 84 00 00 	cs nopw 0x0(%rax,%rax,1)
    252d:	00 00 00 

0000000000002530 <_Z8ceil_divjj>:
    2530:	8d 04 37             	lea    (%rdi,%rsi,1),%eax
    2533:	ff c8                	dec    %eax
    2535:	31 d2                	xor    %edx,%edx
    2537:	f7 f6                	div    %esi
    2539:	c3                   	ret
    253a:	66 0f 1f 44 00 00    	nopw   0x0(%rax,%rax,1)

0000000000002540 <_Z25mandelbrot_cpu_vector_ilpjjPj>:
    2540:	85 ff                	test   %edi,%edi
    2542:	0f 84 86 03 00 00    	je     28ce <_Z25mandelbrot_cpu_vector_ilpjjPj+0x38e>
    2548:	53                   	push   %rbx
    2549:	62 f2 7d 48 7c c6    	vpbroadcastd %esi,%zmm0
    254f:	89 f8                	mov    %edi,%eax
    2551:	62 f1 76 08 7b cf    	vcvtusi2ss %edi,%xmm1,%xmm1
    2557:	c5 fa 10 15 a5 6a 00 	vmovss 0x6aa5(%rip),%xmm2        # 9004 <_IO_stdin_used+0x4>
    255e:	00 
    255f:	c5 ea 5e c9          	vdivss %xmm1,%xmm2,%xmm1
    2563:	c5 fa 11 4c 24 fc    	vmovss %xmm1,-0x4(%rsp)
    2569:	c5 f2 59 0d 97 6a 00 	vmulss 0x6a97(%rip),%xmm1,%xmm1        # 9008 <_IO_stdin_used+0x8>
    2570:	00 
    2571:	62 f2 7d 48 18 d1    	vbroadcastss %xmm1,%zmm2
    2577:	48 8d 0c 85 00 00 00 	lea    0x0(,%rax,4),%rcx
    257e:	00 
    257f:	48 8d 70 ff          	lea    -0x1(%rax),%rsi
    2583:	48 c1 ee 06          	shr    $0x6,%rsi
    2587:	31 ff                	xor    %edi,%edi
    2589:	62 72 7d 48 22 0d 9d 	vpmovsxbq 0x6c9d(%rip),%zmm9        # 9230 <_IO_stdin_used+0x230>
    2590:	6c 00 00 
    2593:	62 72 7d 48 22 15 9b 	vpmovsxbq 0x6c9b(%rip),%zmm10        # 9238 <_IO_stdin_used+0x238>
    259a:	6c 00 00 
    259d:	62 72 7d 48 22 1d 99 	vpmovsxbq 0x6c99(%rip),%zmm11        # 9240 <_IO_stdin_used+0x240>
    25a4:	6c 00 00 
    25a7:	62 72 7d 48 22 25 97 	vpmovsxbq 0x6c97(%rip),%zmm12        # 9248 <_IO_stdin_used+0x248>
    25ae:	6c 00 00 
    25b1:	62 72 7d 48 22 2d 95 	vpmovsxbq 0x6c95(%rip),%zmm13        # 9250 <_IO_stdin_used+0x250>
    25b8:	6c 00 00 
    25bb:	62 72 7d 48 18 35 4b 	vbroadcastss 0x6a4b(%rip),%zmm14        # 9010 <_IO_stdin_used+0x10>
    25c2:	6a 00 00 
    25c5:	62 72 7d 48 18 3d 45 	vbroadcastss 0x6a45(%rip),%zmm15        # 9014 <_IO_stdin_used+0x14>
    25cc:	6a 00 00 
    25cf:	90                   	nop
    25d0:	49 89 c8             	mov    %rcx,%r8
    25d3:	4c 0f af c7          	imul   %rdi,%r8
    25d7:	62 a1 7d 00 ef c0    	vpxord %xmm16,%xmm16,%xmm16
    25dd:	62 f1 fe 00 2a cf    	vcvtsi2ss %rdi,%xmm16,%xmm1
    25e3:	c5 f2 59 0d 1d 6a 00 	vmulss 0x6a1d(%rip),%xmm1,%xmm1        # 9008 <_IO_stdin_used+0x8>
    25ea:	00 
    25eb:	c5 fa 10 1d 19 6a 00 	vmovss 0x6a19(%rip),%xmm3        # 900c <_IO_stdin_used+0xc>
    25f2:	00 
    25f3:	c4 e2 61 99 4c 24 fc 	vfmadd132ss -0x4(%rsp),%xmm3,%xmm1
    25fa:	62 e2 7d 48 18 c1    	vbroadcastss %xmm1,%zmm16
    2600:	49 01 d0             	add    %rdx,%r8
    2603:	45 31 c9             	xor    %r9d,%r9d
    2606:	45 31 d2             	xor    %r10d,%r10d
    2609:	0f 1f 80 00 00 00 00 	nopl   0x0(%rax)
    2610:	4d 89 cb             	mov    %r9,%r11
    2613:	49 c1 e3 08          	shl    $0x8,%r11
    2617:	62 d2 fd 48 7c ca    	vpbroadcastq %r10,%zmm1
    261d:	62 f1 f5 48 eb 1d 19 	vporq  0x6a19(%rip),%zmm1,%zmm3        # 9040 <_IO_stdin_used+0x40>
    2624:	6a 00 00 
    2627:	c5 f5 eb 25 d1 6b 00 	vpor   0x6bd1(%rip),%ymm1,%ymm4        # 9200 <_IO_stdin_used+0x200>
    262e:	00 
    262f:	c5 f1 eb 2d e9 6b 00 	vpor   0x6be9(%rip),%xmm1,%xmm5        # 9220 <_IO_stdin_used+0x220>
    2636:	00 
    2637:	4c 89 d3             	mov    %r10,%rbx
    263a:	48 83 cb 01          	or     $0x1,%rbx
    263e:	c4 e1 f9 6e f3       	vmovq  %rbx,%xmm6
    2643:	c5 f1 6c f6          	vpunpcklqdq %xmm6,%xmm1,%xmm6
    2647:	62 f3 cd 48 3a e4 01 	vinserti64x4 $0x1,%ymm4,%zmm6,%zmm4
    264e:	62 f3 5d 48 38 e5 01 	vinserti32x4 $0x1,%xmm5,%zmm4,%zmm4
    2655:	62 f1 ff 48 7a e4    	vcvtuqq2ps %zmm4,%ymm4
    265b:	62 f1 ff 48 7a db    	vcvtuqq2ps %zmm3,%ymm3
    2661:	62 f1 f5 48 eb 2d 15 	vporq  0x6a15(%rip),%zmm1,%zmm5        # 9080 <_IO_stdin_used+0x80>
    2668:	6a 00 00 
    266b:	62 d1 f5 48 eb f1    	vporq  %zmm9,%zmm1,%zmm6
    2671:	62 f1 fc 48 5b f6    	vcvtqq2ps %zmm6,%ymm6
    2677:	62 f1 fc 48 5b ed    	vcvtqq2ps %zmm5,%ymm5
    267d:	62 e3 dd 48 1a cb 01 	vinsertf64x4 $0x1,%ymm3,%zmm4,%zmm17
    2684:	62 e3 cd 48 1a d5 01 	vinsertf64x4 $0x1,%ymm5,%zmm6,%zmm18
    268b:	62 d1 f5 48 eb da    	vporq  %zmm10,%zmm1,%zmm3
    2691:	62 d1 f5 48 eb e3    	vporq  %zmm11,%zmm1,%zmm4
    2697:	62 f1 fc 48 5b e4    	vcvtqq2ps %zmm4,%ymm4
    269d:	62 f1 fc 48 5b db    	vcvtqq2ps %zmm3,%ymm3
    26a3:	62 e3 dd 48 1a db 01 	vinsertf64x4 $0x1,%ymm3,%zmm4,%zmm19
    26aa:	62 d1 f5 48 eb dd    	vporq  %zmm13,%zmm1,%zmm3
    26b0:	62 f1 fc 48 5b db    	vcvtqq2ps %zmm3,%ymm3
    26b6:	62 d1 f5 48 eb cc    	vporq  %zmm12,%zmm1,%zmm1
    26bc:	62 f1 fc 48 5b c9    	vcvtqq2ps %zmm1,%ymm1
    26c2:	62 e3 e5 48 1a e1 01 	vinsertf64x4 $0x1,%ymm1,%zmm3,%zmm20
    26c9:	62 c2 6d 48 a8 ce    	vfmadd213ps %zmm14,%zmm2,%zmm17
    26cf:	62 c2 6d 48 a8 d6    	vfmadd213ps %zmm14,%zmm2,%zmm18
    26d5:	62 c2 6d 48 a8 de    	vfmadd213ps %zmm14,%zmm2,%zmm19
    26db:	62 c2 6d 48 a8 e6    	vfmadd213ps %zmm14,%zmm2,%zmm20
    26e1:	62 a1 55 00 ef ed    	vpxord %xmm21,%xmm21,%xmm21
    26e7:	62 a1 4c 00 57 f6    	vxorps %xmm22,%xmm22,%xmm22
    26ed:	62 a1 44 00 57 ff    	vxorps %xmm23,%xmm23,%xmm23
    26f3:	62 01 3c 00 57 c0    	vxorps %xmm24,%xmm24,%xmm24
    26f9:	62 01 34 00 57 c9    	vxorps %xmm25,%xmm25,%xmm25
    26ff:	62 01 2c 00 57 d2    	vxorps %xmm26,%xmm26,%xmm26
    2705:	62 01 24 00 57 db    	vxorps %xmm27,%xmm27,%xmm27
    270b:	62 01 1c 00 57 e4    	vxorps %xmm28,%xmm28,%xmm28
    2711:	62 01 14 00 57 ed    	vxorps %xmm29,%xmm29,%xmm29
    2717:	62 01 0c 00 57 f6    	vxorps %xmm30,%xmm30,%xmm30
    271d:	62 01 04 00 57 ff    	vxorps %xmm31,%xmm31,%xmm31
    2723:	c5 d8 57 e4          	vxorps %xmm4,%xmm4,%xmm4
    2727:	c5 f0 57 c9          	vxorps %xmm1,%xmm1,%xmm1
    272b:	c5 e0 57 db          	vxorps %xmm3,%xmm3,%xmm3
    272f:	c5 d0 57 ed          	vxorps %xmm5,%xmm5,%xmm5
    2733:	c5 c8 57 f6          	vxorps %xmm6,%xmm6,%xmm6
    2737:	66 0f 1f 84 00 00 00 	nopw   0x0(%rax,%rax,1)
    273e:	00 00 
    2740:	62 91 14 40 58 f9    	vaddps %zmm25,%zmm29,%zmm7
    2746:	62 f1 7d 48 66 ce    	vpcmpgtd %zmm6,%zmm0,%k1
    274c:	62 d1 44 49 c2 cf 02 	vcmpleps %zmm15,%zmm7,%k1{%k1}
    2753:	62 11 34 40 5c c5    	vsubps %zmm29,%zmm25,%zmm8
    2759:	62 51 74 40 58 c0    	vaddps %zmm8,%zmm17,%zmm8
    275f:	62 f1 74 48 5c ff    	vsubps %zmm7,%zmm1,%zmm7
    2765:	62 b1 44 48 58 f8    	vaddps %zmm16,%zmm7,%zmm7
    276b:	62 41 3c 49 59 c8    	vmulps %zmm8,%zmm8,%zmm25{%k1}
    2771:	62 61 44 49 59 ef    	vmulps %zmm7,%zmm7,%zmm29{%k1}
    2777:	62 d1 44 48 58 f8    	vaddps %zmm8,%zmm7,%zmm7
    277d:	62 f1 44 49 59 cf    	vmulps %zmm7,%zmm7,%zmm1{%k1}
    2783:	62 f2 7e 48 38 f9    	vpmovm2d %k1,%zmm7
    2789:	62 f1 4d 48 fa f7    	vpsubd %zmm7,%zmm6,%zmm6
    278f:	62 91 1c 40 58 f8    	vaddps %zmm24,%zmm28,%zmm7
    2795:	62 f1 7d 48 66 d5    	vpcmpgtd %zmm5,%zmm0,%k2
    279b:	62 d1 44 4a c2 d7 02 	vcmpleps %zmm15,%zmm7,%k2{%k2}
    27a2:	62 11 3c 40 5c c4    	vsubps %zmm28,%zmm24,%zmm8
    27a8:	62 51 6c 40 58 c0    	vaddps %zmm8,%zmm18,%zmm8
    27ae:	62 f1 5c 48 5c ff    	vsubps %zmm7,%zmm4,%zmm7
    27b4:	62 b1 44 48 58 f8    	vaddps %zmm16,%zmm7,%zmm7
    27ba:	62 41 3c 4a 59 c0    	vmulps %zmm8,%zmm8,%zmm24{%k2}
    27c0:	62 61 44 4a 59 e7    	vmulps %zmm7,%zmm7,%zmm28{%k2}
    27c6:	62 d1 44 48 58 f8    	vaddps %zmm8,%zmm7,%zmm7
    27cc:	62 f1 44 4a 59 e7    	vmulps %zmm7,%zmm7,%zmm4{%k2}
    27d2:	62 f2 7e 48 38 fa    	vpmovm2d %k2,%zmm7
    27d8:	62 f1 55 48 fa ef    	vpsubd %zmm7,%zmm5,%zmm5
    27de:	62 b1 24 40 58 ff    	vaddps %zmm23,%zmm27,%zmm7
    27e4:	62 f1 7d 48 66 db    	vpcmpgtd %zmm3,%zmm0,%k3
    27ea:	62 d1 44 4b c2 df 02 	vcmpleps %zmm15,%zmm7,%k3{%k3}
    27f1:	62 11 44 40 5c c3    	vsubps %zmm27,%zmm23,%zmm8
    27f7:	62 51 64 40 58 c0    	vaddps %zmm8,%zmm19,%zmm8
    27fd:	62 f1 04 40 5c ff    	vsubps %zmm7,%zmm31,%zmm7
    2803:	62 b1 44 48 58 f8    	vaddps %zmm16,%zmm7,%zmm7
    2809:	62 c1 3c 4b 59 f8    	vmulps %zmm8,%zmm8,%zmm23{%k3}
    280f:	62 61 44 4b 59 df    	vmulps %zmm7,%zmm7,%zmm27{%k3}
    2815:	62 d1 44 48 58 f8    	vaddps %zmm8,%zmm7,%zmm7
    281b:	62 61 44 4b 59 ff    	vmulps %zmm7,%zmm7,%zmm31{%k3}
    2821:	62 f2 7e 48 38 fb    	vpmovm2d %k3,%zmm7
    2827:	62 f1 65 48 fa df    	vpsubd %zmm7,%zmm3,%zmm3
    282d:	62 b1 2c 40 58 fe    	vaddps %zmm22,%zmm26,%zmm7
    2833:	62 b1 7d 48 66 e5    	vpcmpgtd %zmm21,%zmm0,%k4
    2839:	62 d1 44 4c c2 e7 02 	vcmpleps %zmm15,%zmm7,%k4{%k4}
    2840:	62 11 4c 40 5c c2    	vsubps %zmm26,%zmm22,%zmm8
    2846:	62 51 5c 40 58 c0    	vaddps %zmm8,%zmm20,%zmm8
    284c:	62 f1 0c 40 5c ff    	vsubps %zmm7,%zmm30,%zmm7
    2852:	62 b1 44 48 58 f8    	vaddps %zmm16,%zmm7,%zmm7
    2858:	62 c1 3c 4c 59 f0    	vmulps %zmm8,%zmm8,%zmm22{%k4}
    285e:	62 61 44 4c 59 d7    	vmulps %zmm7,%zmm7,%zmm26{%k4}
    2864:	62 d1 44 48 58 f8    	vaddps %zmm8,%zmm7,%zmm7
    286a:	62 61 44 4c 59 f7    	vmulps %zmm7,%zmm7,%zmm30{%k4}
    2870:	62 f2 7e 48 38 fc    	vpmovm2d %k4,%zmm7
    2876:	62 e1 55 40 fa ef    	vpsubd %zmm7,%zmm21,%zmm21
    287c:	c5 ec 45 c1          	korw   %k1,%k2,%k0
    2880:	c5 e4 45 c0          	korw   %k0,%k3,%k0
    2884:	c5 f8 98 e0          	kortestw %k0,%k4
    2888:	0f 85 b2 fe ff ff    	jne    2740 <_Z25mandelbrot_cpu_vector_ilpjjPj+0x200>
    288e:	62 91 fe 48 7f 34 18 	vmovdqu64 %zmm6,(%r8,%r11,1)
    2895:	62 91 fe 48 7f 6c 18 	vmovdqu64 %zmm5,0x40(%r8,%r11,1)
    289c:	01 
    289d:	62 91 fe 48 7f 5c 18 	vmovdqu64 %zmm3,0x80(%r8,%r11,1)
    28a4:	02 
    28a5:	62 81 fe 48 7f 6c 18 	vmovdqu64 %zmm21,0xc0(%r8,%r11,1)
    28ac:	03 
    28ad:	49 83 c2 40          	add    $0x40,%r10
    28b1:	4d 8d 59 01          	lea    0x1(%r9),%r11
    28b5:	49 39 f1             	cmp    %rsi,%r9
    28b8:	4d 89 d9             	mov    %r11,%r9
    28bb:	0f 85 4f fd ff ff    	jne    2610 <_Z25mandelbrot_cpu_vector_ilpjjPj+0xd0>
    28c1:	48 ff c7             	inc    %rdi
    28c4:	48 39 c7             	cmp    %rax,%rdi
    28c7:	0f 85 03 fd ff ff    	jne    25d0 <_Z25mandelbrot_cpu_vector_ilpjjPj+0x90>
    28cd:	5b                   	pop    %rbx
    28ce:	c5 f8 77             	vzeroupper
    28d1:	c3                   	ret
    28d2:	66 66 66 66 66 2e 0f 	data16 data16 data16 data16 cs nopw 0x0(%rax,%rax,1)
    28d9:	1f 84 00 00 00 00 00 

00000000000028e0 <_Z31mandelbrot_cpu_vector_multicorejjPj>:
    28e0:	c3                   	ret
    28e1:	66 66 66 66 66 66 2e 	data16 data16 data16 data16 data16 cs nopw 0x0(%rax,%rax,1)
    28e8:	0f 1f 84 00 00 00 00 
    28ef:	00 

00000000000028f0 <_Z43mandelbrot_cpu_vector_multicore_multithreadjjPj>:
    28f0:	c3                   	ret
    28f1:	66 66 66 66 66 66 2e 	data16 data16 data16 data16 data16 cs nopw 0x0(%rax,%rax,1)
    28f8:	0f 1f 84 00 00 00 00 
    28ff:	00 

0000000000002900 <_Z47mandelbrot_cpu_vector_multicore_multithread_ilpjjPj>:
    2900:	c3                   	ret
    2901:	66 66 66 66 66 66 2e 	data16 data16 data16 data16 data16 cs nopw 0x0(%rax,%rax,1)
    2908:	0f 1f 84 00 00 00 00 
    290f:	00 

0000000000002910 <_Z20ParseArgsAndMakeSpeciPPcPjS1_P14MandelbrotImpl>:
    2910:	55                   	push   %rbp
    2911:	41 57                	push   %r15
    2913:	41 56                	push   %r14
    2915:	41 55                	push   %r13
    2917:	41 54                	push   %r12
    2919:	53                   	push   %rbx
    291a:	48 83 ec 18          	sub    $0x18,%rsp
    291e:	48 89 4c 24 08       	mov    %rcx,0x8(%rsp)
    2923:	48 89 54 24 10       	mov    %rdx,0x10(%rsp)
    2928:	83 ff 02             	cmp    $0x2,%edi
    292b:	0f 8c e1 01 00 00    	jl     2b12 <_Z20ParseArgsAndMakeSpeciPPcPjS1_P14MandelbrotImpl+0x202>
    2931:	4d 89 c4             	mov    %r8,%r12
    2934:	49 89 f7             	mov    %rsi,%r15
    2937:	89 fd                	mov    %edi,%ebp
    2939:	bb 01 00 00 00       	mov    $0x1,%ebx
    293e:	41 be 02 00 00 00    	mov    $0x2,%r14d
    2944:	eb 27                	jmp    296d <_Z20ParseArgsAndMakeSpeciPPcPjS1_P14MandelbrotImpl+0x5d>
    2946:	66 2e 0f 1f 84 00 00 	cs nopw 0x0(%rax,%rax,1)
    294d:	00 00 00 
    2950:	41 c7 04 24 00 00 00 	movl   $0x0,(%r12)
    2957:	00 
    2958:	ff c3                	inc    %ebx
    295a:	41 8d 46 02          	lea    0x2(%r14),%eax
    295e:	41 ff c6             	inc    %r14d
    2961:	41 39 ee             	cmp    %ebp,%r14d
    2964:	41 89 c6             	mov    %eax,%r14d
    2967:	0f 8d a5 01 00 00    	jge    2b12 <_Z20ParseArgsAndMakeSpeciPPcPjS1_P14MandelbrotImpl+0x202>
    296d:	41 8d 46 ff          	lea    -0x1(%r14),%eax
    2971:	4c 63 e8             	movslq %eax,%r13
    2974:	4b 8b 04 ef          	mov    (%r15,%r13,8),%rax
    2978:	80 38 2d             	cmpb   $0x2d,(%rax)
    297b:	0f 85 3f 02 00 00    	jne    2bc0 <_Z20ParseArgsAndMakeSpeciPPcPjS1_P14MandelbrotImpl+0x2b0>
    2981:	80 78 01 72          	cmpb   $0x72,0x1(%rax)
    2985:	75 0a                	jne    2991 <_Z20ParseArgsAndMakeSpeciPPcPjS1_P14MandelbrotImpl+0x81>
    2987:	80 78 02 00          	cmpb   $0x0,0x2(%rax)
    298b:	0f 84 e4 00 00 00    	je     2a75 <_Z20ParseArgsAndMakeSpeciPPcPjS1_P14MandelbrotImpl+0x165>
    2991:	80 78 01 62          	cmpb   $0x62,0x1(%rax)
    2995:	75 0a                	jne    29a1 <_Z20ParseArgsAndMakeSpeciPPcPjS1_P14MandelbrotImpl+0x91>
    2997:	80 78 02 00          	cmpb   $0x0,0x2(%rax)
    299b:	0f 84 06 01 00 00    	je     2aa7 <_Z20ParseArgsAndMakeSpeciPPcPjS1_P14MandelbrotImpl+0x197>
    29a1:	80 78 01 69          	cmpb   $0x69,0x1(%rax)
    29a5:	0f 85 15 02 00 00    	jne    2bc0 <_Z20ParseArgsAndMakeSpeciPPcPjS1_P14MandelbrotImpl+0x2b0>
    29ab:	80 78 02 00          	cmpb   $0x0,0x2(%rax)
    29af:	0f 85 0b 02 00 00    	jne    2bc0 <_Z20ParseArgsAndMakeSpeciPPcPjS1_P14MandelbrotImpl+0x2b0>
    29b5:	41 39 ee             	cmp    %ebp,%r14d
    29b8:	0f 8d 89 02 00 00    	jge    2c47 <_Z20ParseArgsAndMakeSpeciPPcPjS1_P14MandelbrotImpl+0x337>
    29be:	ff c3                	inc    %ebx
    29c0:	49 63 c6             	movslq %r14d,%rax
    29c3:	4d 8b 2c c7          	mov    (%r15,%rax,8),%r13
    29c7:	4c 89 ef             	mov    %r13,%rdi
    29ca:	48 8d 35 a0 69 00 00 	lea    0x69a0(%rip),%rsi        # 9371 <_IO_stdin_used+0x371>
    29d1:	e8 ba f7 ff ff       	call   2190 <strcmp@plt>
    29d6:	85 c0                	test   %eax,%eax
    29d8:	0f 84 72 ff ff ff    	je     2950 <_Z20ParseArgsAndMakeSpeciPPcPjS1_P14MandelbrotImpl+0x40>
    29de:	4c 89 ef             	mov    %r13,%rdi
    29e1:	48 8d 35 e6 68 00 00 	lea    0x68e6(%rip),%rsi        # 92ce <_IO_stdin_used+0x2ce>
    29e8:	e8 a3 f7 ff ff       	call   2190 <strcmp@plt>
    29ed:	85 c0                	test   %eax,%eax
    29ef:	0f 84 dc 00 00 00    	je     2ad1 <_Z20ParseArgsAndMakeSpeciPPcPjS1_P14MandelbrotImpl+0x1c1>
    29f5:	4c 89 ef             	mov    %r13,%rdi
    29f8:	48 8d 35 bc 69 00 00 	lea    0x69bc(%rip),%rsi        # 93bb <_IO_stdin_used+0x3bb>
    29ff:	e8 8c f7 ff ff       	call   2190 <strcmp@plt>
    2a04:	85 c0                	test   %eax,%eax
    2a06:	0f 84 d2 00 00 00    	je     2ade <_Z20ParseArgsAndMakeSpeciPPcPjS1_P14MandelbrotImpl+0x1ce>
    2a0c:	4c 89 ef             	mov    %r13,%rdi
    2a0f:	48 8d 35 1c 6a 00 00 	lea    0x6a1c(%rip),%rsi        # 9432 <_IO_stdin_used+0x432>
    2a16:	e8 75 f7 ff ff       	call   2190 <strcmp@plt>
    2a1b:	85 c0                	test   %eax,%eax
    2a1d:	0f 84 c8 00 00 00    	je     2aeb <_Z20ParseArgsAndMakeSpeciPPcPjS1_P14MandelbrotImpl+0x1db>
    2a23:	4c 89 ef             	mov    %r13,%rdi
    2a26:	48 8d 35 4d 6a 00 00 	lea    0x6a4d(%rip),%rsi        # 947a <_IO_stdin_used+0x47a>
    2a2d:	e8 5e f7 ff ff       	call   2190 <strcmp@plt>
    2a32:	85 c0                	test   %eax,%eax
    2a34:	0f 84 be 00 00 00    	je     2af8 <_Z20ParseArgsAndMakeSpeciPPcPjS1_P14MandelbrotImpl+0x1e8>
    2a3a:	4c 89 ef             	mov    %r13,%rdi
    2a3d:	48 8d 35 96 6a 00 00 	lea    0x6a96(%rip),%rsi        # 94da <_IO_stdin_used+0x4da>
    2a44:	e8 47 f7 ff ff       	call   2190 <strcmp@plt>
    2a49:	85 c0                	test   %eax,%eax
    2a4b:	0f 84 b4 00 00 00    	je     2b05 <_Z20ParseArgsAndMakeSpeciPPcPjS1_P14MandelbrotImpl+0x1f5>
    2a51:	4c 89 ef             	mov    %r13,%rdi
    2a54:	48 8d 35 7a 68 00 00 	lea    0x687a(%rip),%rsi        # 92d5 <_IO_stdin_used+0x2d5>
    2a5b:	e8 30 f7 ff ff       	call   2190 <strcmp@plt>
    2a60:	85 c0                	test   %eax,%eax
    2a62:	0f 85 90 02 00 00    	jne    2cf8 <_Z20ParseArgsAndMakeSpeciPPcPjS1_P14MandelbrotImpl+0x3e8>
    2a68:	41 c7 04 24 06 00 00 	movl   $0x6,(%r12)
    2a6f:	00 
    2a70:	e9 e3 fe ff ff       	jmp    2958 <_Z20ParseArgsAndMakeSpeciPPcPjS1_P14MandelbrotImpl+0x48>
    2a75:	41 39 ee             	cmp    %ebp,%r14d
    2a78:	0f 8d d9 01 00 00    	jge    2c57 <_Z20ParseArgsAndMakeSpeciPPcPjS1_P14MandelbrotImpl+0x347>
    2a7e:	49 63 c6             	movslq %r14d,%rax
    2a81:	49 8b 3c c7          	mov    (%r15,%rax,8),%rdi
    2a85:	31 f6                	xor    %esi,%esi
    2a87:	ba 0a 00 00 00       	mov    $0xa,%edx
    2a8c:	e8 6f f7 ff ff       	call   2200 <__isoc23_strtol@plt>
    2a91:	48 8b 4c 24 10       	mov    0x10(%rsp),%rcx
    2a96:	89 01                	mov    %eax,(%rcx)
    2a98:	a8 1f                	test   $0x1f,%al
    2a9a:	0f 85 c7 01 00 00    	jne    2c67 <_Z20ParseArgsAndMakeSpeciPPcPjS1_P14MandelbrotImpl+0x357>
    2aa0:	ff c3                	inc    %ebx
    2aa2:	e9 b1 fe ff ff       	jmp    2958 <_Z20ParseArgsAndMakeSpeciPPcPjS1_P14MandelbrotImpl+0x48>
    2aa7:	41 39 ee             	cmp    %ebp,%r14d
    2aaa:	0f 8d cc 01 00 00    	jge    2c7c <_Z20ParseArgsAndMakeSpeciPPcPjS1_P14MandelbrotImpl+0x36c>
    2ab0:	ff c3                	inc    %ebx
    2ab2:	49 63 c6             	movslq %r14d,%rax
    2ab5:	49 8b 3c c7          	mov    (%r15,%rax,8),%rdi
    2ab9:	31 f6                	xor    %esi,%esi
    2abb:	ba 0a 00 00 00       	mov    $0xa,%edx
    2ac0:	e8 3b f7 ff ff       	call   2200 <__isoc23_strtol@plt>
    2ac5:	48 8b 4c 24 08       	mov    0x8(%rsp),%rcx
    2aca:	89 01                	mov    %eax,(%rcx)
    2acc:	e9 87 fe ff ff       	jmp    2958 <_Z20ParseArgsAndMakeSpeciPPcPjS1_P14MandelbrotImpl+0x48>
    2ad1:	41 c7 04 24 01 00 00 	movl   $0x1,(%r12)
    2ad8:	00 
    2ad9:	e9 7a fe ff ff       	jmp    2958 <_Z20ParseArgsAndMakeSpeciPPcPjS1_P14MandelbrotImpl+0x48>
    2ade:	41 c7 04 24 02 00 00 	movl   $0x2,(%r12)
    2ae5:	00 
    2ae6:	e9 6d fe ff ff       	jmp    2958 <_Z20ParseArgsAndMakeSpeciPPcPjS1_P14MandelbrotImpl+0x48>
    2aeb:	41 c7 04 24 03 00 00 	movl   $0x3,(%r12)
    2af2:	00 
    2af3:	e9 60 fe ff ff       	jmp    2958 <_Z20ParseArgsAndMakeSpeciPPcPjS1_P14MandelbrotImpl+0x48>
    2af8:	41 c7 04 24 04 00 00 	movl   $0x4,(%r12)
    2aff:	00 
    2b00:	e9 53 fe ff ff       	jmp    2958 <_Z20ParseArgsAndMakeSpeciPPcPjS1_P14MandelbrotImpl+0x48>
    2b05:	41 c7 04 24 05 00 00 	movl   $0x5,(%r12)
    2b0c:	00 
    2b0d:	e9 46 fe ff ff       	jmp    2958 <_Z20ParseArgsAndMakeSpeciPPcPjS1_P14MandelbrotImpl+0x48>
    2b12:	4c 8b 3d 9f 84 00 00 	mov    0x849f(%rip),%r15        # afb8 <_ZSt4cout@GLIBCXX_3.4>
    2b19:	48 8d 35 07 68 00 00 	lea    0x6807(%rip),%rsi        # 9327 <_IO_stdin_used+0x327>
    2b20:	ba 18 00 00 00       	mov    $0x18,%edx
    2b25:	4c 89 ff             	mov    %r15,%rdi
    2b28:	e8 03 f6 ff ff       	call   2130 <_ZSt16__ostream_insertIcSt11char_traitsIcEERSt13basic_ostreamIT_T0_ES6_PKS3_l@plt>
    2b2d:	48 8b 5c 24 10       	mov    0x10(%rsp),%rbx
    2b32:	8b 33                	mov    (%rbx),%esi
    2b34:	4c 89 ff             	mov    %r15,%rdi
    2b37:	e8 74 f5 ff ff       	call   20b0 <_ZNSo9_M_insertImEERSoT_@plt>
    2b3c:	49 89 c7             	mov    %rax,%r15
    2b3f:	48 8d 35 fa 67 00 00 	lea    0x67fa(%rip),%rsi        # 9340 <_IO_stdin_used+0x340>
    2b46:	ba 01 00 00 00       	mov    $0x1,%edx
    2b4b:	48 89 c7             	mov    %rax,%rdi
    2b4e:	e8 dd f5 ff ff       	call   2130 <_ZSt16__ostream_insertIcSt11char_traitsIcEERSt13basic_ostreamIT_T0_ES6_PKS3_l@plt>
    2b53:	8b 33                	mov    (%rbx),%esi
    2b55:	4c 89 ff             	mov    %r15,%rdi
    2b58:	e8 53 f5 ff ff       	call   20b0 <_ZNSo9_M_insertImEERSoT_@plt>
    2b5d:	49 89 c6             	mov    %rax,%r14
    2b60:	48 8d 35 db 67 00 00 	lea    0x67db(%rip),%rsi        # 9342 <_IO_stdin_used+0x342>
    2b67:	ba 05 00 00 00       	mov    $0x5,%edx
    2b6c:	48 89 c7             	mov    %rax,%rdi
    2b6f:	e8 bc f5 ff ff       	call   2130 <_ZSt16__ostream_insertIcSt11char_traitsIcEERSt13basic_ostreamIT_T0_ES6_PKS3_l@plt>
    2b74:	48 8b 44 24 08       	mov    0x8(%rsp),%rax
    2b79:	8b 30                	mov    (%rax),%esi
    2b7b:	4c 89 f7             	mov    %r14,%rdi
    2b7e:	e8 2d f5 ff ff       	call   20b0 <_ZNSo9_M_insertImEERSoT_@plt>
    2b83:	48 89 c3             	mov    %rax,%rbx
    2b86:	48 8d 35 bb 67 00 00 	lea    0x67bb(%rip),%rsi        # 9348 <_IO_stdin_used+0x348>
    2b8d:	ba 10 00 00 00       	mov    $0x10,%edx
    2b92:	48 89 c7             	mov    %rax,%rdi
    2b95:	e8 96 f5 ff ff       	call   2130 <_ZSt16__ostream_insertIcSt11char_traitsIcEERSt13basic_ostreamIT_T0_ES6_PKS3_l@plt>
    2b9a:	48 8b 03             	mov    (%rbx),%rax
    2b9d:	48 8b 40 e8          	mov    -0x18(%rax),%rax
    2ba1:	4c 8b b4 03 f0 00 00 	mov    0xf0(%rbx,%rax,1),%r14
    2ba8:	00 
    2ba9:	4d 85 f6             	test   %r14,%r14
    2bac:	0f 84 6b 01 00 00    	je     2d1d <_Z20ParseArgsAndMakeSpeciPPcPjS1_P14MandelbrotImpl+0x40d>
    2bb2:	41 80 7e 38 00       	cmpb   $0x0,0x38(%r14)
    2bb7:	74 45                	je     2bfe <_Z20ParseArgsAndMakeSpeciPPcPjS1_P14MandelbrotImpl+0x2ee>
    2bb9:	41 0f b6 46 43       	movzbl 0x43(%r14),%eax
    2bbe:	eb 54                	jmp    2c14 <_Z20ParseArgsAndMakeSpeciPPcPjS1_P14MandelbrotImpl+0x304>
    2bc0:	48 8b 1d 11 84 00 00 	mov    0x8411(%rip),%rbx        # afd8 <_ZSt4cerr@GLIBCXX_3.4>
    2bc7:	48 8d 35 4a 67 00 00 	lea    0x674a(%rip),%rsi        # 9318 <_IO_stdin_used+0x318>
    2bce:	ba 0e 00 00 00       	mov    $0xe,%edx
    2bd3:	48 89 df             	mov    %rbx,%rdi
    2bd6:	e8 55 f5 ff ff       	call   2130 <_ZSt16__ostream_insertIcSt11char_traitsIcEERSt13basic_ostreamIT_T0_ES6_PKS3_l@plt>
    2bdb:	4f 8b 34 ef          	mov    (%r15,%r13,8),%r14
    2bdf:	4d 85 f6             	test   %r14,%r14
    2be2:	74 4a                	je     2c2e <_Z20ParseArgsAndMakeSpeciPPcPjS1_P14MandelbrotImpl+0x31e>
    2be4:	4c 89 f7             	mov    %r14,%rdi
    2be7:	e8 84 f4 ff ff       	call   2070 <strlen@plt>
    2bec:	48 8b 3d e5 83 00 00 	mov    0x83e5(%rip),%rdi        # afd8 <_ZSt4cerr@GLIBCXX_3.4>
    2bf3:	4c 89 f6             	mov    %r14,%rsi
    2bf6:	48 89 c2             	mov    %rax,%rdx
    2bf9:	e9 94 00 00 00       	jmp    2c92 <_Z20ParseArgsAndMakeSpeciPPcPjS1_P14MandelbrotImpl+0x382>
    2bfe:	4c 89 f7             	mov    %r14,%rdi
    2c01:	e8 3a f5 ff ff       	call   2140 <_ZNKSt5ctypeIcE13_M_widen_initEv@plt>
    2c06:	49 8b 06             	mov    (%r14),%rax
    2c09:	4c 89 f7             	mov    %r14,%rdi
    2c0c:	be 0a 00 00 00       	mov    $0xa,%esi
    2c11:	ff 50 30             	call   *0x30(%rax)
    2c14:	0f be f0             	movsbl %al,%esi
    2c17:	48 89 df             	mov    %rbx,%rdi
    2c1a:	e8 11 f4 ff ff       	call   2030 <_ZNSo3putEc@plt>
    2c1f:	48 89 c7             	mov    %rax,%rdi
    2c22:	e8 99 f4 ff ff       	call   20c0 <_ZNSo5flushEv@plt>
    2c27:	31 c0                	xor    %eax,%eax
    2c29:	e9 bb 00 00 00       	jmp    2ce9 <_Z20ParseArgsAndMakeSpeciPPcPjS1_P14MandelbrotImpl+0x3d9>
    2c2e:	48 8b 03             	mov    (%rbx),%rax
    2c31:	48 8b 40 e8          	mov    -0x18(%rax),%rax
    2c35:	48 8d 3c 03          	lea    (%rbx,%rax,1),%rdi
    2c39:	8b 74 03 20          	mov    0x20(%rbx,%rax,1),%esi
    2c3d:	83 ce 01             	or     $0x1,%esi
    2c40:	e8 9b f5 ff ff       	call   21e0 <_ZNSt9basic_iosIcSt11char_traitsIcEE5clearESt12_Ios_Iostate@plt>
    2c45:	eb 50                	jmp    2c97 <_Z20ParseArgsAndMakeSpeciPPcPjS1_P14MandelbrotImpl+0x387>
    2c47:	48 8b 1d 8a 83 00 00 	mov    0x838a(%rip),%rbx        # afd8 <_ZSt4cerr@GLIBCXX_3.4>
    2c4e:	48 8d 35 a2 66 00 00 	lea    0x66a2(%rip),%rsi        # 92f7 <_IO_stdin_used+0x2f7>
    2c55:	eb 33                	jmp    2c8a <_Z20ParseArgsAndMakeSpeciPPcPjS1_P14MandelbrotImpl+0x37a>
    2c57:	48 8b 1d 7a 83 00 00 	mov    0x837a(%rip),%rbx        # afd8 <_ZSt4cerr@GLIBCXX_3.4>
    2c5e:	48 8d 35 27 66 00 00 	lea    0x6627(%rip),%rsi        # 928c <_IO_stdin_used+0x28c>
    2c65:	eb 23                	jmp    2c8a <_Z20ParseArgsAndMakeSpeciPPcPjS1_P14MandelbrotImpl+0x37a>
    2c67:	48 8b 1d 6a 83 00 00 	mov    0x836a(%rip),%rbx        # afd8 <_ZSt4cerr@GLIBCXX_3.4>
    2c6e:	48 8d 35 eb 65 00 00 	lea    0x65eb(%rip),%rsi        # 9260 <_IO_stdin_used+0x260>
    2c75:	ba 2b 00 00 00       	mov    $0x2b,%edx
    2c7a:	eb 13                	jmp    2c8f <_Z20ParseArgsAndMakeSpeciPPcPjS1_P14MandelbrotImpl+0x37f>
    2c7c:	48 8b 1d 55 83 00 00 	mov    0x8355(%rip),%rbx        # afd8 <_ZSt4cerr@GLIBCXX_3.4>
    2c83:	48 8d 35 23 66 00 00 	lea    0x6623(%rip),%rsi        # 92ad <_IO_stdin_used+0x2ad>
    2c8a:	ba 20 00 00 00       	mov    $0x20,%edx
    2c8f:	48 89 df             	mov    %rbx,%rdi
    2c92:	e8 99 f4 ff ff       	call   2130 <_ZSt16__ostream_insertIcSt11char_traitsIcEERSt13basic_ostreamIT_T0_ES6_PKS3_l@plt>
    2c97:	48 8b 03             	mov    (%rbx),%rax
    2c9a:	48 8b 40 e8          	mov    -0x18(%rax),%rax
    2c9e:	48 8b 9c 03 f0 00 00 	mov    0xf0(%rbx,%rax,1),%rbx
    2ca5:	00 
    2ca6:	48 85 db             	test   %rbx,%rbx
    2ca9:	74 72                	je     2d1d <_Z20ParseArgsAndMakeSpeciPPcPjS1_P14MandelbrotImpl+0x40d>
    2cab:	80 7b 38 00          	cmpb   $0x0,0x38(%rbx)
    2caf:	74 06                	je     2cb7 <_Z20ParseArgsAndMakeSpeciPPcPjS1_P14MandelbrotImpl+0x3a7>
    2cb1:	0f b6 43 43          	movzbl 0x43(%rbx),%eax
    2cb5:	eb 16                	jmp    2ccd <_Z20ParseArgsAndMakeSpeciPPcPjS1_P14MandelbrotImpl+0x3bd>
    2cb7:	48 89 df             	mov    %rbx,%rdi
    2cba:	e8 81 f4 ff ff       	call   2140 <_ZNKSt5ctypeIcE13_M_widen_initEv@plt>
    2cbf:	48 8b 03             	mov    (%rbx),%rax
    2cc2:	48 89 df             	mov    %rbx,%rdi
    2cc5:	be 0a 00 00 00       	mov    $0xa,%esi
    2cca:	ff 50 30             	call   *0x30(%rax)
    2ccd:	0f be f0             	movsbl %al,%esi
    2cd0:	48 8b 3d 01 83 00 00 	mov    0x8301(%rip),%rdi        # afd8 <_ZSt4cerr@GLIBCXX_3.4>
    2cd7:	e8 54 f3 ff ff       	call   2030 <_ZNSo3putEc@plt>
    2cdc:	48 89 c7             	mov    %rax,%rdi
    2cdf:	e8 dc f3 ff ff       	call   20c0 <_ZNSo5flushEv@plt>
    2ce4:	b8 01 00 00 00       	mov    $0x1,%eax
    2ce9:	48 83 c4 18          	add    $0x18,%rsp
    2ced:	5b                   	pop    %rbx
    2cee:	41 5c                	pop    %r12
    2cf0:	41 5d                	pop    %r13
    2cf2:	41 5e                	pop    %r14
    2cf4:	41 5f                	pop    %r15
    2cf6:	5d                   	pop    %rbp
    2cf7:	c3                   	ret
    2cf8:	48 8b 1d d9 82 00 00 	mov    0x82d9(%rip),%rbx        # afd8 <_ZSt4cerr@GLIBCXX_3.4>
    2cff:	48 8d 35 d3 65 00 00 	lea    0x65d3(%rip),%rsi        # 92d9 <_IO_stdin_used+0x2d9>
    2d06:	ba 1d 00 00 00       	mov    $0x1d,%edx
    2d0b:	48 89 df             	mov    %rbx,%rdi
    2d0e:	e8 1d f4 ff ff       	call   2130 <_ZSt16__ostream_insertIcSt11char_traitsIcEERSt13basic_ostreamIT_T0_ES6_PKS3_l@plt>
    2d13:	48 89 df             	mov    %rbx,%rdi
    2d16:	e8 65 f3 ff ff       	call   2080 <_ZSt4endlIcSt11char_traitsIcEERSt13basic_ostreamIT_T0_ES6_@plt>
    2d1b:	eb c7                	jmp    2ce4 <_Z20ParseArgsAndMakeSpeciPPcPjS1_P14MandelbrotImpl+0x3d4>
    2d1d:	e8 2e f4 ff ff       	call   2150 <_ZSt16__throw_bad_castv@plt>
    2d22:	66 66 66 66 66 2e 0f 	data16 data16 data16 data16 cs nopw 0x0(%rax,%rax,1)
    2d29:	1f 84 00 00 00 00 00 

0000000000002d30 <_Z8writeBMPPKcjRKSt6vectorIhSaIhEE>:
    2d30:	41 56                	push   %r14
    2d32:	53                   	push   %rbx
    2d33:	48 81 ec 38 02 00 00 	sub    $0x238,%rsp
    2d3a:	48 89 d3             	mov    %rdx,%rbx
    2d3d:	48 89 f8             	mov    %rdi,%rax
    2d40:	66 c7 44 24 02 42 4d 	movw   $0x4d42,0x2(%rsp)
    2d47:	48 c7 44 24 04 00 00 	movq   $0x0,0x4(%rsp)
    2d4e:	00 00 
    2d50:	48 b9 36 00 00 00 28 	movabs $0x2800000036,%rcx
    2d57:	00 00 00 
    2d5a:	48 89 4c 24 0c       	mov    %rcx,0xc(%rsp)
    2d5f:	c7 44 24 1c 01 00 18 	movl   $0x180001,0x1c(%rsp)
    2d66:	00 
    2d67:	c5 f8 57 c0          	vxorps %xmm0,%xmm0,%xmm0
    2d6b:	c5 f8 11 44 24 20    	vmovups %xmm0,0x20(%rsp)
    2d71:	48 c7 44 24 30 00 00 	movq   $0x0,0x30(%rsp)
    2d78:	00 00 
    2d7a:	89 74 24 14          	mov    %esi,0x14(%rsp)
    2d7e:	89 74 24 18          	mov    %esi,0x18(%rsp)
    2d82:	0f af f6             	imul   %esi,%esi
    2d85:	8d 0c 76             	lea    (%rsi,%rsi,2),%ecx
    2d88:	89 4c 24 24          	mov    %ecx,0x24(%rsp)
    2d8c:	8d 0c 76             	lea    (%rsi,%rsi,2),%ecx
    2d8f:	83 c1 36             	add    $0x36,%ecx
    2d92:	89 4c 24 04          	mov    %ecx,0x4(%rsp)
    2d96:	4c 8d 74 24 38       	lea    0x38(%rsp),%r14
    2d9b:	4c 89 f7             	mov    %r14,%rdi
    2d9e:	48 89 c6             	mov    %rax,%rsi
    2da1:	ba 04 00 00 00       	mov    $0x4,%edx
    2da6:	e8 75 f3 ff ff       	call   2120 <_ZNSt14basic_ofstreamIcSt11char_traitsIcEEC1EPKcSt13_Ios_Openmode@plt>
    2dab:	48 8d 74 24 02       	lea    0x2(%rsp),%rsi
    2db0:	ba 36 00 00 00       	mov    $0x36,%edx
    2db5:	4c 89 f7             	mov    %r14,%rdi
    2db8:	e8 b3 f3 ff ff       	call   2170 <_ZNSo5writeEPKcl@plt>
    2dbd:	48 8b 33             	mov    (%rbx),%rsi
    2dc0:	48 8b 53 08          	mov    0x8(%rbx),%rdx
    2dc4:	48 29 f2             	sub    %rsi,%rdx
    2dc7:	48 8d 7c 24 38       	lea    0x38(%rsp),%rdi
    2dcc:	e8 9f f3 ff ff       	call   2170 <_ZNSo5writeEPKcl@plt>
    2dd1:	48 8d 7c 24 38       	lea    0x38(%rsp),%rdi
    2dd6:	e8 d5 f3 ff ff       	call   21b0 <_ZNSt14basic_ofstreamIcSt11char_traitsIcEED1Ev@plt>
    2ddb:	48 81 c4 38 02 00 00 	add    $0x238,%rsp
    2de2:	5b                   	pop    %rbx
    2de3:	41 5e                	pop    %r14
    2de5:	c3                   	ret
    2de6:	48 89 c3             	mov    %rax,%rbx
    2de9:	48 8d 7c 24 38       	lea    0x38(%rsp),%rdi
    2dee:	e8 bd f3 ff ff       	call   21b0 <_ZNSt14basic_ofstreamIcSt11char_traitsIcEED1Ev@plt>
    2df3:	48 89 df             	mov    %rbx,%rdi
    2df6:	e8 f5 f3 ff ff       	call   21f0 <_Unwind_Resume@plt>
    2dfb:	0f 1f 44 00 00       	nopl   0x0(%rax,%rax,1)

0000000000002e00 <_Z15iters_to_colorsjjRKSt6vectorIjSaIjEE>:
    2e00:	55                   	push   %rbp
    2e01:	41 57                	push   %r15
    2e03:	41 56                	push   %r14
    2e05:	41 55                	push   %r13
    2e07:	41 54                	push   %r12
    2e09:	53                   	push   %rbx
    2e0a:	48 83 ec 48          	sub    $0x48,%rsp
    2e0e:	48 89 4c 24 18       	mov    %rcx,0x18(%rsp)
    2e13:	41 89 f7             	mov    %esi,%r15d
    2e16:	49 89 fc             	mov    %rdi,%r12
    2e19:	41 89 f5             	mov    %esi,%r13d
    2e1c:	89 54 24 04          	mov    %edx,0x4(%rsp)
    2e20:	41 89 d2             	mov    %edx,%r10d
    2e23:	85 f6                	test   %esi,%esi
    2e25:	4c 89 7c 24 38       	mov    %r15,0x38(%rsp)
    2e2a:	0f 84 0d 03 00 00    	je     313d <_Z15iters_to_colorsjjRKSt6vectorIjSaIjEE+0x33d>
    2e30:	48 8b 44 24 18       	mov    0x18(%rsp),%rax
    2e35:	48 8b 00             	mov    (%rax),%rax
    2e38:	49 8d 4d ff          	lea    -0x1(%r13),%rcx
    2e3c:	44 89 ea             	mov    %r13d,%edx
    2e3f:	83 e2 e0             	and    $0xffffffe0,%edx
    2e42:	44 89 ee             	mov    %r13d,%esi
    2e45:	83 e6 fc             	and    $0xfffffffc,%esi
    2e48:	48 89 f7             	mov    %rsi,%rdi
    2e4b:	48 f7 df             	neg    %rdi
    2e4e:	45 31 c0             	xor    %r8d,%r8d
    2e51:	45 31 c9             	xor    %r9d,%r9d
    2e54:	44 8b 54 24 04       	mov    0x4(%rsp),%r10d
    2e59:	eb 14                	jmp    2e6f <_Z15iters_to_colorsjjRKSt6vectorIjSaIjEE+0x6f>
    2e5b:	0f 1f 44 00 00       	nopl   0x0(%rax,%rax,1)
    2e60:	41 ff c1             	inc    %r9d
    2e63:	4d 01 e8             	add    %r13,%r8
    2e66:	45 39 f9             	cmp    %r15d,%r9d
    2e69:	0f 84 ce 02 00 00    	je     313d <_Z15iters_to_colorsjjRKSt6vectorIjSaIjEE+0x33d>
    2e6f:	41 83 ff 03          	cmp    $0x3,%r15d
    2e73:	76 20                	jbe    2e95 <_Z15iters_to_colorsjjRKSt6vectorIjSaIjEE+0x95>
    2e75:	49 89 cb             	mov    %rcx,%r11
    2e78:	49 c1 eb 20          	shr    $0x20,%r11
    2e7c:	41 0f 95 c3          	setne  %r11b
    2e80:	44 89 fb             	mov    %r15d,%ebx
    2e83:	41 0f af d9          	imul   %r9d,%ebx
    2e87:	01 cb                	add    %ecx,%ebx
    2e89:	0f 92 c3             	setb   %bl
    2e8c:	44 08 db             	or     %r11b,%bl
    2e8f:	0f 84 ab 01 00 00    	je     3040 <_Z15iters_to_colorsjjRKSt6vectorIjSaIjEE+0x240>
    2e95:	31 db                	xor    %ebx,%ebx
    2e97:	45 89 ee             	mov    %r13d,%r14d
    2e9a:	41 29 de             	sub    %ebx,%r14d
    2e9d:	49 89 db             	mov    %rbx,%r11
    2ea0:	41 83 e6 07          	and    $0x7,%r14d
    2ea4:	74 21                	je     2ec7 <_Z15iters_to_colorsjjRKSt6vectorIjSaIjEE+0xc7>
    2ea6:	66 2e 0f 1f 84 00 00 	cs nopw 0x0(%rax,%rax,1)
    2ead:	00 00 00 
    2eb0:	47 8d 3c 18          	lea    (%r8,%r11,1),%r15d
    2eb4:	42 8b 2c b8          	mov    (%rax,%r15,4),%ebp
    2eb8:	44 39 d5             	cmp    %r10d,%ebp
    2ebb:	44 0f 42 d5          	cmovb  %ebp,%r10d
    2ebf:	49 ff c3             	inc    %r11
    2ec2:	49 ff ce             	dec    %r14
    2ec5:	75 e9                	jne    2eb0 <_Z15iters_to_colorsjjRKSt6vectorIjSaIjEE+0xb0>
    2ec7:	4c 29 eb             	sub    %r13,%rbx
    2eca:	48 83 fb f8          	cmp    $0xfffffffffffffff8,%rbx
    2ece:	4c 8b 7c 24 38       	mov    0x38(%rsp),%r15
    2ed3:	76 18                	jbe    2eed <_Z15iters_to_colorsjjRKSt6vectorIjSaIjEE+0xed>
    2ed5:	eb 89                	jmp    2e60 <_Z15iters_to_colorsjjRKSt6vectorIjSaIjEE+0x60>
    2ed7:	66 0f 1f 84 00 00 00 	nopw   0x0(%rax,%rax,1)
    2ede:	00 00 
    2ee0:	49 83 c3 08          	add    $0x8,%r11
    2ee4:	4d 39 dd             	cmp    %r11,%r13
    2ee7:	0f 84 73 ff ff ff    	je     2e60 <_Z15iters_to_colorsjjRKSt6vectorIjSaIjEE+0x60>
    2eed:	43 8d 1c 18          	lea    (%r8,%r11,1),%ebx
    2ef1:	8b 1c 98             	mov    (%rax,%rbx,4),%ebx
    2ef4:	44 39 d3             	cmp    %r10d,%ebx
    2ef7:	0f 83 93 00 00 00    	jae    2f90 <_Z15iters_to_colorsjjRKSt6vectorIjSaIjEE+0x190>
    2efd:	47 8d 14 18          	lea    (%r8,%r11,1),%r10d
    2f01:	41 ff c2             	inc    %r10d
    2f04:	46 8b 14 90          	mov    (%rax,%r10,4),%r10d
    2f08:	41 39 da             	cmp    %ebx,%r10d
    2f0b:	0f 83 96 00 00 00    	jae    2fa7 <_Z15iters_to_colorsjjRKSt6vectorIjSaIjEE+0x1a7>
    2f11:	43 8d 1c 18          	lea    (%r8,%r11,1),%ebx
    2f15:	83 c3 02             	add    $0x2,%ebx
    2f18:	8b 1c 98             	mov    (%rax,%rbx,4),%ebx
    2f1b:	44 39 d3             	cmp    %r10d,%ebx
    2f1e:	0f 83 99 00 00 00    	jae    2fbd <_Z15iters_to_colorsjjRKSt6vectorIjSaIjEE+0x1bd>
    2f24:	47 8d 14 18          	lea    (%r8,%r11,1),%r10d
    2f28:	41 83 c2 03          	add    $0x3,%r10d
    2f2c:	46 8b 14 90          	mov    (%rax,%r10,4),%r10d
    2f30:	41 39 da             	cmp    %ebx,%r10d
    2f33:	0f 83 9c 00 00 00    	jae    2fd5 <_Z15iters_to_colorsjjRKSt6vectorIjSaIjEE+0x1d5>
    2f39:	43 8d 1c 18          	lea    (%r8,%r11,1),%ebx
    2f3d:	83 c3 04             	add    $0x4,%ebx
    2f40:	8b 1c 98             	mov    (%rax,%rbx,4),%ebx
    2f43:	44 39 d3             	cmp    %r10d,%ebx
    2f46:	0f 83 9f 00 00 00    	jae    2feb <_Z15iters_to_colorsjjRKSt6vectorIjSaIjEE+0x1eb>
    2f4c:	47 8d 14 18          	lea    (%r8,%r11,1),%r10d
    2f50:	41 83 c2 05          	add    $0x5,%r10d
    2f54:	46 8b 14 90          	mov    (%rax,%r10,4),%r10d
    2f58:	41 39 da             	cmp    %ebx,%r10d
    2f5b:	0f 83 a2 00 00 00    	jae    3003 <_Z15iters_to_colorsjjRKSt6vectorIjSaIjEE+0x203>
    2f61:	43 8d 1c 18          	lea    (%r8,%r11,1),%ebx
    2f65:	83 c3 06             	add    $0x6,%ebx
    2f68:	8b 1c 98             	mov    (%rax,%rbx,4),%ebx
    2f6b:	44 39 d3             	cmp    %r10d,%ebx
    2f6e:	0f 83 a5 00 00 00    	jae    3019 <_Z15iters_to_colorsjjRKSt6vectorIjSaIjEE+0x219>
    2f74:	47 8d 14 18          	lea    (%r8,%r11,1),%r10d
    2f78:	41 83 c2 07          	add    $0x7,%r10d
    2f7c:	46 8b 14 90          	mov    (%rax,%r10,4),%r10d
    2f80:	41 39 da             	cmp    %ebx,%r10d
    2f83:	0f 82 57 ff ff ff    	jb     2ee0 <_Z15iters_to_colorsjjRKSt6vectorIjSaIjEE+0xe0>
    2f89:	e9 a3 00 00 00       	jmp    3031 <_Z15iters_to_colorsjjRKSt6vectorIjSaIjEE+0x231>
    2f8e:	66 90                	xchg   %ax,%ax
    2f90:	44 89 d3             	mov    %r10d,%ebx
    2f93:	47 8d 14 18          	lea    (%r8,%r11,1),%r10d
    2f97:	41 ff c2             	inc    %r10d
    2f9a:	46 8b 14 90          	mov    (%rax,%r10,4),%r10d
    2f9e:	41 39 da             	cmp    %ebx,%r10d
    2fa1:	0f 82 6a ff ff ff    	jb     2f11 <_Z15iters_to_colorsjjRKSt6vectorIjSaIjEE+0x111>
    2fa7:	41 89 da             	mov    %ebx,%r10d
    2faa:	43 8d 1c 18          	lea    (%r8,%r11,1),%ebx
    2fae:	83 c3 02             	add    $0x2,%ebx
    2fb1:	8b 1c 98             	mov    (%rax,%rbx,4),%ebx
    2fb4:	44 39 d3             	cmp    %r10d,%ebx
    2fb7:	0f 82 67 ff ff ff    	jb     2f24 <_Z15iters_to_colorsjjRKSt6vectorIjSaIjEE+0x124>
    2fbd:	44 89 d3             	mov    %r10d,%ebx
    2fc0:	47 8d 14 18          	lea    (%r8,%r11,1),%r10d
    2fc4:	41 83 c2 03          	add    $0x3,%r10d
    2fc8:	46 8b 14 90          	mov    (%rax,%r10,4),%r10d
    2fcc:	41 39 da             	cmp    %ebx,%r10d
    2fcf:	0f 82 64 ff ff ff    	jb     2f39 <_Z15iters_to_colorsjjRKSt6vectorIjSaIjEE+0x139>
    2fd5:	41 89 da             	mov    %ebx,%r10d
    2fd8:	43 8d 1c 18          	lea    (%r8,%r11,1),%ebx
    2fdc:	83 c3 04             	add    $0x4,%ebx
    2fdf:	8b 1c 98             	mov    (%rax,%rbx,4),%ebx
    2fe2:	44 39 d3             	cmp    %r10d,%ebx
    2fe5:	0f 82 61 ff ff ff    	jb     2f4c <_Z15iters_to_colorsjjRKSt6vectorIjSaIjEE+0x14c>
    2feb:	44 89 d3             	mov    %r10d,%ebx
    2fee:	47 8d 14 18          	lea    (%r8,%r11,1),%r10d
    2ff2:	41 83 c2 05          	add    $0x5,%r10d
    2ff6:	46 8b 14 90          	mov    (%rax,%r10,4),%r10d
    2ffa:	41 39 da             	cmp    %ebx,%r10d
    2ffd:	0f 82 5e ff ff ff    	jb     2f61 <_Z15iters_to_colorsjjRKSt6vectorIjSaIjEE+0x161>
    3003:	41 89 da             	mov    %ebx,%r10d
    3006:	43 8d 1c 18          	lea    (%r8,%r11,1),%ebx
    300a:	83 c3 06             	add    $0x6,%ebx
    300d:	8b 1c 98             	mov    (%rax,%rbx,4),%ebx
    3010:	44 39 d3             	cmp    %r10d,%ebx
    3013:	0f 82 5b ff ff ff    	jb     2f74 <_Z15iters_to_colorsjjRKSt6vectorIjSaIjEE+0x174>
    3019:	44 89 d3             	mov    %r10d,%ebx
    301c:	47 8d 14 18          	lea    (%r8,%r11,1),%r10d
    3020:	41 83 c2 07          	add    $0x7,%r10d
    3024:	46 8b 14 90          	mov    (%rax,%r10,4),%r10d
    3028:	41 39 da             	cmp    %ebx,%r10d
    302b:	0f 82 af fe ff ff    	jb     2ee0 <_Z15iters_to_colorsjjRKSt6vectorIjSaIjEE+0xe0>
    3031:	41 89 da             	mov    %ebx,%r10d
    3034:	e9 a7 fe ff ff       	jmp    2ee0 <_Z15iters_to_colorsjjRKSt6vectorIjSaIjEE+0xe0>
    3039:	0f 1f 80 00 00 00 00 	nopl   0x0(%rax)
    3040:	41 83 ff 20          	cmp    $0x20,%r15d
    3044:	73 08                	jae    304e <_Z15iters_to_colorsjjRKSt6vectorIjSaIjEE+0x24e>
    3046:	45 31 db             	xor    %r11d,%r11d
    3049:	e9 96 00 00 00       	jmp    30e4 <_Z15iters_to_colorsjjRKSt6vectorIjSaIjEE+0x2e4>
    304e:	62 d2 7d 28 7c c2    	vpbroadcastd %r10d,%ymm0
    3054:	45 89 c2             	mov    %r8d,%r10d
    3057:	49 89 d3             	mov    %rdx,%r11
    305a:	c5 fd 6f c8          	vmovdqa %ymm0,%ymm1
    305e:	c5 fd 6f d0          	vmovdqa %ymm0,%ymm2
    3062:	c5 fd 6f d8          	vmovdqa %ymm0,%ymm3
    3066:	66 2e 0f 1f 84 00 00 	cs nopw 0x0(%rax,%rax,1)
    306d:	00 00 00 
    3070:	44 89 d3             	mov    %r10d,%ebx
    3073:	c4 e2 7d 3b 04 98    	vpminud (%rax,%rbx,4),%ymm0,%ymm0
    3079:	c4 e2 75 3b 4c 98 20 	vpminud 0x20(%rax,%rbx,4),%ymm1,%ymm1
    3080:	c4 e2 6d 3b 54 98 40 	vpminud 0x40(%rax,%rbx,4),%ymm2,%ymm2
    3087:	c4 e2 65 3b 5c 98 60 	vpminud 0x60(%rax,%rbx,4),%ymm3,%ymm3
    308e:	41 83 c2 20          	add    $0x20,%r10d
    3092:	49 83 c3 e0          	add    $0xffffffffffffffe0,%r11
    3096:	75 d8                	jne    3070 <_Z15iters_to_colorsjjRKSt6vectorIjSaIjEE+0x270>
    3098:	c4 e2 7d 3b c1       	vpminud %ymm1,%ymm0,%ymm0
    309d:	c4 e2 6d 3b cb       	vpminud %ymm3,%ymm2,%ymm1
    30a2:	c4 e2 7d 3b c1       	vpminud %ymm1,%ymm0,%ymm0
    30a7:	c4 e3 7d 39 c1 01    	vextracti128 $0x1,%ymm0,%xmm1
    30ad:	c4 e2 79 3b c1       	vpminud %xmm1,%xmm0,%xmm0
    30b2:	c5 f9 70 c8 ee       	vpshufd $0xee,%xmm0,%xmm1
    30b7:	c4 e2 79 3b c1       	vpminud %xmm1,%xmm0,%xmm0
    30bc:	c5 f9 70 c8 55       	vpshufd $0x55,%xmm0,%xmm1
    30c1:	c4 e2 79 3b c1       	vpminud %xmm1,%xmm0,%xmm0
    30c6:	c4 c1 79 7e c2       	vmovd  %xmm0,%r10d
    30cb:	44 39 ea             	cmp    %r13d,%edx
    30ce:	0f 84 8c fd ff ff    	je     2e60 <_Z15iters_to_colorsjjRKSt6vectorIjSaIjEE+0x60>
    30d4:	48 89 d3             	mov    %rdx,%rbx
    30d7:	49 89 d3             	mov    %rdx,%r11
    30da:	41 f6 c5 1c          	test   $0x1c,%r13b
    30de:	0f 84 b3 fd ff ff    	je     2e97 <_Z15iters_to_colorsjjRKSt6vectorIjSaIjEE+0x97>
    30e4:	62 d2 7d 08 7c c2    	vpbroadcastd %r10d,%xmm0
    30ea:	4e 8d 14 1f          	lea    (%rdi,%r11,1),%r10
    30ee:	45 01 c3             	add    %r8d,%r11d
    30f1:	66 66 66 66 66 66 2e 	data16 data16 data16 data16 data16 cs nopw 0x0(%rax,%rax,1)
    30f8:	0f 1f 84 00 00 00 00 
    30ff:	00 
    3100:	44 89 db             	mov    %r11d,%ebx
    3103:	c4 e2 79 3b 04 98    	vpminud (%rax,%rbx,4),%xmm0,%xmm0
    3109:	41 83 c3 04          	add    $0x4,%r11d
    310d:	49 83 c2 04          	add    $0x4,%r10
    3111:	75 ed                	jne    3100 <_Z15iters_to_colorsjjRKSt6vectorIjSaIjEE+0x300>
    3113:	c5 f9 70 c8 ee       	vpshufd $0xee,%xmm0,%xmm1
    3118:	c4 e2 79 3b c1       	vpminud %xmm1,%xmm0,%xmm0
    311d:	c5 f9 70 c8 55       	vpshufd $0x55,%xmm0,%xmm1
    3122:	c4 e2 79 3b c1       	vpminud %xmm1,%xmm0,%xmm0
    3127:	c4 c1 79 7e c2       	vmovd  %xmm0,%r10d
    312c:	48 89 f3             	mov    %rsi,%rbx
    312f:	44 39 ee             	cmp    %r13d,%esi
    3132:	0f 84 28 fd ff ff    	je     2e60 <_Z15iters_to_colorsjjRKSt6vectorIjSaIjEE+0x60>
    3138:	e9 5a fd ff ff       	jmp    2e97 <_Z15iters_to_colorsjjRKSt6vectorIjSaIjEE+0x97>
    313d:	4c 89 6c 24 30       	mov    %r13,0x30(%rsp)
    3142:	62 d1 5e 08 7b c2    	vcvtusi2ss %r10d,%xmm4,%xmm0
    3148:	c5 fa 11 44 24 08    	vmovss %xmm0,0x8(%rsp)
    314e:	c5 f8 77             	vzeroupper
    3151:	e8 0a f0 ff ff       	call   2160 <log2f@plt>
    3156:	c5 fa 11 44 24 14    	vmovss %xmm0,0x14(%rsp)
    315c:	62 f1 5e 08 7b 44 24 	vcvtusi2ssl 0x4(%rsp),%xmm4,%xmm0
    3163:	01 
    3164:	c5 fa 5e 44 24 08    	vdivss 0x8(%rsp),%xmm0,%xmm0
    316a:	e8 f1 ef ff ff       	call   2160 <log2f@plt>
    316f:	44 89 f8             	mov    %r15d,%eax
    3172:	0f af c0             	imul   %eax,%eax
    3175:	85 c0                	test   %eax,%eax
    3177:	74 3b                	je     31b4 <_Z15iters_to_colorsjjRKSt6vectorIjSaIjEE+0x3b4>
    3179:	c5 fa 11 44 24 08    	vmovss %xmm0,0x8(%rsp)
    317f:	8d 2c 40             	lea    (%rax,%rax,2),%ebp
    3182:	48 89 ef             	mov    %rbp,%rdi
    3185:	e8 76 ef ff ff       	call   2100 <_Znwm@plt>
    318a:	49 89 c5             	mov    %rax,%r13
    318d:	49 89 04 24          	mov    %rax,(%r12)
    3191:	48 8d 1c 28          	lea    (%rax,%rbp,1),%rbx
    3195:	49 89 5c 24 10       	mov    %rbx,0x10(%r12)
    319a:	c6 00 00             	movb   $0x0,(%rax)
    319d:	48 89 c7             	mov    %rax,%rdi
    31a0:	48 ff c7             	inc    %rdi
    31a3:	48 ff cd             	dec    %rbp
    31a6:	74 38                	je     31e0 <_Z15iters_to_colorsjjRKSt6vectorIjSaIjEE+0x3e0>
    31a8:	31 f6                	xor    %esi,%esi
    31aa:	48 89 ea             	mov    %rbp,%rdx
    31ad:	e8 ee ee ff ff       	call   20a0 <memset@plt>
    31b2:	eb 2f                	jmp    31e3 <_Z15iters_to_colorsjjRKSt6vectorIjSaIjEE+0x3e3>
    31b4:	c5 f1 ef c9          	vpxor  %xmm1,%xmm1,%xmm1
    31b8:	c4 c1 7a 7f 0c 24    	vmovdqu %xmm1,(%r12)
    31be:	49 c7 44 24 10 00 00 	movq   $0x0,0x10(%r12)
    31c5:	00 00 
    31c7:	45 31 ed             	xor    %r13d,%r13d
    31ca:	31 db                	xor    %ebx,%ebx
    31cc:	4c 89 64 24 40       	mov    %r12,0x40(%rsp)
    31d1:	49 89 5c 24 08       	mov    %rbx,0x8(%r12)
    31d6:	45 85 ff             	test   %r15d,%r15d
    31d9:	75 21                	jne    31fc <_Z15iters_to_colorsjjRKSt6vectorIjSaIjEE+0x3fc>
    31db:	e9 fb 01 00 00       	jmp    33db <_Z15iters_to_colorsjjRKSt6vectorIjSaIjEE+0x5db>
    31e0:	48 89 fb             	mov    %rdi,%rbx
    31e3:	c5 fa 10 44 24 08    	vmovss 0x8(%rsp),%xmm0
    31e9:	4c 89 64 24 40       	mov    %r12,0x40(%rsp)
    31ee:	49 89 5c 24 08       	mov    %rbx,0x8(%r12)
    31f3:	45 85 ff             	test   %r15d,%r15d
    31f6:	0f 84 df 01 00 00    	je     33db <_Z15iters_to_colorsjjRKSt6vectorIjSaIjEE+0x5db>
    31fc:	48 8b 44 24 18       	mov    0x18(%rsp),%rax
    3201:	48 8b 28             	mov    (%rax),%rbp
    3204:	4c 8b 64 24 30       	mov    0x30(%rsp),%r12
    3209:	41 83 e4 fe          	and    $0xfffffffe,%r12d
    320d:	c5 fa 10 0d ef 5d 00 	vmovss 0x5def(%rip),%xmm1        # 9004 <_IO_stdin_used+0x4>
    3214:	00 
    3215:	c5 f2 5e c0          	vdivss %xmm0,%xmm1,%xmm0
    3219:	c5 fa 11 44 24 18    	vmovss %xmm0,0x18(%rsp)
    321f:	43 8d 04 7f          	lea    (%r15,%r15,2),%eax
    3223:	89 44 24 2c          	mov    %eax,0x2c(%rsp)
    3227:	31 db                	xor    %ebx,%ebx
    3229:	b8 05 00 00 00       	mov    $0x5,%eax
    322e:	b9 01 00 00 00       	mov    $0x1,%ecx
    3233:	eb 6c                	jmp    32a1 <_Z15iters_to_colorsjjRKSt6vectorIjSaIjEE+0x4a1>
    3235:	66 66 2e 0f 1f 84 00 	data16 cs nopw 0x0(%rax,%rax,1)
    323c:	00 00 00 00 
    3240:	62 f1 5e 08 7b c0    	vcvtusi2ss %eax,%xmm4,%xmm0
    3246:	e8 15 ef ff ff       	call   2160 <log2f@plt>
    324b:	c5 fa 5c 44 24 14    	vsubss 0x14(%rsp),%xmm0,%xmm0
    3251:	c5 fa 59 05 bf 5d 00 	vmulss 0x5dbf(%rip),%xmm0,%xmm0        # 9018 <_IO_stdin_used+0x18>
    3258:	00 
    3259:	c5 fa 59 44 24 18    	vmulss 0x18(%rsp),%xmm0,%xmm0
    325f:	c5 fa 2c c0          	vcvttss2si %xmm0,%eax
    3263:	04 20                	add    $0x20,%al
    3265:	b1 20                	mov    $0x20,%cl
    3267:	8d 14 5b             	lea    (%rbx,%rbx,2),%edx
    326a:	41 88 4c 15 00       	mov    %cl,0x0(%r13,%rdx,1)
    326f:	8d 14 5b             	lea    (%rbx,%rbx,2),%edx
    3272:	ff c2                	inc    %edx
    3274:	41 88 44 15 00       	mov    %al,0x0(%r13,%rdx,1)
    3279:	8d 44 5b 02          	lea    0x2(%rbx,%rbx,2),%eax
    327d:	41 88 4c 05 00       	mov    %cl,0x0(%r13,%rax,1)
    3282:	48 8b 5c 24 08       	mov    0x8(%rsp),%rbx
    3287:	8b 44 24 28          	mov    0x28(%rsp),%eax
    328b:	8b 4c 24 24          	mov    0x24(%rsp),%ecx
    328f:	ff c3                	inc    %ebx
    3291:	03 44 24 2c          	add    0x2c(%rsp),%eax
    3295:	44 01 f9             	add    %r15d,%ecx
    3298:	44 39 fb             	cmp    %r15d,%ebx
    329b:	0f 84 3a 01 00 00    	je     33db <_Z15iters_to_colorsjjRKSt6vectorIjSaIjEE+0x5db>
    32a1:	41 be 00 00 00 00    	mov    $0x0,%r14d
    32a7:	41 83 ff 01          	cmp    $0x1,%r15d
    32ab:	48 89 5c 24 08       	mov    %rbx,0x8(%rsp)
    32b0:	89 44 24 28          	mov    %eax,0x28(%rsp)
    32b4:	89 4c 24 24          	mov    %ecx,0x24(%rsp)
    32b8:	0f 84 f4 00 00 00    	je     33b2 <_Z15iters_to_colorsjjRKSt6vectorIjSaIjEE+0x5b2>
    32be:	41 89 cf             	mov    %ecx,%r15d
    32c1:	89 c3                	mov    %eax,%ebx
    32c3:	45 31 f6             	xor    %r14d,%r14d
    32c6:	eb 5a                	jmp    3322 <_Z15iters_to_colorsjjRKSt6vectorIjSaIjEE+0x522>
    32c8:	0f 1f 84 00 00 00 00 	nopl   0x0(%rax,%rax,1)
    32cf:	00 
    32d0:	62 f1 5e 08 7b c0    	vcvtusi2ss %eax,%xmm4,%xmm0
    32d6:	e8 85 ee ff ff       	call   2160 <log2f@plt>
    32db:	c5 fa 5c 44 24 14    	vsubss 0x14(%rsp),%xmm0,%xmm0
    32e1:	c5 fa 59 05 2f 5d 00 	vmulss 0x5d2f(%rip),%xmm0,%xmm0        # 9018 <_IO_stdin_used+0x18>
    32e8:	00 
    32e9:	c5 fa 59 44 24 18    	vmulss 0x18(%rsp),%xmm0,%xmm0
    32ef:	c5 fa 2c c0          	vcvttss2si %xmm0,%eax
    32f3:	04 20                	add    $0x20,%al
    32f5:	b1 20                	mov    $0x20,%cl
    32f7:	8d 53 fe             	lea    -0x2(%rbx),%edx
    32fa:	41 88 4c 15 00       	mov    %cl,0x0(%r13,%rdx,1)
    32ff:	8d 53 ff             	lea    -0x1(%rbx),%edx
    3302:	41 88 44 15 00       	mov    %al,0x0(%r13,%rdx,1)
    3307:	89 d8                	mov    %ebx,%eax
    3309:	41 88 4c 05 00       	mov    %cl,0x0(%r13,%rax,1)
    330e:	49 83 c6 02          	add    $0x2,%r14
    3312:	83 c3 06             	add    $0x6,%ebx
    3315:	41 83 c7 02          	add    $0x2,%r15d
    3319:	4d 39 f4             	cmp    %r14,%r12
    331c:	0f 84 7e 00 00 00    	je     33a0 <_Z15iters_to_colorsjjRKSt6vectorIjSaIjEE+0x5a0>
    3322:	41 8d 47 ff          	lea    -0x1(%r15),%eax
    3326:	8b 44 85 00          	mov    0x0(%rbp,%rax,4),%eax
    332a:	3b 44 24 04          	cmp    0x4(%rsp),%eax
    332e:	73 30                	jae    3360 <_Z15iters_to_colorsjjRKSt6vectorIjSaIjEE+0x560>
    3330:	62 f1 5e 08 7b c0    	vcvtusi2ss %eax,%xmm4,%xmm0
    3336:	e8 25 ee ff ff       	call   2160 <log2f@plt>
    333b:	c5 fa 5c 44 24 14    	vsubss 0x14(%rsp),%xmm0,%xmm0
    3341:	c5 fa 59 05 cf 5c 00 	vmulss 0x5ccf(%rip),%xmm0,%xmm0        # 9018 <_IO_stdin_used+0x18>
    3348:	00 
    3349:	c5 fa 59 44 24 18    	vmulss 0x18(%rsp),%xmm0,%xmm0
    334f:	c5 fa 2c c0          	vcvttss2si %xmm0,%eax
    3353:	04 20                	add    $0x20,%al
    3355:	b1 20                	mov    $0x20,%cl
    3357:	eb 0b                	jmp    3364 <_Z15iters_to_colorsjjRKSt6vectorIjSaIjEE+0x564>
    3359:	0f 1f 80 00 00 00 00 	nopl   0x0(%rax)
    3360:	31 c0                	xor    %eax,%eax
    3362:	31 c9                	xor    %ecx,%ecx
    3364:	8d 53 fb             	lea    -0x5(%rbx),%edx
    3367:	41 88 4c 15 00       	mov    %cl,0x0(%r13,%rdx,1)
    336c:	8d 53 fc             	lea    -0x4(%rbx),%edx
    336f:	41 88 44 15 00       	mov    %al,0x0(%r13,%rdx,1)
    3374:	8d 43 fd             	lea    -0x3(%rbx),%eax
    3377:	41 88 4c 05 00       	mov    %cl,0x0(%r13,%rax,1)
    337c:	44 89 f8             	mov    %r15d,%eax
    337f:	8b 44 85 00          	mov    0x0(%rbp,%rax,4),%eax
    3383:	3b 44 24 04          	cmp    0x4(%rsp),%eax
    3387:	0f 82 43 ff ff ff    	jb     32d0 <_Z15iters_to_colorsjjRKSt6vectorIjSaIjEE+0x4d0>
    338d:	31 c0                	xor    %eax,%eax
    338f:	31 c9                	xor    %ecx,%ecx
    3391:	e9 61 ff ff ff       	jmp    32f7 <_Z15iters_to_colorsjjRKSt6vectorIjSaIjEE+0x4f7>
    3396:	66 2e 0f 1f 84 00 00 	cs nopw 0x0(%rax,%rax,1)
    339d:	00 00 00 
    33a0:	4c 8b 7c 24 38       	mov    0x38(%rsp),%r15
    33a5:	48 8b 5c 24 08       	mov    0x8(%rsp),%rbx
    33aa:	8b 44 24 28          	mov    0x28(%rsp),%eax
    33ae:	8b 4c 24 24          	mov    0x24(%rsp),%ecx
    33b2:	f6 44 24 30 01       	testb  $0x1,0x30(%rsp)
    33b7:	0f 84 d2 fe ff ff    	je     328f <_Z15iters_to_colorsjjRKSt6vectorIjSaIjEE+0x48f>
    33bd:	41 0f af df          	imul   %r15d,%ebx
    33c1:	44 01 f3             	add    %r14d,%ebx
    33c4:	8b 44 9d 00          	mov    0x0(%rbp,%rbx,4),%eax
    33c8:	3b 44 24 04          	cmp    0x4(%rsp),%eax
    33cc:	0f 82 6e fe ff ff    	jb     3240 <_Z15iters_to_colorsjjRKSt6vectorIjSaIjEE+0x440>
    33d2:	31 c0                	xor    %eax,%eax
    33d4:	31 c9                	xor    %ecx,%ecx
    33d6:	e9 8c fe ff ff       	jmp    3267 <_Z15iters_to_colorsjjRKSt6vectorIjSaIjEE+0x467>
    33db:	48 8b 44 24 40       	mov    0x40(%rsp),%rax
    33e0:	48 83 c4 48          	add    $0x48,%rsp
    33e4:	5b                   	pop    %rbx
    33e5:	41 5c                	pop    %r12
    33e7:	41 5d                	pop    %r13
    33e9:	41 5e                	pop    %r14
    33eb:	41 5f                	pop    %r15
    33ed:	5d                   	pop    %rbp
    33ee:	c3                   	ret
    33ef:	90                   	nop

00000000000033f0 <_Z10differencejjRSt6vectorIjSaIjEES2_>:
    33f0:	85 ff                	test   %edi,%edi
    33f2:	0f 84 bf 02 00 00    	je     36b7 <_Z10differencejjRSt6vectorIjSaIjEES2_+0x2c7>
    33f8:	55                   	push   %rbp
    33f9:	41 57                	push   %r15
    33fb:	41 56                	push   %r14
    33fd:	41 55                	push   %r13
    33ff:	41 54                	push   %r12
    3401:	53                   	push   %rbx
    3402:	89 74 24 e4          	mov    %esi,-0x1c(%rsp)
    3406:	48 8b 02             	mov    (%rdx),%rax
    3409:	48 8b 09             	mov    (%rcx),%rcx
    340c:	89 fa                	mov    %edi,%edx
    340e:	4c 8d 42 ff          	lea    -0x1(%rdx),%r8
    3412:	89 d6                	mov    %edx,%esi
    3414:	83 e6 f0             	and    $0xfffffff0,%esi
    3417:	48 89 74 24 e8       	mov    %rsi,-0x18(%rsp)
    341c:	89 d6                	mov    %edx,%esi
    341e:	83 e6 fc             	and    $0xfffffffc,%esi
    3421:	89 d3                	mov    %edx,%ebx
    3423:	83 e3 03             	and    $0x3,%ebx
    3426:	48 89 74 24 f8       	mov    %rsi,-0x8(%rsp)
    342b:	48 f7 de             	neg    %rsi
    342e:	48 89 74 24 f0       	mov    %rsi,-0x10(%rsp)
    3433:	45 31 f6             	xor    %r14d,%r14d
    3436:	31 ed                	xor    %ebp,%ebp
    3438:	45 31 ff             	xor    %r15d,%r15d
    343b:	eb 10                	jmp    344d <_Z10differencejjRSt6vectorIjSaIjEES2_+0x5d>
    343d:	0f 1f 00             	nopl   (%rax)
    3440:	ff c5                	inc    %ebp
    3442:	49 01 d6             	add    %rdx,%r14
    3445:	39 fd                	cmp    %edi,%ebp
    3447:	0f 84 55 02 00 00    	je     36a2 <_Z10differencejjRSt6vectorIjSaIjEES2_+0x2b2>
    344d:	83 ff 03             	cmp    $0x3,%edi
    3450:	76 22                	jbe    3474 <_Z10differencejjRSt6vectorIjSaIjEES2_+0x84>
    3452:	4c 89 c6             	mov    %r8,%rsi
    3455:	48 c1 ee 20          	shr    $0x20,%rsi
    3459:	40 0f 95 c6          	setne  %sil
    345d:	41 89 f9             	mov    %edi,%r9d
    3460:	44 0f af cd          	imul   %ebp,%r9d
    3464:	45 01 c1             	add    %r8d,%r9d
    3467:	41 0f 92 c1          	setb   %r9b
    346b:	41 08 f1             	or     %sil,%r9b
    346e:	0f 84 ec 00 00 00    	je     3560 <_Z10differencejjRSt6vectorIjSaIjEES2_+0x170>
    3474:	45 31 ed             	xor    %r13d,%r13d
    3477:	48 85 db             	test   %rbx,%rbx
    347a:	74 44                	je     34c0 <_Z10differencejjRSt6vectorIjSaIjEES2_+0xd0>
    347c:	49 89 db             	mov    %rbx,%r11
    347f:	4d 89 ec             	mov    %r13,%r12
    3482:	66 66 66 66 66 2e 0f 	data16 data16 data16 data16 cs nopw 0x0(%rax,%rax,1)
    3489:	1f 84 00 00 00 00 00 
    3490:	43 8d 34 26          	lea    (%r14,%r12,1),%esi
    3494:	44 8b 0c b0          	mov    (%rax,%rsi,4),%r9d
    3498:	8b 34 b1             	mov    (%rcx,%rsi,4),%esi
    349b:	45 89 ca             	mov    %r9d,%r10d
    349e:	41 29 f2             	sub    %esi,%r10d
    34a1:	44 29 ce             	sub    %r9d,%esi
    34a4:	41 0f 4c f2          	cmovl  %r10d,%esi
    34a8:	49 01 f7             	add    %rsi,%r15
    34ab:	49 ff c4             	inc    %r12
    34ae:	49 ff cb             	dec    %r11
    34b1:	75 dd                	jne    3490 <_Z10differencejjRSt6vectorIjSaIjEES2_+0xa0>
    34b3:	49 29 d5             	sub    %rdx,%r13
    34b6:	49 83 fd fc          	cmp    $0xfffffffffffffffc,%r13
    34ba:	76 14                	jbe    34d0 <_Z10differencejjRSt6vectorIjSaIjEES2_+0xe0>
    34bc:	eb 82                	jmp    3440 <_Z10differencejjRSt6vectorIjSaIjEES2_+0x50>
    34be:	66 90                	xchg   %ax,%ax
    34c0:	4d 89 ec             	mov    %r13,%r12
    34c3:	49 29 d5             	sub    %rdx,%r13
    34c6:	49 83 fd fc          	cmp    $0xfffffffffffffffc,%r13
    34ca:	0f 87 70 ff ff ff    	ja     3440 <_Z10differencejjRSt6vectorIjSaIjEES2_+0x50>
    34d0:	43 8d 34 26          	lea    (%r14,%r12,1),%esi
    34d4:	44 8b 0c b0          	mov    (%rax,%rsi,4),%r9d
    34d8:	44 8b 2c b1          	mov    (%rcx,%rsi,4),%r13d
    34dc:	44 89 ce             	mov    %r9d,%esi
    34df:	44 29 ee             	sub    %r13d,%esi
    34e2:	45 29 cd             	sub    %r9d,%r13d
    34e5:	44 0f 4c ee          	cmovl  %esi,%r13d
    34e9:	4d 01 fd             	add    %r15,%r13
    34ec:	43 8d 34 26          	lea    (%r14,%r12,1),%esi
    34f0:	ff c6                	inc    %esi
    34f2:	44 8b 0c b0          	mov    (%rax,%rsi,4),%r9d
    34f6:	8b 34 b1             	mov    (%rcx,%rsi,4),%esi
    34f9:	45 89 ca             	mov    %r9d,%r10d
    34fc:	41 29 f2             	sub    %esi,%r10d
    34ff:	44 29 ce             	sub    %r9d,%esi
    3502:	41 0f 4c f2          	cmovl  %r10d,%esi
    3506:	47 8d 4c 26 02       	lea    0x2(%r14,%r12,1),%r9d
    350b:	46 8b 14 88          	mov    (%rax,%r9,4),%r10d
    350f:	46 8b 0c 89          	mov    (%rcx,%r9,4),%r9d
    3513:	45 89 d3             	mov    %r10d,%r11d
    3516:	45 29 cb             	sub    %r9d,%r11d
    3519:	45 29 d1             	sub    %r10d,%r9d
    351c:	45 0f 4c cb          	cmovl  %r11d,%r9d
    3520:	49 01 f1             	add    %rsi,%r9
    3523:	4d 01 e9             	add    %r13,%r9
    3526:	43 8d 34 26          	lea    (%r14,%r12,1),%esi
    352a:	83 c6 03             	add    $0x3,%esi
    352d:	44 8b 14 b0          	mov    (%rax,%rsi,4),%r10d
    3531:	44 8b 3c b1          	mov    (%rcx,%rsi,4),%r15d
    3535:	44 89 d6             	mov    %r10d,%esi
    3538:	44 29 fe             	sub    %r15d,%esi
    353b:	45 29 d7             	sub    %r10d,%r15d
    353e:	44 0f 4c fe          	cmovl  %esi,%r15d
    3542:	4d 01 cf             	add    %r9,%r15
    3545:	49 83 c4 04          	add    $0x4,%r12
    3549:	4c 39 e2             	cmp    %r12,%rdx
    354c:	75 82                	jne    34d0 <_Z10differencejjRSt6vectorIjSaIjEES2_+0xe0>
    354e:	e9 ed fe ff ff       	jmp    3440 <_Z10differencejjRSt6vectorIjSaIjEES2_+0x50>
    3553:	66 66 66 66 2e 0f 1f 	data16 data16 data16 cs nopw 0x0(%rax,%rax,1)
    355a:	84 00 00 00 00 00 
    3560:	83 ff 10             	cmp    $0x10,%edi
    3563:	73 08                	jae    356d <_Z10differencejjRSt6vectorIjSaIjEES2_+0x17d>
    3565:	45 31 e4             	xor    %r12d,%r12d
    3568:	e9 d2 00 00 00       	jmp    363f <_Z10differencejjRSt6vectorIjSaIjEES2_+0x24f>
    356d:	c4 c1 f9 6e c7       	vmovq  %r15,%xmm0
    3572:	c5 f1 ef c9          	vpxor  %xmm1,%xmm1,%xmm1
    3576:	45 89 f7             	mov    %r14d,%r15d
    3579:	4c 8b 4c 24 e8       	mov    -0x18(%rsp),%r9
    357e:	4d 89 cc             	mov    %r9,%r12
    3581:	c5 e9 ef d2          	vpxor  %xmm2,%xmm2,%xmm2
    3585:	c5 e1 ef db          	vpxor  %xmm3,%xmm3,%xmm3
    3589:	0f 1f 80 00 00 00 00 	nopl   0x0(%rax)
    3590:	44 89 fe             	mov    %r15d,%esi
    3593:	c5 fa 6f 24 b0       	vmovdqu (%rax,%rsi,4),%xmm4
    3598:	c5 fa 6f 6c b0 10    	vmovdqu 0x10(%rax,%rsi,4),%xmm5
    359e:	c5 fa 6f 74 b0 20    	vmovdqu 0x20(%rax,%rsi,4),%xmm6
    35a4:	c5 fa 6f 7c b0 30    	vmovdqu 0x30(%rax,%rsi,4),%xmm7
    35aa:	c5 d9 fa 24 b1       	vpsubd (%rcx,%rsi,4),%xmm4,%xmm4
    35af:	c5 d1 fa 6c b1 10    	vpsubd 0x10(%rcx,%rsi,4),%xmm5,%xmm5
    35b5:	c5 c9 fa 74 b1 20    	vpsubd 0x20(%rcx,%rsi,4),%xmm6,%xmm6
    35bb:	c5 c1 fa 7c b1 30    	vpsubd 0x30(%rcx,%rsi,4),%xmm7,%xmm7
    35c1:	c4 e2 79 1e e4       	vpabsd %xmm4,%xmm4
    35c6:	c4 e2 79 1e ed       	vpabsd %xmm5,%xmm5
    35cb:	c4 e2 79 1e f6       	vpabsd %xmm6,%xmm6
    35d0:	c4 e2 79 1e ff       	vpabsd %xmm7,%xmm7
    35d5:	c4 e2 7d 35 e4       	vpmovzxdq %xmm4,%ymm4
    35da:	c5 fd d4 c4          	vpaddq %ymm4,%ymm0,%ymm0
    35de:	c4 e2 7d 35 e5       	vpmovzxdq %xmm5,%ymm4
    35e3:	c5 f5 d4 cc          	vpaddq %ymm4,%ymm1,%ymm1
    35e7:	c4 e2 7d 35 e6       	vpmovzxdq %xmm6,%ymm4
    35ec:	c5 ed d4 d4          	vpaddq %ymm4,%ymm2,%ymm2
    35f0:	c4 e2 7d 35 e7       	vpmovzxdq %xmm7,%ymm4
    35f5:	c5 e5 d4 dc          	vpaddq %ymm4,%ymm3,%ymm3
    35f9:	41 83 c7 10          	add    $0x10,%r15d
    35fd:	49 83 c4 f0          	add    $0xfffffffffffffff0,%r12
    3601:	75 8d                	jne    3590 <_Z10differencejjRSt6vectorIjSaIjEES2_+0x1a0>
    3603:	c5 f5 d4 c0          	vpaddq %ymm0,%ymm1,%ymm0
    3607:	c5 ed d4 c0          	vpaddq %ymm0,%ymm2,%ymm0
    360b:	c5 e5 d4 c0          	vpaddq %ymm0,%ymm3,%ymm0
    360f:	c4 e3 7d 39 c1 01    	vextracti128 $0x1,%ymm0,%xmm1
    3615:	c5 f9 d4 c1          	vpaddq %xmm1,%xmm0,%xmm0
    3619:	c5 f9 70 c8 ee       	vpshufd $0xee,%xmm0,%xmm1
    361e:	c5 f9 d4 c1          	vpaddq %xmm1,%xmm0,%xmm0
    3622:	c4 c1 f9 7e c7       	vmovq  %xmm0,%r15
    3627:	41 39 d1             	cmp    %edx,%r9d
    362a:	0f 84 10 fe ff ff    	je     3440 <_Z10differencejjRSt6vectorIjSaIjEES2_+0x50>
    3630:	4d 89 cd             	mov    %r9,%r13
    3633:	4d 89 cc             	mov    %r9,%r12
    3636:	f6 c2 0c             	test   $0xc,%dl
    3639:	0f 84 38 fe ff ff    	je     3477 <_Z10differencejjRSt6vectorIjSaIjEES2_+0x87>
    363f:	c4 c1 f9 6e c7       	vmovq  %r15,%xmm0
    3644:	48 8b 74 24 f0       	mov    -0x10(%rsp),%rsi
    3649:	4e 8d 1c 26          	lea    (%rsi,%r12,1),%r11
    364d:	45 01 f4             	add    %r14d,%r12d
    3650:	44 89 e6             	mov    %r12d,%esi
    3653:	c5 fa 6f 0c b0       	vmovdqu (%rax,%rsi,4),%xmm1
    3658:	c5 f1 fa 0c b1       	vpsubd (%rcx,%rsi,4),%xmm1,%xmm1
    365d:	c4 e2 79 1e c9       	vpabsd %xmm1,%xmm1
    3662:	c4 e2 7d 35 c9       	vpmovzxdq %xmm1,%ymm1
    3667:	c5 fd d4 c1          	vpaddq %ymm1,%ymm0,%ymm0
    366b:	41 83 c4 04          	add    $0x4,%r12d
    366f:	49 83 c3 04          	add    $0x4,%r11
    3673:	75 db                	jne    3650 <_Z10differencejjRSt6vectorIjSaIjEES2_+0x260>
    3675:	c4 e3 7d 39 c1 01    	vextracti128 $0x1,%ymm0,%xmm1
    367b:	c5 f9 d4 c1          	vpaddq %xmm1,%xmm0,%xmm0
    367f:	c5 f9 70 c8 ee       	vpshufd $0xee,%xmm0,%xmm1
    3684:	c5 f9 d4 c1          	vpaddq %xmm1,%xmm0,%xmm0
    3688:	c4 c1 f9 7e c7       	vmovq  %xmm0,%r15
    368d:	48 8b 74 24 f8       	mov    -0x8(%rsp),%rsi
    3692:	49 89 f5             	mov    %rsi,%r13
    3695:	39 d6                	cmp    %edx,%esi
    3697:	0f 84 a3 fd ff ff    	je     3440 <_Z10differencejjRSt6vectorIjSaIjEES2_+0x50>
    369d:	e9 d5 fd ff ff       	jmp    3477 <_Z10differencejjRSt6vectorIjSaIjEES2_+0x87>
    36a2:	c4 c1 bb 2a c7       	vcvtsi2sd %r15,%xmm8,%xmm0
    36a7:	8b 74 24 e4          	mov    -0x1c(%rsp),%esi
    36ab:	5b                   	pop    %rbx
    36ac:	41 5c                	pop    %r12
    36ae:	41 5d                	pop    %r13
    36b0:	41 5e                	pop    %r14
    36b2:	41 5f                	pop    %r15
    36b4:	5d                   	pop    %rbp
    36b5:	eb 04                	jmp    36bb <_Z10differencejjRSt6vectorIjSaIjEES2_+0x2cb>
    36b7:	c5 f9 57 c0          	vxorpd %xmm0,%xmm0,%xmm0
    36bb:	0f af ff             	imul   %edi,%edi
    36be:	0f af fe             	imul   %esi,%edi
    36c1:	62 f1 3f 08 7b cf    	vcvtusi2sd %edi,%xmm8,%xmm1
    36c7:	c5 fb 5e c1          	vdivsd %xmm1,%xmm0,%xmm0
    36cb:	c5 f8 77             	vzeroupper
    36ce:	c3                   	ret
    36cf:	90                   	nop

00000000000036d0 <_Z10dump_imagePKcjjRKSt6vectorIjSaIjEE>:
    36d0:	41 57                	push   %r15
    36d2:	41 56                	push   %r14
    36d4:	53                   	push   %rbx
    36d5:	48 83 ec 20          	sub    $0x20,%rsp
    36d9:	89 f3                	mov    %esi,%ebx
    36db:	49 89 fe             	mov    %rdi,%r14
    36de:	4c 8d 7c 24 08       	lea    0x8(%rsp),%r15
    36e3:	4c 89 ff             	mov    %r15,%rdi
    36e6:	e8 15 f7 ff ff       	call   2e00 <_Z15iters_to_colorsjjRKSt6vectorIjSaIjEE>
    36eb:	4c 89 f7             	mov    %r14,%rdi
    36ee:	89 de                	mov    %ebx,%esi
    36f0:	4c 89 fa             	mov    %r15,%rdx
    36f3:	e8 38 f6 ff ff       	call   2d30 <_Z8writeBMPPKcjRKSt6vectorIhSaIhEE>
    36f8:	48 8b 7c 24 08       	mov    0x8(%rsp),%rdi
    36fd:	48 85 ff             	test   %rdi,%rdi
    3700:	74 16                	je     3718 <_Z10dump_imagePKcjjRKSt6vectorIjSaIjEE+0x48>
    3702:	48 8b 74 24 18       	mov    0x18(%rsp),%rsi
    3707:	48 29 fe             	sub    %rdi,%rsi
    370a:	48 83 c4 20          	add    $0x20,%rsp
    370e:	5b                   	pop    %rbx
    370f:	41 5e                	pop    %r14
    3711:	41 5f                	pop    %r15
    3713:	e9 f8 e9 ff ff       	jmp    2110 <_ZdlPvm@plt>
    3718:	48 83 c4 20          	add    $0x20,%rsp
    371c:	5b                   	pop    %rbx
    371d:	41 5e                	pop    %r14
    371f:	41 5f                	pop    %r15
    3721:	c3                   	ret
    3722:	48 89 c3             	mov    %rax,%rbx
    3725:	48 8b 7c 24 08       	mov    0x8(%rsp),%rdi
    372a:	48 85 ff             	test   %rdi,%rdi
    372d:	74 0d                	je     373c <_Z10dump_imagePKcjjRKSt6vectorIjSaIjEE+0x6c>
    372f:	48 8b 74 24 18       	mov    0x18(%rsp),%rsi
    3734:	48 29 fe             	sub    %rdi,%rsi
    3737:	e8 d4 e9 ff ff       	call   2110 <_ZdlPvm@plt>
    373c:	48 89 df             	mov    %rbx,%rdi
    373f:	e8 ac ea ff ff       	call   21f0 <_Unwind_Resume@plt>
    3744:	66 66 66 2e 0f 1f 84 	data16 data16 cs nopw 0x0(%rax,%rax,1)
    374b:	00 00 00 00 00 

0000000000003750 <main>:
    3750:	55                   	push   %rbp
    3751:	41 57                	push   %r15
    3753:	41 56                	push   %r14
    3755:	41 55                	push   %r13
    3757:	41 54                	push   %r12
    3759:	53                   	push   %rbx
    375a:	48 81 ec 38 02 00 00 	sub    $0x238,%rsp
    3761:	c7 44 24 74 00 04 00 	movl   $0x400,0x74(%rsp)
    3768:	00 
    3769:	c7 84 24 88 00 00 00 	movl   $0x7d0,0x88(%rsp)
    3770:	d0 07 00 00 
    3774:	c7 84 24 84 00 00 00 	movl   $0x6,0x84(%rsp)
    377b:	06 00 00 00 
    377f:	48 8d 54 24 74       	lea    0x74(%rsp),%rdx
    3784:	48 8d 8c 24 88 00 00 	lea    0x88(%rsp),%rcx
    378b:	00 
    378c:	4c 8d 84 24 84 00 00 	lea    0x84(%rsp),%r8
    3793:	00 
    3794:	e8 77 f1 ff ff       	call   2910 <_Z20ParseArgsAndMakeSpeciPPcPjS1_P14MandelbrotImpl>
    3799:	89 c1                	mov    %eax,%ecx
    379b:	b8 ff ff ff ff       	mov    $0xffffffff,%eax
    37a0:	85 c9                	test   %ecx,%ecx
    37a2:	0f 85 21 47 00 00    	jne    7ec9 <main+0x4779>
    37a8:	44 8b 64 24 74       	mov    0x74(%rsp),%r12d
    37ad:	45 89 e5             	mov    %r12d,%r13d
    37b0:	45 0f af ed          	imul   %r13d,%r13d
    37b4:	45 85 ed             	test   %r13d,%r13d
    37b7:	4c 89 ac 24 a0 00 00 	mov    %r13,0xa0(%rsp)
    37be:	00 
    37bf:	0f 84 84 00 00 00    	je     3849 <main+0xf9>
    37c5:	4e 8d 34 ad 00 00 00 	lea    0x0(,%r13,4),%r14
    37cc:	00 
    37cd:	4c 89 f7             	mov    %r14,%rdi
    37d0:	e8 2b e9 ff ff       	call   2100 <_Znwm@plt>
    37d5:	48 89 c3             	mov    %rax,%rbx
    37d8:	c7 00 00 00 00 00    	movl   $0x0,(%rax)
    37de:	49 83 fd 01          	cmp    $0x1,%r13
    37e2:	74 0f                	je     37f3 <main+0xa3>
    37e4:	48 8d 7b 04          	lea    0x4(%rbx),%rdi
    37e8:	49 8d 56 fc          	lea    -0x4(%r14),%rdx
    37ec:	31 f6                	xor    %esi,%esi
    37ee:	e8 ad e8 ff ff       	call   20a0 <memset@plt>
    37f3:	4a 8d 04 ab          	lea    (%rbx,%r13,4),%rax
    37f7:	48 89 84 24 98 00 00 	mov    %rax,0x98(%rsp)
    37fe:	00 
    37ff:	4c 89 f7             	mov    %r14,%rdi
    3802:	e8 f9 e8 ff ff       	call   2100 <_Znwm@plt>
    3807:	49 89 c7             	mov    %rax,%r15
    380a:	4a 8d 04 a8          	lea    (%rax,%r13,4),%rax
    380e:	48 89 84 24 90 00 00 	mov    %rax,0x90(%rsp)
    3815:	00 
    3816:	41 c7 07 00 00 00 00 	movl   $0x0,(%r15)
    381d:	49 83 fd 01          	cmp    $0x1,%r13
    3821:	74 15                	je     3838 <main+0xe8>
    3823:	4c 89 ff             	mov    %r15,%rdi
    3826:	48 83 c7 04          	add    $0x4,%rdi
    382a:	49 83 c6 fc          	add    $0xfffffffffffffffc,%r14
    382e:	31 f6                	xor    %esi,%esi
    3830:	4c 89 f2             	mov    %r14,%rdx
    3833:	e8 68 e8 ff ff       	call   20a0 <memset@plt>
    3838:	8b ac 24 88 00 00 00 	mov    0x88(%rsp),%ebp
    383f:	4d 85 e4             	test   %r12,%r12
    3842:	75 32                	jne    3876 <main+0x126>
    3844:	e9 1c 02 00 00       	jmp    3a65 <main+0x315>
    3849:	31 db                	xor    %ebx,%ebx
    384b:	48 c7 84 24 98 00 00 	movq   $0x0,0x98(%rsp)
    3852:	00 00 00 00 00 
    3857:	48 c7 84 24 90 00 00 	movq   $0x0,0x90(%rsp)
    385e:	00 00 00 00 00 
    3863:	45 31 ff             	xor    %r15d,%r15d
    3866:	8b ac 24 88 00 00 00 	mov    0x88(%rsp),%ebp
    386d:	4d 85 e4             	test   %r12,%r12
    3870:	0f 84 ef 01 00 00    	je     3a65 <main+0x315>
    3876:	85 ed                	test   %ebp,%ebp
    3878:	0f 84 d2 01 00 00    	je     3a50 <main+0x300>
    387e:	62 d1 7e 08 7b c4    	vcvtusi2ss %r12d,%xmm0,%xmm0
    3884:	c5 fa 10 0d 78 57 00 	vmovss 0x5778(%rip),%xmm1        # 9004 <_IO_stdin_used+0x4>
    388b:	00 
    388c:	c5 f2 5e c0          	vdivss %xmm0,%xmm1,%xmm0
    3890:	44 89 e0             	mov    %r12d,%eax
    3893:	83 e0 fe             	and    $0xfffffffe,%eax
    3896:	31 c9                	xor    %ecx,%ecx
    3898:	c5 fa 10 0d 68 57 00 	vmovss 0x5768(%rip),%xmm1        # 9008 <_IO_stdin_used+0x8>
    389f:	00 
    38a0:	c5 fa 10 15 64 57 00 	vmovss 0x5764(%rip),%xmm2        # 900c <_IO_stdin_used+0xc>
    38a7:	00 
    38a8:	c5 fa 10 1d 60 57 00 	vmovss 0x5760(%rip),%xmm3        # 9010 <_IO_stdin_used+0x10>
    38af:	00 
    38b0:	c5 fa 10 25 5c 57 00 	vmovss 0x575c(%rip),%xmm4        # 9014 <_IO_stdin_used+0x14>
    38b7:	00 
    38b8:	eb 15                	jmp    38cf <main+0x17f>
    38ba:	66 0f 1f 44 00 00    	nopw   0x0(%rax,%rax,1)
    38c0:	89 3c b2             	mov    %edi,(%rdx,%rsi,4)
    38c3:	48 ff c1             	inc    %rcx
    38c6:	4c 39 e1             	cmp    %r12,%rcx
    38c9:	0f 84 96 01 00 00    	je     3a65 <main+0x315>
    38cf:	c4 e1 9a 2a e9       	vcvtsi2ss %rcx,%xmm12,%xmm5
    38d4:	48 89 ca             	mov    %rcx,%rdx
    38d7:	49 0f af d4          	imul   %r12,%rdx
    38db:	c5 d2 59 e9          	vmulss %xmm1,%xmm5,%xmm5
    38df:	c4 e2 79 a9 ea       	vfmadd213ss %xmm2,%xmm0,%xmm5
    38e4:	49 8d 14 97          	lea    (%r15,%rdx,4),%rdx
    38e8:	31 f6                	xor    %esi,%esi
    38ea:	49 83 fc 01          	cmp    $0x1,%r12
    38ee:	0f 85 7d 00 00 00    	jne    3971 <main+0x221>
    38f4:	41 f6 c4 01          	test   $0x1,%r12b
    38f8:	74 c9                	je     38c3 <main+0x173>
    38fa:	c4 e1 9a 2a f6       	vcvtsi2ss %rsi,%xmm12,%xmm6
    38ff:	c5 ca 59 f1          	vmulss %xmm1,%xmm6,%xmm6
    3903:	c4 e2 79 a9 f3       	vfmadd213ss %xmm3,%xmm0,%xmm6
    3908:	31 ff                	xor    %edi,%edi
    390a:	c4 41 30 57 c9       	vxorps %xmm9,%xmm9,%xmm9
    390f:	c4 41 28 57 d2       	vxorps %xmm10,%xmm10,%xmm10
    3914:	c5 c0 57 ff          	vxorps %xmm7,%xmm7,%xmm7
    3918:	c4 41 38 57 c0       	vxorps %xmm8,%xmm8,%xmm8
    391d:	0f 1f 00             	nopl   (%rax)
    3920:	c4 41 2a 5c c9       	vsubss %xmm9,%xmm10,%xmm9
    3925:	c5 ba 5c ff          	vsubss %xmm7,%xmm8,%xmm7
    3929:	c5 4a 58 d7          	vaddss %xmm7,%xmm6,%xmm10
    392d:	c5 32 58 dd          	vaddss %xmm5,%xmm9,%xmm11
    3931:	c4 41 2a 59 c2       	vmulss %xmm10,%xmm10,%xmm8
    3936:	c4 c1 22 59 fb       	vmulss %xmm11,%xmm11,%xmm7
    393b:	ff c7                	inc    %edi
    393d:	c5 3a 58 cf          	vaddss %xmm7,%xmm8,%xmm9
    3941:	c5 78 2e cc          	vucomiss %xmm4,%xmm9
    3945:	0f 87 75 ff ff ff    	ja     38c0 <main+0x170>
    394b:	c4 41 2a 58 d3       	vaddss %xmm11,%xmm10,%xmm10
    3950:	c4 41 2a 59 d2       	vmulss %xmm10,%xmm10,%xmm10
    3955:	39 ef                	cmp    %ebp,%edi
    3957:	72 c7                	jb     3920 <main+0x1d0>
    3959:	e9 62 ff ff ff       	jmp    38c0 <main+0x170>
    395e:	66 90                	xchg   %ax,%ax
    3960:	44 89 04 ba          	mov    %r8d,(%rdx,%rdi,4)
    3964:	48 83 c6 02          	add    $0x2,%rsi
    3968:	48 39 c6             	cmp    %rax,%rsi
    396b:	0f 84 83 ff ff ff    	je     38f4 <main+0x1a4>
    3971:	c4 e1 9a 2a f6       	vcvtsi2ss %rsi,%xmm12,%xmm6
    3976:	c5 ca 59 f1          	vmulss %xmm1,%xmm6,%xmm6
    397a:	c4 e2 79 a9 f3       	vfmadd213ss %xmm3,%xmm0,%xmm6
    397f:	31 ff                	xor    %edi,%edi
    3981:	c4 41 30 57 c9       	vxorps %xmm9,%xmm9,%xmm9
    3986:	c4 41 28 57 d2       	vxorps %xmm10,%xmm10,%xmm10
    398b:	c5 c0 57 ff          	vxorps %xmm7,%xmm7,%xmm7
    398f:	c4 41 38 57 c0       	vxorps %xmm8,%xmm8,%xmm8
    3994:	66 66 66 2e 0f 1f 84 	data16 data16 cs nopw 0x0(%rax,%rax,1)
    399b:	00 00 00 00 00 
    39a0:	c4 41 2a 5c c9       	vsubss %xmm9,%xmm10,%xmm9
    39a5:	c5 ba 5c ff          	vsubss %xmm7,%xmm8,%xmm7
    39a9:	c5 4a 58 d7          	vaddss %xmm7,%xmm6,%xmm10
    39ad:	c5 32 58 dd          	vaddss %xmm5,%xmm9,%xmm11
    39b1:	c4 41 2a 59 c2       	vmulss %xmm10,%xmm10,%xmm8
    39b6:	c4 c1 22 59 fb       	vmulss %xmm11,%xmm11,%xmm7
    39bb:	ff c7                	inc    %edi
    39bd:	c5 3a 58 cf          	vaddss %xmm7,%xmm8,%xmm9
    39c1:	c5 78 2e cc          	vucomiss %xmm4,%xmm9
    39c5:	77 0e                	ja     39d5 <main+0x285>
    39c7:	c4 41 2a 58 d3       	vaddss %xmm11,%xmm10,%xmm10
    39cc:	c4 41 2a 59 d2       	vmulss %xmm10,%xmm10,%xmm10
    39d1:	39 ef                	cmp    %ebp,%edi
    39d3:	72 cb                	jb     39a0 <main+0x250>
    39d5:	89 3c b2             	mov    %edi,(%rdx,%rsi,4)
    39d8:	48 89 f7             	mov    %rsi,%rdi
    39db:	48 83 cf 01          	or     $0x1,%rdi
    39df:	c4 e1 9a 2a f7       	vcvtsi2ss %rdi,%xmm12,%xmm6
    39e4:	c5 ca 59 f1          	vmulss %xmm1,%xmm6,%xmm6
    39e8:	c4 e2 79 a9 f3       	vfmadd213ss %xmm3,%xmm0,%xmm6
    39ed:	45 31 c0             	xor    %r8d,%r8d
    39f0:	c4 41 30 57 c9       	vxorps %xmm9,%xmm9,%xmm9
    39f5:	c4 41 28 57 d2       	vxorps %xmm10,%xmm10,%xmm10
    39fa:	c5 c0 57 ff          	vxorps %xmm7,%xmm7,%xmm7
    39fe:	c4 41 38 57 c0       	vxorps %xmm8,%xmm8,%xmm8
    3a03:	66 66 66 66 2e 0f 1f 	data16 data16 data16 cs nopw 0x0(%rax,%rax,1)
    3a0a:	84 00 00 00 00 00 
    3a10:	c4 41 2a 5c c9       	vsubss %xmm9,%xmm10,%xmm9
    3a15:	c5 ba 5c ff          	vsubss %xmm7,%xmm8,%xmm7
    3a19:	c5 4a 58 d7          	vaddss %xmm7,%xmm6,%xmm10
    3a1d:	c5 32 58 dd          	vaddss %xmm5,%xmm9,%xmm11
    3a21:	c4 41 2a 59 c2       	vmulss %xmm10,%xmm10,%xmm8
    3a26:	c4 c1 22 59 fb       	vmulss %xmm11,%xmm11,%xmm7
    3a2b:	41 ff c0             	inc    %r8d
    3a2e:	c5 3a 58 cf          	vaddss %xmm7,%xmm8,%xmm9
    3a32:	c5 78 2e cc          	vucomiss %xmm4,%xmm9
    3a36:	0f 87 24 ff ff ff    	ja     3960 <main+0x210>
    3a3c:	c4 41 2a 58 d3       	vaddss %xmm11,%xmm10,%xmm10
    3a41:	c4 41 2a 59 d2       	vmulss %xmm10,%xmm10,%xmm10
    3a46:	41 39 e8             	cmp    %ebp,%r8d
    3a49:	72 c5                	jb     3a10 <main+0x2c0>
    3a4b:	e9 10 ff ff ff       	jmp    3960 <main+0x210>
    3a50:	4c 89 e2             	mov    %r12,%rdx
    3a53:	49 0f af d4          	imul   %r12,%rdx
    3a57:	48 c1 e2 02          	shl    $0x2,%rdx
    3a5b:	4c 89 ff             	mov    %r15,%rdi
    3a5e:	31 f6                	xor    %esi,%esi
    3a60:	e8 3b e6 ff ff       	call   20a0 <memset@plt>
    3a65:	8b 84 24 84 00 00 00 	mov    0x84(%rsp),%eax
    3a6c:	83 f8 06             	cmp    $0x6,%eax
    3a6f:	4c 89 7c 24 08       	mov    %r15,0x8(%rsp)
    3a74:	4c 89 64 24 50       	mov    %r12,0x50(%rsp)
    3a79:	89 84 24 8c 00 00 00 	mov    %eax,0x8c(%rsp)
    3a80:	74 08                	je     3a8a <main+0x33a>
    3a82:	85 c0                	test   %eax,%eax
    3a84:	0f 85 ad 0b 00 00    	jne    4637 <main+0xee7>
    3a8a:	4c 89 e2             	mov    %r12,%rdx
    3a8d:	49 0f af d4          	imul   %r12,%rdx
    3a91:	48 c1 e2 02          	shl    $0x2,%rdx
    3a95:	48 89 df             	mov    %rbx,%rdi
    3a98:	31 f6                	xor    %esi,%esi
    3a9a:	48 89 54 24 58       	mov    %rdx,0x58(%rsp)
    3a9f:	e8 fc e5 ff ff       	call   20a0 <memset@plt>
    3aa4:	48 8b 05 0d 75 00 00 	mov    0x750d(%rip),%rax        # afb8 <_ZSt4cout@GLIBCXX_3.4>
    3aab:	48 8b 08             	mov    (%rax),%rcx
    3aae:	48 8b 49 e8          	mov    -0x18(%rcx),%rcx
    3ab2:	4c 8b b4 08 f0 00 00 	mov    0xf0(%rax,%rcx,1),%r14
    3ab9:	00 
    3aba:	4d 85 f6             	test   %r14,%r14
    3abd:	0f 84 18 44 00 00    	je     7edb <main+0x478b>
    3ac3:	41 80 7e 38 00       	cmpb   $0x0,0x38(%r14)
    3ac8:	74 07                	je     3ad1 <main+0x381>
    3aca:	41 0f b6 46 43       	movzbl 0x43(%r14),%eax
    3acf:	eb 16                	jmp    3ae7 <main+0x397>
    3ad1:	4c 89 f7             	mov    %r14,%rdi
    3ad4:	e8 67 e6 ff ff       	call   2140 <_ZNKSt5ctypeIcE13_M_widen_initEv@plt>
    3ad9:	49 8b 06             	mov    (%r14),%rax
    3adc:	4c 89 f7             	mov    %r14,%rdi
    3adf:	be 0a 00 00 00       	mov    $0xa,%esi
    3ae4:	ff 50 30             	call   *0x30(%rax)
    3ae7:	0f be f0             	movsbl %al,%esi
    3aea:	48 8b 3d c7 74 00 00 	mov    0x74c7(%rip),%rdi        # afb8 <_ZSt4cout@GLIBCXX_3.4>
    3af1:	e8 3a e5 ff ff       	call   2030 <_ZNSo3putEc@plt>
    3af6:	48 89 c7             	mov    %rax,%rdi
    3af9:	e8 c2 e5 ff ff       	call   20c0 <_ZNSo5flushEv@plt>
    3afe:	49 89 c6             	mov    %rax,%r14
    3b01:	48 8d 35 51 58 00 00 	lea    0x5851(%rip),%rsi        # 9359 <_IO_stdin_used+0x359>
    3b08:	ba 08 00 00 00       	mov    $0x8,%edx
    3b0d:	48 89 c7             	mov    %rax,%rdi
    3b10:	e8 1b e6 ff ff       	call   2130 <_ZSt16__ostream_insertIcSt11char_traitsIcEERSt13basic_ostreamIT_T0_ES6_PKS3_l@plt>
    3b15:	48 8d 35 46 58 00 00 	lea    0x5846(%rip),%rsi        # 9362 <_IO_stdin_used+0x362>
    3b1c:	ba 15 00 00 00       	mov    $0x15,%edx
    3b21:	4c 89 f7             	mov    %r14,%rdi
    3b24:	e8 07 e6 ff ff       	call   2130 <_ZSt16__ostream_insertIcSt11char_traitsIcEERSt13basic_ostreamIT_T0_ES6_PKS3_l@plt>
    3b29:	48 8d 35 48 58 00 00 	lea    0x5848(%rip),%rsi        # 9378 <_IO_stdin_used+0x378>
    3b30:	ba 05 00 00 00       	mov    $0x5,%edx
    3b35:	4c 89 f7             	mov    %r14,%rdi
    3b38:	e8 f3 e5 ff ff       	call   2130 <_ZSt16__ostream_insertIcSt11char_traitsIcEERSt13basic_ostreamIT_T0_ES6_PKS3_l@plt>
    3b3d:	bf 50 00 00 00       	mov    $0x50,%edi
    3b42:	e8 b9 e5 ff ff       	call   2100 <_Znwm@plt>
    3b47:	48 89 44 24 28       	mov    %rax,0x28(%rsp)
    3b4c:	62 d1 1e 08 7b c4    	vcvtusi2ss %r12d,%xmm12,%xmm0
    3b52:	c5 f0 57 c9          	vxorps %xmm1,%xmm1,%xmm1
    3b56:	c5 fc 11 48 30       	vmovups %ymm1,0x30(%rax)
    3b5b:	c5 fc 11 48 20       	vmovups %ymm1,0x20(%rax)
    3b60:	48 89 44 24 18       	mov    %rax,0x18(%rsp)
    3b65:	c5 fc 11 08          	vmovups %ymm1,(%rax)
    3b69:	c5 fa 10 0d 93 54 00 	vmovss 0x5493(%rip),%xmm1        # 9004 <_IO_stdin_used+0x4>
    3b70:	00 
    3b71:	49 8d 44 24 ff       	lea    -0x1(%r12),%rax
    3b76:	48 89 44 24 20       	mov    %rax,0x20(%rsp)
    3b7b:	c5 f2 5e c0          	vdivss %xmm0,%xmm1,%xmm0
    3b7f:	c5 fa 11 44 24 68    	vmovss %xmm0,0x68(%rsp)
    3b85:	45 89 e5             	mov    %r12d,%r13d
    3b88:	41 83 e5 fe          	and    $0xfffffffe,%r13d
    3b8c:	45 31 f6             	xor    %r14d,%r14d
    3b8f:	eb 46                	jmp    3bd7 <main+0x487>
    3b91:	66 66 66 66 66 66 2e 	data16 data16 data16 data16 data16 cs nopw 0x0(%rax,%rax,1)
    3b98:	0f 1f 84 00 00 00 00 
    3b9f:	00 
    3ba0:	48 89 df             	mov    %rbx,%rdi
    3ba3:	31 f6                	xor    %esi,%esi
    3ba5:	48 8b 54 24 58       	mov    0x58(%rsp),%rdx
    3baa:	e8 f1 e4 ff ff       	call   20a0 <memset@plt>
    3baf:	e8 8c e4 ff ff       	call   2040 <_ZNSt6chrono3_V212system_clock3nowEv@plt>
    3bb4:	48 2b 44 24 10       	sub    0x10(%rsp),%rax
    3bb9:	62 f1 9f 08 7b c0    	vcvtusi2sd %rax,%xmm12,%xmm0
    3bbf:	48 8b 44 24 18       	mov    0x18(%rsp),%rax
    3bc4:	c4 a1 7b 11 04 f0    	vmovsd %xmm0,(%rax,%r14,8)
    3bca:	49 ff c6             	inc    %r14
    3bcd:	49 83 fe 0a          	cmp    $0xa,%r14
    3bd1:	0f 84 c3 01 00 00    	je     3d9a <main+0x64a>
    3bd7:	c5 f8 77             	vzeroupper
    3bda:	e8 61 e4 ff ff       	call   2040 <_ZNSt6chrono3_V212system_clock3nowEv@plt>
    3bdf:	48 89 44 24 10       	mov    %rax,0x10(%rsp)
    3be4:	4d 85 e4             	test   %r12,%r12
    3be7:	c5 fa 10 7c 24 68    	vmovss 0x68(%rsp),%xmm7
    3bed:	c5 7a 10 05 13 54 00 	vmovss 0x5413(%rip),%xmm8        # 9008 <_IO_stdin_used+0x8>
    3bf4:	00 
    3bf5:	c5 7a 10 0d 0f 54 00 	vmovss 0x540f(%rip),%xmm9        # 900c <_IO_stdin_used+0xc>
    3bfc:	00 
    3bfd:	c5 7a 10 15 0b 54 00 	vmovss 0x540b(%rip),%xmm10        # 9010 <_IO_stdin_used+0x10>
    3c04:	00 
    3c05:	c5 7a 10 1d 07 54 00 	vmovss 0x5407(%rip),%xmm11        # 9014 <_IO_stdin_used+0x14>
    3c0c:	00 
    3c0d:	74 a0                	je     3baf <main+0x45f>
    3c0f:	85 ed                	test   %ebp,%ebp
    3c11:	74 8d                	je     3ba0 <main+0x450>
    3c13:	31 c0                	xor    %eax,%eax
    3c15:	eb 14                	jmp    3c2b <main+0x4db>
    3c17:	66 0f 1f 84 00 00 00 	nopw   0x0(%rax,%rax,1)
    3c1e:	00 00 
    3c20:	89 34 91             	mov    %esi,(%rcx,%rdx,4)
    3c23:	48 ff c0             	inc    %rax
    3c26:	4c 39 e0             	cmp    %r12,%rax
    3c29:	74 84                	je     3baf <main+0x45f>
    3c2b:	c4 e1 9a 2a c0       	vcvtsi2ss %rax,%xmm12,%xmm0
    3c30:	48 89 c1             	mov    %rax,%rcx
    3c33:	49 0f af cc          	imul   %r12,%rcx
    3c37:	c5 ba 59 c0          	vmulss %xmm0,%xmm8,%xmm0
    3c3b:	c4 c2 41 a9 c1       	vfmadd213ss %xmm9,%xmm7,%xmm0
    3c40:	48 8d 0c 8b          	lea    (%rbx,%rcx,4),%rcx
    3c44:	48 83 7c 24 20 00    	cmpq   $0x0,0x20(%rsp)
    3c4a:	0f 84 e0 00 00 00    	je     3d30 <main+0x5e0>
    3c50:	31 d2                	xor    %edx,%edx
    3c52:	eb 1c                	jmp    3c70 <main+0x520>
    3c54:	66 66 66 2e 0f 1f 84 	data16 data16 cs nopw 0x0(%rax,%rax,1)
    3c5b:	00 00 00 00 00 
    3c60:	89 3c b1             	mov    %edi,(%rcx,%rsi,4)
    3c63:	48 83 c2 02          	add    $0x2,%rdx
    3c67:	4c 39 ea             	cmp    %r13,%rdx
    3c6a:	0f 84 c2 00 00 00    	je     3d32 <main+0x5e2>
    3c70:	c4 e1 9a 2a ca       	vcvtsi2ss %rdx,%xmm12,%xmm1
    3c75:	c5 ba 59 c9          	vmulss %xmm1,%xmm8,%xmm1
    3c79:	c4 c2 41 a9 ca       	vfmadd213ss %xmm10,%xmm7,%xmm1
    3c7e:	31 f6                	xor    %esi,%esi
    3c80:	c5 d8 57 e4          	vxorps %xmm4,%xmm4,%xmm4
    3c84:	c5 d0 57 ed          	vxorps %xmm5,%xmm5,%xmm5
    3c88:	c5 e8 57 d2          	vxorps %xmm2,%xmm2,%xmm2
    3c8c:	c5 e0 57 db          	vxorps %xmm3,%xmm3,%xmm3
    3c90:	c5 d2 5c e4          	vsubss %xmm4,%xmm5,%xmm4
    3c94:	c5 e2 5c d2          	vsubss %xmm2,%xmm3,%xmm2
    3c98:	c5 f2 58 ea          	vaddss %xmm2,%xmm1,%xmm5
    3c9c:	c5 fa 58 f4          	vaddss %xmm4,%xmm0,%xmm6
    3ca0:	c5 d2 59 dd          	vmulss %xmm5,%xmm5,%xmm3
    3ca4:	c5 ca 59 d6          	vmulss %xmm6,%xmm6,%xmm2
    3ca8:	ff c6                	inc    %esi
    3caa:	c5 e2 58 e2          	vaddss %xmm2,%xmm3,%xmm4
    3cae:	c4 c1 78 2e e3       	vucomiss %xmm11,%xmm4
    3cb3:	77 0c                	ja     3cc1 <main+0x571>
    3cb5:	c5 d2 58 ee          	vaddss %xmm6,%xmm5,%xmm5
    3cb9:	c5 d2 59 ed          	vmulss %xmm5,%xmm5,%xmm5
    3cbd:	39 ee                	cmp    %ebp,%esi
    3cbf:	72 cf                	jb     3c90 <main+0x540>
    3cc1:	89 34 91             	mov    %esi,(%rcx,%rdx,4)
    3cc4:	48 89 d6             	mov    %rdx,%rsi
    3cc7:	48 83 ce 01          	or     $0x1,%rsi
    3ccb:	c4 e1 9a 2a ce       	vcvtsi2ss %rsi,%xmm12,%xmm1
    3cd0:	c5 ba 59 c9          	vmulss %xmm1,%xmm8,%xmm1
    3cd4:	c4 c2 41 a9 ca       	vfmadd213ss %xmm10,%xmm7,%xmm1
    3cd9:	31 ff                	xor    %edi,%edi
    3cdb:	c5 d8 57 e4          	vxorps %xmm4,%xmm4,%xmm4
    3cdf:	c5 d0 57 ed          	vxorps %xmm5,%xmm5,%xmm5
    3ce3:	c5 e8 57 d2          	vxorps %xmm2,%xmm2,%xmm2
    3ce7:	c5 e0 57 db          	vxorps %xmm3,%xmm3,%xmm3
    3ceb:	0f 1f 44 00 00       	nopl   0x0(%rax,%rax,1)
    3cf0:	c5 d2 5c e4          	vsubss %xmm4,%xmm5,%xmm4
    3cf4:	c5 e2 5c d2          	vsubss %xmm2,%xmm3,%xmm2
    3cf8:	c5 f2 58 ea          	vaddss %xmm2,%xmm1,%xmm5
    3cfc:	c5 fa 58 f4          	vaddss %xmm4,%xmm0,%xmm6
    3d00:	c5 d2 59 dd          	vmulss %xmm5,%xmm5,%xmm3
    3d04:	c5 ca 59 d6          	vmulss %xmm6,%xmm6,%xmm2
    3d08:	ff c7                	inc    %edi
    3d0a:	c5 e2 58 e2          	vaddss %xmm2,%xmm3,%xmm4
    3d0e:	c4 c1 78 2e e3       	vucomiss %xmm11,%xmm4
    3d13:	0f 87 47 ff ff ff    	ja     3c60 <main+0x510>
    3d19:	c5 d2 58 ee          	vaddss %xmm6,%xmm5,%xmm5
    3d1d:	c5 d2 59 ed          	vmulss %xmm5,%xmm5,%xmm5
    3d21:	39 ef                	cmp    %ebp,%edi
    3d23:	72 cb                	jb     3cf0 <main+0x5a0>
    3d25:	e9 36 ff ff ff       	jmp    3c60 <main+0x510>
    3d2a:	66 0f 1f 44 00 00    	nopw   0x0(%rax,%rax,1)
    3d30:	31 d2                	xor    %edx,%edx
    3d32:	41 f6 c4 01          	test   $0x1,%r12b
    3d36:	0f 84 e7 fe ff ff    	je     3c23 <main+0x4d3>
    3d3c:	c4 e1 9a 2a ca       	vcvtsi2ss %rdx,%xmm12,%xmm1
    3d41:	c5 ba 59 c9          	vmulss %xmm1,%xmm8,%xmm1
    3d45:	c4 c2 41 a9 ca       	vfmadd213ss %xmm10,%xmm7,%xmm1
    3d4a:	31 f6                	xor    %esi,%esi
    3d4c:	c5 d8 57 e4          	vxorps %xmm4,%xmm4,%xmm4
    3d50:	c5 d0 57 ed          	vxorps %xmm5,%xmm5,%xmm5
    3d54:	c5 e8 57 d2          	vxorps %xmm2,%xmm2,%xmm2
    3d58:	c5 e0 57 db          	vxorps %xmm3,%xmm3,%xmm3
    3d5c:	0f 1f 40 00          	nopl   0x0(%rax)
    3d60:	c5 d2 5c e4          	vsubss %xmm4,%xmm5,%xmm4
    3d64:	c5 e2 5c d2          	vsubss %xmm2,%xmm3,%xmm2
    3d68:	c5 f2 58 ea          	vaddss %xmm2,%xmm1,%xmm5
    3d6c:	c5 fa 58 f4          	vaddss %xmm4,%xmm0,%xmm6
    3d70:	c5 d2 59 dd          	vmulss %xmm5,%xmm5,%xmm3
    3d74:	c5 ca 59 d6          	vmulss %xmm6,%xmm6,%xmm2
    3d78:	ff c6                	inc    %esi
    3d7a:	c5 e2 58 e2          	vaddss %xmm2,%xmm3,%xmm4
    3d7e:	c4 c1 78 2e e3       	vucomiss %xmm11,%xmm4
    3d83:	0f 87 97 fe ff ff    	ja     3c20 <main+0x4d0>
    3d89:	c5 d2 58 ee          	vaddss %xmm6,%xmm5,%xmm5
    3d8d:	c5 d2 59 ed          	vmulss %xmm5,%xmm5,%xmm5
    3d91:	39 ee                	cmp    %ebp,%esi
    3d93:	72 cb                	jb     3d60 <main+0x610>
    3d95:	e9 86 fe ff ff       	jmp    3c20 <main+0x4d0>
    3d9a:	4c 8b 74 24 28       	mov    0x28(%rsp),%r14
    3d9f:	49 83 c6 50          	add    $0x50,%r14
    3da3:	ba 06 00 00 00       	mov    $0x6,%edx
    3da8:	4c 8b 6c 24 18       	mov    0x18(%rsp),%r13
    3dad:	4c 89 ef             	mov    %r13,%rdi
    3db0:	4c 89 f6             	mov    %r14,%rsi
    3db3:	e8 08 43 00 00       	call   80c0 <_ZSt16__introsort_loopIN9__gnu_cxx17__normal_iteratorIPdSt6vectorIdSaIdEEEElNS0_5__ops15_Iter_less_iterEEvT_S9_T0_T1_>
    3db8:	4c 89 ef             	mov    %r13,%rdi
    3dbb:	4c 89 f6             	mov    %r14,%rsi
    3dbe:	e8 9d 45 00 00       	call   8360 <_ZSt22__final_insertion_sortIN9__gnu_cxx17__normal_iteratorIPdSt6vectorIdSaIdEEEENS0_5__ops15_Iter_less_iterEEvT_S9_T0_>
    3dc3:	48 8d bc 24 b0 00 00 	lea    0xb0(%rsp),%rdi
    3dca:	00 
    3dcb:	e8 00 e3 ff ff       	call   20d0 <_ZNSt7__cxx1118basic_stringstreamIcSt11char_traitsIcESaIcEEC1Ev@plt>
    3dd0:	48 8d bc 24 c0 00 00 	lea    0xc0(%rsp),%rdi
    3dd7:	00 
    3dd8:	48 8b 84 24 c0 00 00 	mov    0xc0(%rsp),%rax
    3ddf:	00 
    3de0:	48 8b 48 e8          	mov    -0x18(%rax),%rcx
    3de4:	ba fb fe ff ff       	mov    $0xfffffefb,%edx
    3de9:	23 94 0c d8 00 00 00 	and    0xd8(%rsp,%rcx,1),%edx
    3df0:	83 ca 04             	or     $0x4,%edx
    3df3:	89 94 0c d8 00 00 00 	mov    %edx,0xd8(%rsp,%rcx,1)
    3dfa:	48 8b 48 e8          	mov    -0x18(%rax),%rcx
    3dfe:	48 c7 84 0c d0 00 00 	movq   $0x6,0xd0(%rsp,%rcx,1)
    3e05:	00 06 00 00 00 
    3e0a:	48 8b 40 e8          	mov    -0x18(%rax),%rax
    3e0e:	48 c7 84 04 c8 00 00 	movq   $0x2,0xc8(%rsp,%rax,1)
    3e15:	00 02 00 00 00 
    3e1a:	c4 c1 7b 10 45 00    	vmovsd 0x0(%r13),%xmm0
    3e20:	c5 fb 59 05 30 54 00 	vmulsd 0x5430(%rip),%xmm0,%xmm0        # 9258 <_IO_stdin_used+0x258>
    3e27:	00 
    3e28:	e8 93 e3 ff ff       	call   21c0 <_ZNSo9_M_insertIdEERSoT_@plt>
    3e2d:	48 8b 3d 84 71 00 00 	mov    0x7184(%rip),%rdi        # afb8 <_ZSt4cout@GLIBCXX_3.4>
    3e34:	48 8d 35 43 55 00 00 	lea    0x5543(%rip),%rsi        # 937e <_IO_stdin_used+0x37e>
    3e3b:	ba 0b 00 00 00       	mov    $0xb,%edx
    3e40:	e8 eb e2 ff ff       	call   2130 <_ZSt16__ostream_insertIcSt11char_traitsIcEERSt13basic_ostreamIT_T0_ES6_PKS3_l@plt>
    3e45:	48 8d 44 24 40       	lea    0x40(%rsp),%rax
    3e4a:	48 89 44 24 30       	mov    %rax,0x30(%rsp)
    3e4f:	48 c7 44 24 38 00 00 	movq   $0x0,0x38(%rsp)
    3e56:	00 00 
    3e58:	c6 44 24 40 00       	movb   $0x0,0x40(%rsp)
    3e5d:	4c 8b 84 24 e0 00 00 	mov    0xe0(%rsp),%r8
    3e64:	00 
    3e65:	48 8b 84 24 f0 00 00 	mov    0xf0(%rsp),%rax
    3e6c:	00 
    3e6d:	48 85 c0             	test   %rax,%rax
    3e70:	0f 94 c1             	sete   %cl
    3e73:	4c 39 c0             	cmp    %r8,%rax
    3e76:	4c 0f 47 c0          	cmova  %rax,%r8
    3e7a:	4d 85 c0             	test   %r8,%r8
    3e7d:	0f 94 c0             	sete   %al
    3e80:	08 c8                	or     %cl,%al
    3e82:	74 14                	je     3e98 <main+0x748>
    3e84:	48 8d b4 24 10 01 00 	lea    0x110(%rsp),%rsi
    3e8b:	00 
    3e8c:	48 8d 7c 24 30       	lea    0x30(%rsp),%rdi
    3e91:	e8 da 4b 00 00       	call   8a70 <_ZNSt7__cxx1112basic_stringIcSt11char_traitsIcESaIcEE9_M_assignERKS4_>
    3e96:	eb 19                	jmp    3eb1 <main+0x761>
    3e98:	48 8b 8c 24 e8 00 00 	mov    0xe8(%rsp),%rcx
    3e9f:	00 
    3ea0:	49 29 c8             	sub    %rcx,%r8
    3ea3:	48 8d 7c 24 30       	lea    0x30(%rsp),%rdi
    3ea8:	31 f6                	xor    %esi,%esi
    3eaa:	31 d2                	xor    %edx,%edx
    3eac:	e8 ef 48 00 00       	call   87a0 <_ZNSt7__cxx1112basic_stringIcSt11char_traitsIcESaIcEE10_M_replaceEmmPKcm>
    3eb1:	48 8b 74 24 30       	mov    0x30(%rsp),%rsi
    3eb6:	48 8b 54 24 38       	mov    0x38(%rsp),%rdx
    3ebb:	48 8b 3d f6 70 00 00 	mov    0x70f6(%rip),%rdi        # afb8 <_ZSt4cout@GLIBCXX_3.4>
    3ec2:	e8 69 e2 ff ff       	call   2130 <_ZSt16__ostream_insertIcSt11char_traitsIcEERSt13basic_ostreamIT_T0_ES6_PKS3_l@plt>
    3ec7:	49 89 c6             	mov    %rax,%r14
    3eca:	48 8d 35 b9 54 00 00 	lea    0x54b9(%rip),%rsi        # 938a <_IO_stdin_used+0x38a>
    3ed1:	ba 03 00 00 00       	mov    $0x3,%edx
    3ed6:	48 89 c7             	mov    %rax,%rdi
    3ed9:	e8 52 e2 ff ff       	call   2130 <_ZSt16__ostream_insertIcSt11char_traitsIcEERSt13basic_ostreamIT_T0_ES6_PKS3_l@plt>
    3ede:	49 8b 06             	mov    (%r14),%rax
    3ee1:	48 8b 40 e8          	mov    -0x18(%rax),%rax
    3ee5:	4d 89 f4             	mov    %r14,%r12
    3ee8:	4d 8b b4 06 f0 00 00 	mov    0xf0(%r14,%rax,1),%r14
    3eef:	00 
    3ef0:	4d 85 f6             	test   %r14,%r14
    3ef3:	0f 84 e7 3f 00 00    	je     7ee0 <main+0x4790>
    3ef9:	41 80 7e 38 00       	cmpb   $0x0,0x38(%r14)
    3efe:	74 07                	je     3f07 <main+0x7b7>
    3f00:	41 0f b6 46 43       	movzbl 0x43(%r14),%eax
    3f05:	eb 16                	jmp    3f1d <main+0x7cd>
    3f07:	4c 89 f7             	mov    %r14,%rdi
    3f0a:	e8 31 e2 ff ff       	call   2140 <_ZNKSt5ctypeIcE13_M_widen_initEv@plt>
    3f0f:	49 8b 06             	mov    (%r14),%rax
    3f12:	4c 89 f7             	mov    %r14,%rdi
    3f15:	be 0a 00 00 00       	mov    $0xa,%esi
    3f1a:	ff 50 30             	call   *0x30(%rax)
    3f1d:	0f be f0             	movsbl %al,%esi
    3f20:	4c 89 e7             	mov    %r12,%rdi
    3f23:	e8 08 e1 ff ff       	call   2030 <_ZNSo3putEc@plt>
    3f28:	48 89 c7             	mov    %rax,%rdi
    3f2b:	e8 90 e1 ff ff       	call   20c0 <_ZNSo5flushEv@plt>
    3f30:	48 8b 7c 24 30       	mov    0x30(%rsp),%rdi
    3f35:	48 8d 44 24 40       	lea    0x40(%rsp),%rax
    3f3a:	48 39 c7             	cmp    %rax,%rdi
    3f3d:	74 0d                	je     3f4c <main+0x7fc>
    3f3f:	48 8b 74 24 40       	mov    0x40(%rsp),%rsi
    3f44:	48 ff c6             	inc    %rsi
    3f47:	e8 c4 e1 ff ff       	call   2110 <_ZdlPvm@plt>
    3f4c:	4c 8b 35 45 70 00 00 	mov    0x7045(%rip),%r14        # af98 <_ZTTNSt7__cxx1118basic_stringstreamIcSt11char_traitsIcESaIcEEE@GLIBCXX_3.4.21>
    3f53:	49 8b 06             	mov    (%r14),%rax
    3f56:	49 8b 4e 40          	mov    0x40(%r14),%rcx
    3f5a:	48 89 84 24 b0 00 00 	mov    %rax,0xb0(%rsp)
    3f61:	00 
    3f62:	48 8b 40 e8          	mov    -0x18(%rax),%rax
    3f66:	48 89 8c 04 b0 00 00 	mov    %rcx,0xb0(%rsp,%rax,1)
    3f6d:	00 
    3f6e:	49 8b 46 48          	mov    0x48(%r14),%rax
    3f72:	48 89 84 24 c0 00 00 	mov    %rax,0xc0(%rsp)
    3f79:	00 
    3f7a:	48 8b 05 5f 70 00 00 	mov    0x705f(%rip),%rax        # afe0 <_ZTVNSt7__cxx1115basic_stringbufIcSt11char_traitsIcESaIcEEE@GLIBCXX_3.4.21>
    3f81:	48 83 c0 10          	add    $0x10,%rax
    3f85:	48 89 84 24 c8 00 00 	mov    %rax,0xc8(%rsp)
    3f8c:	00 
    3f8d:	48 8b bc 24 10 01 00 	mov    0x110(%rsp),%rdi
    3f94:	00 
    3f95:	48 8d 84 24 20 01 00 	lea    0x120(%rsp),%rax
    3f9c:	00 
    3f9d:	48 39 c7             	cmp    %rax,%rdi
    3fa0:	4c 8b 64 24 50       	mov    0x50(%rsp),%r12
    3fa5:	74 10                	je     3fb7 <main+0x867>
    3fa7:	48 8b b4 24 20 01 00 	mov    0x120(%rsp),%rsi
    3fae:	00 
    3faf:	48 ff c6             	inc    %rsi
    3fb2:	e8 59 e1 ff ff       	call   2110 <_ZdlPvm@plt>
    3fb7:	48 8b 05 ea 6f 00 00 	mov    0x6fea(%rip),%rax        # afa8 <_ZTVSt15basic_streambufIcSt11char_traitsIcEE@GLIBCXX_3.4>
    3fbe:	48 83 c0 10          	add    $0x10,%rax
    3fc2:	48 89 84 24 c8 00 00 	mov    %rax,0xc8(%rsp)
    3fc9:	00 
    3fca:	48 8d bc 24 00 01 00 	lea    0x100(%rsp),%rdi
    3fd1:	00 
    3fd2:	e8 c9 e1 ff ff       	call   21a0 <_ZNSt6localeD1Ev@plt>
    3fd7:	49 8b 46 10          	mov    0x10(%r14),%rax
    3fdb:	49 8b 4e 18          	mov    0x18(%r14),%rcx
    3fdf:	48 89 84 24 b0 00 00 	mov    %rax,0xb0(%rsp)
    3fe6:	00 
    3fe7:	48 8b 40 e8          	mov    -0x18(%rax),%rax
    3feb:	48 89 8c 04 b0 00 00 	mov    %rcx,0xb0(%rsp,%rax,1)
    3ff2:	00 
    3ff3:	48 c7 84 24 b8 00 00 	movq   $0x0,0xb8(%rsp)
    3ffa:	00 00 00 00 00 
    3fff:	48 8d bc 24 30 01 00 	lea    0x130(%rsp),%rdi
    4006:	00 
    4007:	e8 44 e0 ff ff       	call   2050 <_ZNSt8ios_baseD2Ev@plt>
    400c:	be 50 00 00 00       	mov    $0x50,%esi
    4011:	4c 89 ef             	mov    %r13,%rdi
    4014:	e8 f7 e0 ff ff       	call   2110 <_ZdlPvm@plt>
    4019:	41 89 e8             	mov    %ebp,%r8d
    401c:	4d 85 e4             	test   %r12,%r12
    401f:	0f 84 18 03 00 00    	je     433d <main+0xbed>
    4025:	44 89 e0             	mov    %r12d,%eax
    4028:	83 e0 e0             	and    $0xffffffe0,%eax
    402b:	44 89 e1             	mov    %r12d,%ecx
    402e:	83 e1 fc             	and    $0xfffffffc,%ecx
    4031:	48 89 ca             	mov    %rcx,%rdx
    4034:	48 f7 da             	neg    %rdx
    4037:	31 f6                	xor    %esi,%esi
    4039:	31 ff                	xor    %edi,%edi
    403b:	41 89 e8             	mov    %ebp,%r8d
    403e:	eb 0e                	jmp    404e <main+0x8fe>
    4040:	ff c7                	inc    %edi
    4042:	4c 01 e6             	add    %r12,%rsi
    4045:	44 39 e7             	cmp    %r12d,%edi
    4048:	0f 84 ef 02 00 00    	je     433d <main+0xbed>
    404e:	41 83 fc 03          	cmp    $0x3,%r12d
    4052:	76 27                	jbe    407b <main+0x92b>
    4054:	4c 8b 5c 24 20       	mov    0x20(%rsp),%r11
    4059:	4d 89 d9             	mov    %r11,%r9
    405c:	49 c1 e9 20          	shr    $0x20,%r9
    4060:	41 0f 95 c1          	setne  %r9b
    4064:	45 89 e2             	mov    %r12d,%r10d
    4067:	44 0f af d7          	imul   %edi,%r10d
    406b:	45 01 da             	add    %r11d,%r10d
    406e:	41 0f 92 c2          	setb   %r10b
    4072:	45 08 ca             	or     %r9b,%r10b
    4075:	0f 84 c5 01 00 00    	je     4240 <main+0xaf0>
    407b:	45 31 d2             	xor    %r10d,%r10d
    407e:	45 89 e3             	mov    %r12d,%r11d
    4081:	45 29 d3             	sub    %r10d,%r11d
    4084:	4d 89 d1             	mov    %r10,%r9
    4087:	41 83 e3 07          	and    $0x7,%r11d
    408b:	74 1a                	je     40a7 <main+0x957>
    408d:	0f 1f 00             	nopl   (%rax)
    4090:	46 8d 34 0e          	lea    (%rsi,%r9,1),%r14d
    4094:	46 8b 34 b3          	mov    (%rbx,%r14,4),%r14d
    4098:	45 39 c6             	cmp    %r8d,%r14d
    409b:	45 0f 42 c6          	cmovb  %r14d,%r8d
    409f:	49 ff c1             	inc    %r9
    40a2:	49 ff cb             	dec    %r11
    40a5:	75 e9                	jne    4090 <main+0x940>
    40a7:	4d 29 e2             	sub    %r12,%r10
    40aa:	49 83 fa f8          	cmp    $0xfffffffffffffff8,%r10
    40ae:	76 1d                	jbe    40cd <main+0x97d>
    40b0:	eb 8e                	jmp    4040 <main+0x8f0>
    40b2:	66 66 66 66 66 2e 0f 	data16 data16 data16 data16 cs nopw 0x0(%rax,%rax,1)
    40b9:	1f 84 00 00 00 00 00 
    40c0:	49 83 c1 08          	add    $0x8,%r9
    40c4:	4d 39 cc             	cmp    %r9,%r12
    40c7:	0f 84 73 ff ff ff    	je     4040 <main+0x8f0>
    40cd:	46 8d 14 0e          	lea    (%rsi,%r9,1),%r10d
    40d1:	46 8b 14 93          	mov    (%rbx,%r10,4),%r10d
    40d5:	45 39 c2             	cmp    %r8d,%r10d
    40d8:	0f 82 b2 00 00 00    	jb     4190 <main+0xa40>
    40de:	45 89 c2             	mov    %r8d,%r10d
    40e1:	46 8d 04 0e          	lea    (%rsi,%r9,1),%r8d
    40e5:	41 ff c0             	inc    %r8d
    40e8:	46 8b 04 83          	mov    (%rbx,%r8,4),%r8d
    40ec:	45 39 d0             	cmp    %r10d,%r8d
    40ef:	0f 83 af 00 00 00    	jae    41a4 <main+0xa54>
    40f5:	46 8d 14 0e          	lea    (%rsi,%r9,1),%r10d
    40f9:	41 83 c2 02          	add    $0x2,%r10d
    40fd:	46 8b 14 93          	mov    (%rbx,%r10,4),%r10d
    4101:	45 39 c2             	cmp    %r8d,%r10d
    4104:	0f 82 b2 00 00 00    	jb     41bc <main+0xa6c>
    410a:	45 89 c2             	mov    %r8d,%r10d
    410d:	46 8d 04 0e          	lea    (%rsi,%r9,1),%r8d
    4111:	41 83 c0 03          	add    $0x3,%r8d
    4115:	46 8b 04 83          	mov    (%rbx,%r8,4),%r8d
    4119:	45 39 d0             	cmp    %r10d,%r8d
    411c:	0f 83 af 00 00 00    	jae    41d1 <main+0xa81>
    4122:	46 8d 14 0e          	lea    (%rsi,%r9,1),%r10d
    4126:	41 83 c2 04          	add    $0x4,%r10d
    412a:	46 8b 14 93          	mov    (%rbx,%r10,4),%r10d
    412e:	45 39 c2             	cmp    %r8d,%r10d
    4131:	0f 82 b2 00 00 00    	jb     41e9 <main+0xa99>
    4137:	45 89 c2             	mov    %r8d,%r10d
    413a:	46 8d 04 0e          	lea    (%rsi,%r9,1),%r8d
    413e:	41 83 c0 05          	add    $0x5,%r8d
    4142:	46 8b 04 83          	mov    (%rbx,%r8,4),%r8d
    4146:	45 39 d0             	cmp    %r10d,%r8d
    4149:	0f 83 af 00 00 00    	jae    41fe <main+0xaae>
    414f:	46 8d 14 0e          	lea    (%rsi,%r9,1),%r10d
    4153:	41 83 c2 06          	add    $0x6,%r10d
    4157:	46 8b 14 93          	mov    (%rbx,%r10,4),%r10d
    415b:	45 39 c2             	cmp    %r8d,%r10d
    415e:	0f 82 b2 00 00 00    	jb     4216 <main+0xac6>
    4164:	45 89 c2             	mov    %r8d,%r10d
    4167:	46 8d 04 0e          	lea    (%rsi,%r9,1),%r8d
    416b:	41 83 c0 07          	add    $0x7,%r8d
    416f:	46 8b 04 83          	mov    (%rbx,%r8,4),%r8d
    4173:	45 39 d0             	cmp    %r10d,%r8d
    4176:	0f 82 44 ff ff ff    	jb     40c0 <main+0x970>
    417c:	e9 aa 00 00 00       	jmp    422b <main+0xadb>
    4181:	66 66 66 66 66 66 2e 	data16 data16 data16 data16 data16 cs nopw 0x0(%rax,%rax,1)
    4188:	0f 1f 84 00 00 00 00 
    418f:	00 
    4190:	46 8d 04 0e          	lea    (%rsi,%r9,1),%r8d
    4194:	41 ff c0             	inc    %r8d
    4197:	46 8b 04 83          	mov    (%rbx,%r8,4),%r8d
    419b:	45 39 d0             	cmp    %r10d,%r8d
    419e:	0f 82 51 ff ff ff    	jb     40f5 <main+0x9a5>
    41a4:	45 89 d0             	mov    %r10d,%r8d
    41a7:	46 8d 14 0e          	lea    (%rsi,%r9,1),%r10d
    41ab:	41 83 c2 02          	add    $0x2,%r10d
    41af:	46 8b 14 93          	mov    (%rbx,%r10,4),%r10d
    41b3:	45 39 c2             	cmp    %r8d,%r10d
    41b6:	0f 83 4e ff ff ff    	jae    410a <main+0x9ba>
    41bc:	46 8d 04 0e          	lea    (%rsi,%r9,1),%r8d
    41c0:	41 83 c0 03          	add    $0x3,%r8d
    41c4:	46 8b 04 83          	mov    (%rbx,%r8,4),%r8d
    41c8:	45 39 d0             	cmp    %r10d,%r8d
    41cb:	0f 82 51 ff ff ff    	jb     4122 <main+0x9d2>
    41d1:	45 89 d0             	mov    %r10d,%r8d
    41d4:	46 8d 14 0e          	lea    (%rsi,%r9,1),%r10d
    41d8:	41 83 c2 04          	add    $0x4,%r10d
    41dc:	46 8b 14 93          	mov    (%rbx,%r10,4),%r10d
    41e0:	45 39 c2             	cmp    %r8d,%r10d
    41e3:	0f 83 4e ff ff ff    	jae    4137 <main+0x9e7>
    41e9:	46 8d 04 0e          	lea    (%rsi,%r9,1),%r8d
    41ed:	41 83 c0 05          	add    $0x5,%r8d
    41f1:	46 8b 04 83          	mov    (%rbx,%r8,4),%r8d
    41f5:	45 39 d0             	cmp    %r10d,%r8d
    41f8:	0f 82 51 ff ff ff    	jb     414f <main+0x9ff>
    41fe:	45 89 d0             	mov    %r10d,%r8d
    4201:	46 8d 14 0e          	lea    (%rsi,%r9,1),%r10d
    4205:	41 83 c2 06          	add    $0x6,%r10d
    4209:	46 8b 14 93          	mov    (%rbx,%r10,4),%r10d
    420d:	45 39 c2             	cmp    %r8d,%r10d
    4210:	0f 83 4e ff ff ff    	jae    4164 <main+0xa14>
    4216:	46 8d 04 0e          	lea    (%rsi,%r9,1),%r8d
    421a:	41 83 c0 07          	add    $0x7,%r8d
    421e:	46 8b 04 83          	mov    (%rbx,%r8,4),%r8d
    4222:	45 39 d0             	cmp    %r10d,%r8d
    4225:	0f 82 95 fe ff ff    	jb     40c0 <main+0x970>
    422b:	45 89 d0             	mov    %r10d,%r8d
    422e:	e9 8d fe ff ff       	jmp    40c0 <main+0x970>
    4233:	66 66 66 66 2e 0f 1f 	data16 data16 data16 cs nopw 0x0(%rax,%rax,1)
    423a:	84 00 00 00 00 00 
    4240:	41 83 fc 20          	cmp    $0x20,%r12d
    4244:	73 08                	jae    424e <main+0xafe>
    4246:	45 31 c9             	xor    %r9d,%r9d
    4249:	e9 96 00 00 00       	jmp    42e4 <main+0xb94>
    424e:	62 d2 7d 28 7c c0    	vpbroadcastd %r8d,%ymm0
    4254:	41 89 f0             	mov    %esi,%r8d
    4257:	49 89 c1             	mov    %rax,%r9
    425a:	c5 fd 6f c8          	vmovdqa %ymm0,%ymm1
    425e:	c5 fd 6f d0          	vmovdqa %ymm0,%ymm2
    4262:	c5 fd 6f d8          	vmovdqa %ymm0,%ymm3
    4266:	66 2e 0f 1f 84 00 00 	cs nopw 0x0(%rax,%rax,1)
    426d:	00 00 00 
    4270:	45 89 c2             	mov    %r8d,%r10d
    4273:	c4 a2 7d 3b 04 93    	vpminud (%rbx,%r10,4),%ymm0,%ymm0
    4279:	c4 a2 75 3b 4c 93 20 	vpminud 0x20(%rbx,%r10,4),%ymm1,%ymm1
    4280:	c4 a2 6d 3b 54 93 40 	vpminud 0x40(%rbx,%r10,4),%ymm2,%ymm2
    4287:	c4 a2 65 3b 5c 93 60 	vpminud 0x60(%rbx,%r10,4),%ymm3,%ymm3
    428e:	41 83 c0 20          	add    $0x20,%r8d
    4292:	49 83 c1 e0          	add    $0xffffffffffffffe0,%r9
    4296:	75 d8                	jne    4270 <main+0xb20>
    4298:	c4 e2 7d 3b c1       	vpminud %ymm1,%ymm0,%ymm0
    429d:	c4 e2 6d 3b cb       	vpminud %ymm3,%ymm2,%ymm1
    42a2:	c4 e2 7d 3b c1       	vpminud %ymm1,%ymm0,%ymm0
    42a7:	c4 e3 7d 39 c1 01    	vextracti128 $0x1,%ymm0,%xmm1
    42ad:	c4 e2 79 3b c1       	vpminud %xmm1,%xmm0,%xmm0
    42b2:	c5 f9 70 c8 ee       	vpshufd $0xee,%xmm0,%xmm1
    42b7:	c4 e2 79 3b c1       	vpminud %xmm1,%xmm0,%xmm0
    42bc:	c5 f9 70 c8 55       	vpshufd $0x55,%xmm0,%xmm1
    42c1:	c4 e2 79 3b c1       	vpminud %xmm1,%xmm0,%xmm0
    42c6:	c4 c1 79 7e c0       	vmovd  %xmm0,%r8d
    42cb:	44 39 e0             	cmp    %r12d,%eax
    42ce:	0f 84 6c fd ff ff    	je     4040 <main+0x8f0>
    42d4:	49 89 c2             	mov    %rax,%r10
    42d7:	49 89 c1             	mov    %rax,%r9
    42da:	41 f6 c4 1c          	test   $0x1c,%r12b
    42de:	0f 84 9a fd ff ff    	je     407e <main+0x92e>
    42e4:	62 d2 7d 08 7c c0    	vpbroadcastd %r8d,%xmm0
    42ea:	4e 8d 04 0a          	lea    (%rdx,%r9,1),%r8
    42ee:	41 01 f1             	add    %esi,%r9d
    42f1:	66 66 66 66 66 66 2e 	data16 data16 data16 data16 data16 cs nopw 0x0(%rax,%rax,1)
    42f8:	0f 1f 84 00 00 00 00 
    42ff:	00 
    4300:	45 89 ca             	mov    %r9d,%r10d
    4303:	c4 a2 79 3b 04 93    	vpminud (%rbx,%r10,4),%xmm0,%xmm0
    4309:	41 83 c1 04          	add    $0x4,%r9d
    430d:	49 83 c0 04          	add    $0x4,%r8
    4311:	75 ed                	jne    4300 <main+0xbb0>
    4313:	c5 f9 70 c8 ee       	vpshufd $0xee,%xmm0,%xmm1
    4318:	c4 e2 79 3b c1       	vpminud %xmm1,%xmm0,%xmm0
    431d:	c5 f9 70 c8 55       	vpshufd $0x55,%xmm0,%xmm1
    4322:	c4 e2 79 3b c1       	vpminud %xmm1,%xmm0,%xmm0
    4327:	c4 c1 79 7e c0       	vmovd  %xmm0,%r8d
    432c:	49 89 ca             	mov    %rcx,%r10
    432f:	44 39 e1             	cmp    %r12d,%ecx
    4332:	0f 84 08 fd ff ff    	je     4040 <main+0x8f0>
    4338:	e9 41 fd ff ff       	jmp    407e <main+0x92e>
    433d:	62 d1 5e 08 7b c0    	vcvtusi2ss %r8d,%xmm4,%xmm0
    4343:	c5 fa 11 44 24 18    	vmovss %xmm0,0x18(%rsp)
    4349:	c5 f8 77             	vzeroupper
    434c:	e8 0f de ff ff       	call   2160 <log2f@plt>
    4351:	c5 fa 11 44 24 10    	vmovss %xmm0,0x10(%rsp)
    4357:	62 f1 5e 08 7b c5    	vcvtusi2ss %ebp,%xmm4,%xmm0
    435d:	c5 fa 5e 44 24 18    	vdivss 0x18(%rsp),%xmm0,%xmm0
    4363:	e8 f8 dd ff ff       	call   2160 <log2f@plt>
    4368:	c5 f8 28 c8          	vmovaps %xmm0,%xmm1
    436c:	48 8b 84 24 a0 00 00 	mov    0xa0(%rsp),%rax
    4373:	00 
    4374:	48 85 c0             	test   %rax,%rax
    4377:	74 5f                	je     43d8 <main+0xc88>
    4379:	c5 fa 11 4c 24 18    	vmovss %xmm1,0x18(%rsp)
    437f:	8d 3c 40             	lea    (%rax,%rax,2),%edi
    4382:	49 89 fd             	mov    %rdi,%r13
    4385:	e8 76 dd ff ff       	call   2100 <_Znwm@plt>
    438a:	49 89 c6             	mov    %rax,%r14
    438d:	48 89 84 24 b0 00 00 	mov    %rax,0xb0(%rsp)
    4394:	00 
    4395:	4c 89 ea             	mov    %r13,%rdx
    4398:	49 01 c5             	add    %rax,%r13
    439b:	4c 89 ac 24 c0 00 00 	mov    %r13,0xc0(%rsp)
    43a2:	00 
    43a3:	c6 00 00             	movb   $0x0,(%rax)
    43a6:	48 89 c7             	mov    %rax,%rdi
    43a9:	48 ff c7             	inc    %rdi
    43ac:	48 ff ca             	dec    %rdx
    43af:	74 0a                	je     43bb <main+0xc6b>
    43b1:	31 f6                	xor    %esi,%esi
    43b3:	e8 e8 dc ff ff       	call   20a0 <memset@plt>
    43b8:	4c 89 ef             	mov    %r13,%rdi
    43bb:	c5 fa 10 4c 24 18    	vmovss 0x18(%rsp),%xmm1
    43c1:	48 89 bc 24 b8 00 00 	mov    %rdi,0xb8(%rsp)
    43c8:	00 
    43c9:	4d 85 e4             	test   %r12,%r12
    43cc:	4c 89 6c 24 60       	mov    %r13,0x60(%rsp)
    43d1:	75 3c                	jne    440f <main+0xcbf>
    43d3:	e9 2e 02 00 00       	jmp    4606 <main+0xeb6>
    43d8:	c5 f8 57 c0          	vxorps %xmm0,%xmm0,%xmm0
    43dc:	c5 f8 29 84 24 b0 00 	vmovaps %xmm0,0xb0(%rsp)
    43e3:	00 00 
    43e5:	48 c7 84 24 c0 00 00 	movq   $0x0,0xc0(%rsp)
    43ec:	00 00 00 00 00 
    43f1:	45 31 ed             	xor    %r13d,%r13d
    43f4:	45 31 f6             	xor    %r14d,%r14d
    43f7:	31 ff                	xor    %edi,%edi
    43f9:	48 89 bc 24 b8 00 00 	mov    %rdi,0xb8(%rsp)
    4400:	00 
    4401:	4d 85 e4             	test   %r12,%r12
    4404:	4c 89 6c 24 60       	mov    %r13,0x60(%rsp)
    4409:	0f 84 f7 01 00 00    	je     4606 <main+0xeb6>
    440f:	44 89 e0             	mov    %r12d,%eax
    4412:	83 e0 fe             	and    $0xfffffffe,%eax
    4415:	48 89 44 24 68       	mov    %rax,0x68(%rsp)
    441a:	c5 fa 10 05 e2 4b 00 	vmovss 0x4be2(%rip),%xmm0        # 9004 <_IO_stdin_used+0x4>
    4421:	00 
    4422:	c5 fa 5e c1          	vdivss %xmm1,%xmm0,%xmm0
    4426:	c5 fa 11 44 24 18    	vmovss %xmm0,0x18(%rsp)
    442c:	43 8d 04 64          	lea    (%r12,%r12,2),%eax
    4430:	89 84 24 ac 00 00 00 	mov    %eax,0xac(%rsp)
    4437:	31 c9                	xor    %ecx,%ecx
    4439:	ba 05 00 00 00       	mov    $0x5,%edx
    443e:	be 01 00 00 00       	mov    $0x1,%esi
    4443:	eb 7d                	jmp    44c2 <main+0xd72>
    4445:	66 66 2e 0f 1f 84 00 	data16 cs nopw 0x0(%rax,%rax,1)
    444c:	00 00 00 00 
    4450:	62 f1 5e 08 7b c0    	vcvtusi2ss %eax,%xmm4,%xmm0
    4456:	e8 05 dd ff ff       	call   2160 <log2f@plt>
    445b:	c5 fa 5c 44 24 10    	vsubss 0x10(%rsp),%xmm0,%xmm0
    4461:	c5 fa 59 05 af 4b 00 	vmulss 0x4baf(%rip),%xmm0,%xmm0        # 9018 <_IO_stdin_used+0x18>
    4468:	00 
    4469:	c5 fa 59 44 24 18    	vmulss 0x18(%rsp),%xmm0,%xmm0
    446f:	c5 fa 2c c0          	vcvttss2si %xmm0,%eax
    4473:	04 20                	add    $0x20,%al
    4475:	b1 20                	mov    $0x20,%cl
    4477:	43 8d 14 7f          	lea    (%r15,%r15,2),%edx
    447b:	41 88 0c 16          	mov    %cl,(%r14,%rdx,1)
    447f:	43 8d 14 7f          	lea    (%r15,%r15,2),%edx
    4483:	ff c2                	inc    %edx
    4485:	41 88 04 16          	mov    %al,(%r14,%rdx,1)
    4489:	43 8d 44 7f 02       	lea    0x2(%r15,%r15,2),%eax
    448e:	41 88 0c 06          	mov    %cl,(%r14,%rax,1)
    4492:	4c 8b 7c 24 08       	mov    0x8(%rsp),%r15
    4497:	48 8b 44 24 50       	mov    0x50(%rsp),%rax
    449c:	4c 89 e9             	mov    %r13,%rcx
    449f:	8b 54 24 58          	mov    0x58(%rsp),%edx
    44a3:	8b 74 24 28          	mov    0x28(%rsp),%esi
    44a7:	4c 8b 6c 24 60       	mov    0x60(%rsp),%r13
    44ac:	ff c1                	inc    %ecx
    44ae:	03 94 24 ac 00 00 00 	add    0xac(%rsp),%edx
    44b5:	01 c6                	add    %eax,%esi
    44b7:	39 c1                	cmp    %eax,%ecx
    44b9:	49 89 c4             	mov    %rax,%r12
    44bc:	0f 84 44 01 00 00    	je     4606 <main+0xeb6>
    44c2:	41 bc 00 00 00 00    	mov    $0x0,%r12d
    44c8:	48 83 7c 24 20 00    	cmpq   $0x0,0x20(%rsp)
    44ce:	89 54 24 58          	mov    %edx,0x58(%rsp)
    44d2:	89 74 24 28          	mov    %esi,0x28(%rsp)
    44d6:	0f 84 fb 00 00 00    	je     45d7 <main+0xe87>
    44dc:	48 89 4c 24 78       	mov    %rcx,0x78(%rsp)
    44e1:	41 89 f7             	mov    %esi,%r15d
    44e4:	41 89 d5             	mov    %edx,%r13d
    44e7:	45 31 e4             	xor    %r12d,%r12d
    44ea:	eb 55                	jmp    4541 <main+0xdf1>
    44ec:	0f 1f 40 00          	nopl   0x0(%rax)
    44f0:	62 f1 5e 08 7b c0    	vcvtusi2ss %eax,%xmm4,%xmm0
    44f6:	e8 65 dc ff ff       	call   2160 <log2f@plt>
    44fb:	c5 fa 5c 44 24 10    	vsubss 0x10(%rsp),%xmm0,%xmm0
    4501:	c5 fa 59 05 0f 4b 00 	vmulss 0x4b0f(%rip),%xmm0,%xmm0        # 9018 <_IO_stdin_used+0x18>
    4508:	00 
    4509:	c5 fa 59 44 24 18    	vmulss 0x18(%rsp),%xmm0,%xmm0
    450f:	c5 fa 2c c0          	vcvttss2si %xmm0,%eax
    4513:	04 20                	add    $0x20,%al
    4515:	b1 20                	mov    $0x20,%cl
    4517:	41 8d 55 fe          	lea    -0x2(%r13),%edx
    451b:	41 88 0c 16          	mov    %cl,(%r14,%rdx,1)
    451f:	41 8d 55 ff          	lea    -0x1(%r13),%edx
    4523:	41 88 04 16          	mov    %al,(%r14,%rdx,1)
    4527:	44 89 e8             	mov    %r13d,%eax
    452a:	41 88 0c 06          	mov    %cl,(%r14,%rax,1)
    452e:	49 83 c4 02          	add    $0x2,%r12
    4532:	41 83 c5 06          	add    $0x6,%r13d
    4536:	41 83 c7 02          	add    $0x2,%r15d
    453a:	4c 39 64 24 68       	cmp    %r12,0x68(%rsp)
    453f:	74 7f                	je     45c0 <main+0xe70>
    4541:	41 8d 47 ff          	lea    -0x1(%r15),%eax
    4545:	8b 04 83             	mov    (%rbx,%rax,4),%eax
    4548:	39 e8                	cmp    %ebp,%eax
    454a:	73 34                	jae    4580 <main+0xe30>
    454c:	62 f1 5e 08 7b c0    	vcvtusi2ss %eax,%xmm4,%xmm0
    4552:	e8 09 dc ff ff       	call   2160 <log2f@plt>
    4557:	c5 fa 5c 44 24 10    	vsubss 0x10(%rsp),%xmm0,%xmm0
    455d:	c5 fa 59 05 b3 4a 00 	vmulss 0x4ab3(%rip),%xmm0,%xmm0        # 9018 <_IO_stdin_used+0x18>
    4564:	00 
    4565:	c5 fa 59 44 24 18    	vmulss 0x18(%rsp),%xmm0,%xmm0
    456b:	c5 fa 2c c0          	vcvttss2si %xmm0,%eax
    456f:	04 20                	add    $0x20,%al
    4571:	b1 20                	mov    $0x20,%cl
    4573:	eb 0f                	jmp    4584 <main+0xe34>
    4575:	66 66 2e 0f 1f 84 00 	data16 cs nopw 0x0(%rax,%rax,1)
    457c:	00 00 00 00 
    4580:	31 c0                	xor    %eax,%eax
    4582:	31 c9                	xor    %ecx,%ecx
    4584:	41 8d 55 fb          	lea    -0x5(%r13),%edx
    4588:	41 88 0c 16          	mov    %cl,(%r14,%rdx,1)
    458c:	41 8d 55 fc          	lea    -0x4(%r13),%edx
    4590:	41 88 04 16          	mov    %al,(%r14,%rdx,1)
    4594:	41 8d 45 fd          	lea    -0x3(%r13),%eax
    4598:	41 88 0c 06          	mov    %cl,(%r14,%rax,1)
    459c:	44 89 f8             	mov    %r15d,%eax
    459f:	8b 04 83             	mov    (%rbx,%rax,4),%eax
    45a2:	39 e8                	cmp    %ebp,%eax
    45a4:	0f 82 46 ff ff ff    	jb     44f0 <main+0xda0>
    45aa:	31 c0                	xor    %eax,%eax
    45ac:	31 c9                	xor    %ecx,%ecx
    45ae:	e9 64 ff ff ff       	jmp    4517 <main+0xdc7>
    45b3:	66 66 66 66 2e 0f 1f 	data16 data16 data16 cs nopw 0x0(%rax,%rax,1)
    45ba:	84 00 00 00 00 00 
    45c0:	4c 8b 7c 24 08       	mov    0x8(%rsp),%r15
    45c5:	4c 8b 6c 24 60       	mov    0x60(%rsp),%r13
    45ca:	48 8b 4c 24 78       	mov    0x78(%rsp),%rcx
    45cf:	8b 54 24 58          	mov    0x58(%rsp),%edx
    45d3:	8b 74 24 28          	mov    0x28(%rsp),%esi
    45d7:	48 8b 44 24 50       	mov    0x50(%rsp),%rax
    45dc:	a8 01                	test   $0x1,%al
    45de:	0f 84 c8 fe ff ff    	je     44ac <main+0xd5c>
    45e4:	49 89 cd             	mov    %rcx,%r13
    45e7:	41 89 cf             	mov    %ecx,%r15d
    45ea:	44 0f af f8          	imul   %eax,%r15d
    45ee:	45 01 e7             	add    %r12d,%r15d
    45f1:	42 8b 04 bb          	mov    (%rbx,%r15,4),%eax
    45f5:	39 e8                	cmp    %ebp,%eax
    45f7:	0f 82 53 fe ff ff    	jb     4450 <main+0xd00>
    45fd:	31 c0                	xor    %eax,%eax
    45ff:	31 c9                	xor    %ecx,%ecx
    4601:	e9 71 fe ff ff       	jmp    4477 <main+0xd27>
    4606:	48 8d 3d 81 4d 00 00 	lea    0x4d81(%rip),%rdi        # 938e <_IO_stdin_used+0x38e>
    460d:	48 8d 94 24 b0 00 00 	lea    0xb0(%rsp),%rdx
    4614:	00 
    4615:	44 89 e6             	mov    %r12d,%esi
    4618:	e8 13 e7 ff ff       	call   2d30 <_Z8writeBMPPKcjRKSt6vectorIhSaIhEE>
    461d:	4d 85 f6             	test   %r14,%r14
    4620:	74 0e                	je     4630 <main+0xee0>
    4622:	4d 29 f5             	sub    %r14,%r13
    4625:	4c 89 f7             	mov    %r14,%rdi
    4628:	4c 89 ee             	mov    %r13,%rsi
    462b:	e8 e0 da ff ff       	call   2110 <_ZdlPvm@plt>
    4630:	8b 84 24 8c 00 00 00 	mov    0x8c(%rsp),%eax
    4637:	83 e0 fb             	and    $0xfffffffb,%eax
    463a:	83 f8 02             	cmp    $0x2,%eax
    463d:	0f 85 72 0e 00 00    	jne    54b5 <main+0x1d65>
    4643:	4c 89 e2             	mov    %r12,%rdx
    4646:	49 0f af d4          	imul   %r12,%rdx
    464a:	48 c1 e2 02          	shl    $0x2,%rdx
    464e:	48 89 df             	mov    %rbx,%rdi
    4651:	31 f6                	xor    %esi,%esi
    4653:	e8 48 da ff ff       	call   20a0 <memset@plt>
    4658:	48 8b 05 59 69 00 00 	mov    0x6959(%rip),%rax        # afb8 <_ZSt4cout@GLIBCXX_3.4>
    465f:	48 8b 08             	mov    (%rax),%rcx
    4662:	48 8b 49 e8          	mov    -0x18(%rcx),%rcx
    4666:	4c 8b b4 08 f0 00 00 	mov    0xf0(%rax,%rcx,1),%r14
    466d:	00 
    466e:	4d 85 f6             	test   %r14,%r14
    4671:	0f 84 64 38 00 00    	je     7edb <main+0x478b>
    4677:	41 80 7e 38 00       	cmpb   $0x0,0x38(%r14)
    467c:	74 07                	je     4685 <main+0xf35>
    467e:	41 0f b6 46 43       	movzbl 0x43(%r14),%eax
    4683:	eb 16                	jmp    469b <main+0xf4b>
    4685:	4c 89 f7             	mov    %r14,%rdi
    4688:	e8 b3 da ff ff       	call   2140 <_ZNKSt5ctypeIcE13_M_widen_initEv@plt>
    468d:	49 8b 06             	mov    (%r14),%rax
    4690:	4c 89 f7             	mov    %r14,%rdi
    4693:	be 0a 00 00 00       	mov    $0xa,%esi
    4698:	ff 50 30             	call   *0x30(%rax)
    469b:	0f be f0             	movsbl %al,%esi
    469e:	48 8b 3d 13 69 00 00 	mov    0x6913(%rip),%rdi        # afb8 <_ZSt4cout@GLIBCXX_3.4>
    46a5:	e8 86 d9 ff ff       	call   2030 <_ZNSo3putEc@plt>
    46aa:	48 89 c7             	mov    %rax,%rdi
    46ad:	e8 0e da ff ff       	call   20c0 <_ZNSo5flushEv@plt>
    46b2:	49 89 c6             	mov    %rax,%r14
    46b5:	48 8d 35 9d 4c 00 00 	lea    0x4c9d(%rip),%rsi        # 9359 <_IO_stdin_used+0x359>
    46bc:	ba 08 00 00 00       	mov    $0x8,%edx
    46c1:	48 89 c7             	mov    %rax,%rdi
    46c4:	e8 67 da ff ff       	call   2130 <_ZSt16__ostream_insertIcSt11char_traitsIcEERSt13basic_ostreamIT_T0_ES6_PKS3_l@plt>
    46c9:	48 8d 35 dc 4c 00 00 	lea    0x4cdc(%rip),%rsi        # 93ac <_IO_stdin_used+0x3ac>
    46d0:	ba 19 00 00 00       	mov    $0x19,%edx
    46d5:	4c 89 f7             	mov    %r14,%rdi
    46d8:	e8 53 da ff ff       	call   2130 <_ZSt16__ostream_insertIcSt11char_traitsIcEERSt13basic_ostreamIT_T0_ES6_PKS3_l@plt>
    46dd:	48 8d 35 94 4c 00 00 	lea    0x4c94(%rip),%rsi        # 9378 <_IO_stdin_used+0x378>
    46e4:	ba 05 00 00 00       	mov    $0x5,%edx
    46e9:	4c 89 f7             	mov    %r14,%rdi
    46ec:	e8 3f da ff ff       	call   2130 <_ZSt16__ostream_insertIcSt11char_traitsIcEERSt13basic_ostreamIT_T0_ES6_PKS3_l@plt>
    46f1:	bf 50 00 00 00       	mov    $0x50,%edi
    46f6:	e8 05 da ff ff       	call   2100 <_Znwm@plt>
    46fb:	49 89 c5             	mov    %rax,%r13
    46fe:	c5 f8 57 c0          	vxorps %xmm0,%xmm0,%xmm0
    4702:	c5 fc 11 40 30       	vmovups %ymm0,0x30(%rax)
    4707:	c5 fc 11 40 20       	vmovups %ymm0,0x20(%rax)
    470c:	c5 fc 11 00          	vmovups %ymm0,(%rax)
    4710:	c5 f8 77             	vzeroupper
    4713:	e8 28 d9 ff ff       	call   2040 <_ZNSt6chrono3_V212system_clock3nowEv@plt>
    4718:	49 89 c6             	mov    %rax,%r14
    471b:	44 89 e7             	mov    %r12d,%edi
    471e:	89 ee                	mov    %ebp,%esi
    4720:	48 89 da             	mov    %rbx,%rdx
    4723:	e8 18 de ff ff       	call   2540 <_Z25mandelbrot_cpu_vector_ilpjjPj>
    4728:	e8 13 d9 ff ff       	call   2040 <_ZNSt6chrono3_V212system_clock3nowEv@plt>
    472d:	4c 29 f0             	sub    %r14,%rax
    4730:	62 f1 9f 08 7b c0    	vcvtusi2sd %rax,%xmm12,%xmm0
    4736:	c4 c1 7b 11 45 00    	vmovsd %xmm0,0x0(%r13)
    473c:	e8 ff d8 ff ff       	call   2040 <_ZNSt6chrono3_V212system_clock3nowEv@plt>
    4741:	49 89 c6             	mov    %rax,%r14
    4744:	44 89 e7             	mov    %r12d,%edi
    4747:	89 ee                	mov    %ebp,%esi
    4749:	48 89 da             	mov    %rbx,%rdx
    474c:	e8 ef dd ff ff       	call   2540 <_Z25mandelbrot_cpu_vector_ilpjjPj>
    4751:	e8 ea d8 ff ff       	call   2040 <_ZNSt6chrono3_V212system_clock3nowEv@plt>
    4756:	4c 29 f0             	sub    %r14,%rax
    4759:	62 f1 9f 08 7b c0    	vcvtusi2sd %rax,%xmm12,%xmm0
    475f:	c4 c1 7b 11 45 08    	vmovsd %xmm0,0x8(%r13)
    4765:	e8 d6 d8 ff ff       	call   2040 <_ZNSt6chrono3_V212system_clock3nowEv@plt>
    476a:	49 89 c6             	mov    %rax,%r14
    476d:	44 89 e7             	mov    %r12d,%edi
    4770:	89 ee                	mov    %ebp,%esi
    4772:	48 89 da             	mov    %rbx,%rdx
    4775:	e8 c6 dd ff ff       	call   2540 <_Z25mandelbrot_cpu_vector_ilpjjPj>
    477a:	e8 c1 d8 ff ff       	call   2040 <_ZNSt6chrono3_V212system_clock3nowEv@plt>
    477f:	4c 29 f0             	sub    %r14,%rax
    4782:	62 f1 9f 08 7b c0    	vcvtusi2sd %rax,%xmm12,%xmm0
    4788:	c4 c1 7b 11 45 10    	vmovsd %xmm0,0x10(%r13)
    478e:	e8 ad d8 ff ff       	call   2040 <_ZNSt6chrono3_V212system_clock3nowEv@plt>
    4793:	49 89 c6             	mov    %rax,%r14
    4796:	44 89 e7             	mov    %r12d,%edi
    4799:	89 ee                	mov    %ebp,%esi
    479b:	48 89 da             	mov    %rbx,%rdx
    479e:	e8 9d dd ff ff       	call   2540 <_Z25mandelbrot_cpu_vector_ilpjjPj>
    47a3:	e8 98 d8 ff ff       	call   2040 <_ZNSt6chrono3_V212system_clock3nowEv@plt>
    47a8:	4c 29 f0             	sub    %r14,%rax
    47ab:	62 f1 9f 08 7b c0    	vcvtusi2sd %rax,%xmm12,%xmm0
    47b1:	c4 c1 7b 11 45 18    	vmovsd %xmm0,0x18(%r13)
    47b7:	e8 84 d8 ff ff       	call   2040 <_ZNSt6chrono3_V212system_clock3nowEv@plt>
    47bc:	49 89 c6             	mov    %rax,%r14
    47bf:	44 89 e7             	mov    %r12d,%edi
    47c2:	89 ee                	mov    %ebp,%esi
    47c4:	48 89 da             	mov    %rbx,%rdx
    47c7:	e8 74 dd ff ff       	call   2540 <_Z25mandelbrot_cpu_vector_ilpjjPj>
    47cc:	e8 6f d8 ff ff       	call   2040 <_ZNSt6chrono3_V212system_clock3nowEv@plt>
    47d1:	4c 29 f0             	sub    %r14,%rax
    47d4:	62 f1 ef 08 7b c0    	vcvtusi2sd %rax,%xmm2,%xmm0
    47da:	c4 c1 7b 11 45 20    	vmovsd %xmm0,0x20(%r13)
    47e0:	e8 5b d8 ff ff       	call   2040 <_ZNSt6chrono3_V212system_clock3nowEv@plt>
    47e5:	49 89 c6             	mov    %rax,%r14
    47e8:	44 89 e7             	mov    %r12d,%edi
    47eb:	89 ee                	mov    %ebp,%esi
    47ed:	48 89 da             	mov    %rbx,%rdx
    47f0:	e8 4b dd ff ff       	call   2540 <_Z25mandelbrot_cpu_vector_ilpjjPj>
    47f5:	e8 46 d8 ff ff       	call   2040 <_ZNSt6chrono3_V212system_clock3nowEv@plt>
    47fa:	4c 29 f0             	sub    %r14,%rax
    47fd:	62 f1 f7 08 7b c0    	vcvtusi2sd %rax,%xmm1,%xmm0
    4803:	c4 c1 7b 11 45 28    	vmovsd %xmm0,0x28(%r13)
    4809:	e8 32 d8 ff ff       	call   2040 <_ZNSt6chrono3_V212system_clock3nowEv@plt>
    480e:	49 89 c6             	mov    %rax,%r14
    4811:	44 89 e7             	mov    %r12d,%edi
    4814:	89 ee                	mov    %ebp,%esi
    4816:	48 89 da             	mov    %rbx,%rdx
    4819:	e8 22 dd ff ff       	call   2540 <_Z25mandelbrot_cpu_vector_ilpjjPj>
    481e:	e8 1d d8 ff ff       	call   2040 <_ZNSt6chrono3_V212system_clock3nowEv@plt>
    4823:	4c 29 f0             	sub    %r14,%rax
    4826:	62 f1 f7 08 7b c0    	vcvtusi2sd %rax,%xmm1,%xmm0
    482c:	c4 c1 7b 11 45 30    	vmovsd %xmm0,0x30(%r13)
    4832:	e8 09 d8 ff ff       	call   2040 <_ZNSt6chrono3_V212system_clock3nowEv@plt>
    4837:	49 89 c6             	mov    %rax,%r14
    483a:	44 89 e7             	mov    %r12d,%edi
    483d:	89 ee                	mov    %ebp,%esi
    483f:	48 89 da             	mov    %rbx,%rdx
    4842:	e8 f9 dc ff ff       	call   2540 <_Z25mandelbrot_cpu_vector_ilpjjPj>
    4847:	e8 f4 d7 ff ff       	call   2040 <_ZNSt6chrono3_V212system_clock3nowEv@plt>
    484c:	4c 29 f0             	sub    %r14,%rax
    484f:	62 f1 f7 08 7b c0    	vcvtusi2sd %rax,%xmm1,%xmm0
    4855:	c4 c1 7b 11 45 38    	vmovsd %xmm0,0x38(%r13)
    485b:	e8 e0 d7 ff ff       	call   2040 <_ZNSt6chrono3_V212system_clock3nowEv@plt>
    4860:	49 89 c6             	mov    %rax,%r14
    4863:	44 89 e7             	mov    %r12d,%edi
    4866:	89 ee                	mov    %ebp,%esi
    4868:	48 89 da             	mov    %rbx,%rdx
    486b:	e8 d0 dc ff ff       	call   2540 <_Z25mandelbrot_cpu_vector_ilpjjPj>
    4870:	e8 cb d7 ff ff       	call   2040 <_ZNSt6chrono3_V212system_clock3nowEv@plt>
    4875:	4c 29 f0             	sub    %r14,%rax
    4878:	62 f1 f7 08 7b c0    	vcvtusi2sd %rax,%xmm1,%xmm0
    487e:	c4 c1 7b 11 45 40    	vmovsd %xmm0,0x40(%r13)
    4884:	e8 b7 d7 ff ff       	call   2040 <_ZNSt6chrono3_V212system_clock3nowEv@plt>
    4889:	49 89 c6             	mov    %rax,%r14
    488c:	44 89 e7             	mov    %r12d,%edi
    488f:	89 ee                	mov    %ebp,%esi
    4891:	48 89 da             	mov    %rbx,%rdx
    4894:	e8 a7 dc ff ff       	call   2540 <_Z25mandelbrot_cpu_vector_ilpjjPj>
    4899:	e8 a2 d7 ff ff       	call   2040 <_ZNSt6chrono3_V212system_clock3nowEv@plt>
    489e:	4c 29 f0             	sub    %r14,%rax
    48a1:	62 f1 f7 08 7b c0    	vcvtusi2sd %rax,%xmm1,%xmm0
    48a7:	c4 c1 7b 11 45 48    	vmovsd %xmm0,0x48(%r13)
    48ad:	4d 89 ee             	mov    %r13,%r14
    48b0:	49 83 c6 50          	add    $0x50,%r14
    48b4:	ba 06 00 00 00       	mov    $0x6,%edx
    48b9:	4c 89 ef             	mov    %r13,%rdi
    48bc:	4c 89 f6             	mov    %r14,%rsi
    48bf:	4c 89 6c 24 20       	mov    %r13,0x20(%rsp)
    48c4:	e8 f7 37 00 00       	call   80c0 <_ZSt16__introsort_loopIN9__gnu_cxx17__normal_iteratorIPdSt6vectorIdSaIdEEEElNS0_5__ops15_Iter_less_iterEEvT_S9_T0_T1_>
    48c9:	4c 89 ef             	mov    %r13,%rdi
    48cc:	4c 89 f6             	mov    %r14,%rsi
    48cf:	e8 8c 3a 00 00       	call   8360 <_ZSt22__final_insertion_sortIN9__gnu_cxx17__normal_iteratorIPdSt6vectorIdSaIdEEEENS0_5__ops15_Iter_less_iterEEvT_S9_T0_>
    48d4:	48 8d bc 24 b0 00 00 	lea    0xb0(%rsp),%rdi
    48db:	00 
    48dc:	e8 ef d7 ff ff       	call   20d0 <_ZNSt7__cxx1118basic_stringstreamIcSt11char_traitsIcESaIcEEC1Ev@plt>
    48e1:	48 8d bc 24 c0 00 00 	lea    0xc0(%rsp),%rdi
    48e8:	00 
    48e9:	48 8b 84 24 c0 00 00 	mov    0xc0(%rsp),%rax
    48f0:	00 
    48f1:	48 8b 48 e8          	mov    -0x18(%rax),%rcx
    48f5:	ba fb fe ff ff       	mov    $0xfffffefb,%edx
    48fa:	23 94 0c d8 00 00 00 	and    0xd8(%rsp,%rcx,1),%edx
    4901:	83 ca 04             	or     $0x4,%edx
    4904:	89 94 0c d8 00 00 00 	mov    %edx,0xd8(%rsp,%rcx,1)
    490b:	48 8b 48 e8          	mov    -0x18(%rax),%rcx
    490f:	48 c7 84 0c d0 00 00 	movq   $0x6,0xd0(%rsp,%rcx,1)
    4916:	00 06 00 00 00 
    491b:	48 8b 40 e8          	mov    -0x18(%rax),%rax
    491f:	48 c7 84 04 c8 00 00 	movq   $0x2,0xc8(%rsp,%rax,1)
    4926:	00 02 00 00 00 
    492b:	c4 c1 7b 10 45 00    	vmovsd 0x0(%r13),%xmm0
    4931:	c5 fb 59 05 1f 49 00 	vmulsd 0x491f(%rip),%xmm0,%xmm0        # 9258 <_IO_stdin_used+0x258>
    4938:	00 
    4939:	e8 82 d8 ff ff       	call   21c0 <_ZNSo9_M_insertIdEERSoT_@plt>
    493e:	48 8b 3d 73 66 00 00 	mov    0x6673(%rip),%rdi        # afb8 <_ZSt4cout@GLIBCXX_3.4>
    4945:	48 8d 35 32 4a 00 00 	lea    0x4a32(%rip),%rsi        # 937e <_IO_stdin_used+0x37e>
    494c:	ba 0b 00 00 00       	mov    $0xb,%edx
    4951:	e8 da d7 ff ff       	call   2130 <_ZSt16__ostream_insertIcSt11char_traitsIcEERSt13basic_ostreamIT_T0_ES6_PKS3_l@plt>
    4956:	4c 8d 64 24 40       	lea    0x40(%rsp),%r12
    495b:	4c 89 64 24 30       	mov    %r12,0x30(%rsp)
    4960:	48 c7 44 24 38 00 00 	movq   $0x0,0x38(%rsp)
    4967:	00 00 
    4969:	c6 44 24 40 00       	movb   $0x0,0x40(%rsp)
    496e:	4c 8b 84 24 e0 00 00 	mov    0xe0(%rsp),%r8
    4975:	00 
    4976:	48 8b 84 24 f0 00 00 	mov    0xf0(%rsp),%rax
    497d:	00 
    497e:	48 85 c0             	test   %rax,%rax
    4981:	0f 94 c1             	sete   %cl
    4984:	4c 39 c0             	cmp    %r8,%rax
    4987:	4c 0f 47 c0          	cmova  %rax,%r8
    498b:	4d 85 c0             	test   %r8,%r8
    498e:	0f 94 c0             	sete   %al
    4991:	08 c8                	or     %cl,%al
    4993:	74 14                	je     49a9 <main+0x1259>
    4995:	48 8d b4 24 10 01 00 	lea    0x110(%rsp),%rsi
    499c:	00 
    499d:	48 8d 7c 24 30       	lea    0x30(%rsp),%rdi
    49a2:	e8 c9 40 00 00       	call   8a70 <_ZNSt7__cxx1112basic_stringIcSt11char_traitsIcESaIcEE9_M_assignERKS4_>
    49a7:	eb 19                	jmp    49c2 <main+0x1272>
    49a9:	48 8b 8c 24 e8 00 00 	mov    0xe8(%rsp),%rcx
    49b0:	00 
    49b1:	49 29 c8             	sub    %rcx,%r8
    49b4:	48 8d 7c 24 30       	lea    0x30(%rsp),%rdi
    49b9:	31 f6                	xor    %esi,%esi
    49bb:	31 d2                	xor    %edx,%edx
    49bd:	e8 de 3d 00 00       	call   87a0 <_ZNSt7__cxx1112basic_stringIcSt11char_traitsIcESaIcEE10_M_replaceEmmPKcm>
    49c2:	48 8b 74 24 30       	mov    0x30(%rsp),%rsi
    49c7:	48 8b 54 24 38       	mov    0x38(%rsp),%rdx
    49cc:	48 8b 3d e5 65 00 00 	mov    0x65e5(%rip),%rdi        # afb8 <_ZSt4cout@GLIBCXX_3.4>
    49d3:	e8 58 d7 ff ff       	call   2130 <_ZSt16__ostream_insertIcSt11char_traitsIcEERSt13basic_ostreamIT_T0_ES6_PKS3_l@plt>
    49d8:	49 89 c5             	mov    %rax,%r13
    49db:	48 8d 35 a8 49 00 00 	lea    0x49a8(%rip),%rsi        # 938a <_IO_stdin_used+0x38a>
    49e2:	ba 03 00 00 00       	mov    $0x3,%edx
    49e7:	48 89 c7             	mov    %rax,%rdi
    49ea:	e8 41 d7 ff ff       	call   2130 <_ZSt16__ostream_insertIcSt11char_traitsIcEERSt13basic_ostreamIT_T0_ES6_PKS3_l@plt>
    49ef:	49 8b 45 00          	mov    0x0(%r13),%rax
    49f3:	48 8b 40 e8          	mov    -0x18(%rax),%rax
    49f7:	4d 8b b4 05 f0 00 00 	mov    0xf0(%r13,%rax,1),%r14
    49fe:	00 
    49ff:	4d 85 f6             	test   %r14,%r14
    4a02:	0f 84 e2 34 00 00    	je     7eea <main+0x479a>
    4a08:	41 80 7e 38 00       	cmpb   $0x0,0x38(%r14)
    4a0d:	74 07                	je     4a16 <main+0x12c6>
    4a0f:	41 0f b6 46 43       	movzbl 0x43(%r14),%eax
    4a14:	eb 16                	jmp    4a2c <main+0x12dc>
    4a16:	4c 89 f7             	mov    %r14,%rdi
    4a19:	e8 22 d7 ff ff       	call   2140 <_ZNKSt5ctypeIcE13_M_widen_initEv@plt>
    4a1e:	49 8b 06             	mov    (%r14),%rax
    4a21:	4c 89 f7             	mov    %r14,%rdi
    4a24:	be 0a 00 00 00       	mov    $0xa,%esi
    4a29:	ff 50 30             	call   *0x30(%rax)
    4a2c:	0f be f0             	movsbl %al,%esi
    4a2f:	4c 89 ef             	mov    %r13,%rdi
    4a32:	e8 f9 d5 ff ff       	call   2030 <_ZNSo3putEc@plt>
    4a37:	48 89 c7             	mov    %rax,%rdi
    4a3a:	e8 81 d6 ff ff       	call   20c0 <_ZNSo5flushEv@plt>
    4a3f:	48 8b 7c 24 30       	mov    0x30(%rsp),%rdi
    4a44:	4c 39 e7             	cmp    %r12,%rdi
    4a47:	74 0d                	je     4a56 <main+0x1306>
    4a49:	48 8b 74 24 40       	mov    0x40(%rsp),%rsi
    4a4e:	48 ff c6             	inc    %rsi
    4a51:	e8 ba d6 ff ff       	call   2110 <_ZdlPvm@plt>
    4a56:	4c 8b 35 3b 65 00 00 	mov    0x653b(%rip),%r14        # af98 <_ZTTNSt7__cxx1118basic_stringstreamIcSt11char_traitsIcESaIcEEE@GLIBCXX_3.4.21>
    4a5d:	49 8b 06             	mov    (%r14),%rax
    4a60:	49 8b 4e 40          	mov    0x40(%r14),%rcx
    4a64:	48 89 84 24 b0 00 00 	mov    %rax,0xb0(%rsp)
    4a6b:	00 
    4a6c:	48 8b 40 e8          	mov    -0x18(%rax),%rax
    4a70:	48 89 8c 04 b0 00 00 	mov    %rcx,0xb0(%rsp,%rax,1)
    4a77:	00 
    4a78:	49 8b 46 48          	mov    0x48(%r14),%rax
    4a7c:	48 89 84 24 c0 00 00 	mov    %rax,0xc0(%rsp)
    4a83:	00 
    4a84:	48 8b 05 55 65 00 00 	mov    0x6555(%rip),%rax        # afe0 <_ZTVNSt7__cxx1115basic_stringbufIcSt11char_traitsIcESaIcEEE@GLIBCXX_3.4.21>
    4a8b:	48 83 c0 10          	add    $0x10,%rax
    4a8f:	48 89 84 24 c8 00 00 	mov    %rax,0xc8(%rsp)
    4a96:	00 
    4a97:	48 8b bc 24 10 01 00 	mov    0x110(%rsp),%rdi
    4a9e:	00 
    4a9f:	48 8d 84 24 20 01 00 	lea    0x120(%rsp),%rax
    4aa6:	00 
    4aa7:	48 39 c7             	cmp    %rax,%rdi
    4aaa:	4c 8b 64 24 50       	mov    0x50(%rsp),%r12
    4aaf:	74 10                	je     4ac1 <main+0x1371>
    4ab1:	48 8b b4 24 20 01 00 	mov    0x120(%rsp),%rsi
    4ab8:	00 
    4ab9:	48 ff c6             	inc    %rsi
    4abc:	e8 4f d6 ff ff       	call   2110 <_ZdlPvm@plt>
    4ac1:	48 8b 05 e0 64 00 00 	mov    0x64e0(%rip),%rax        # afa8 <_ZTVSt15basic_streambufIcSt11char_traitsIcEE@GLIBCXX_3.4>
    4ac8:	48 83 c0 10          	add    $0x10,%rax
    4acc:	48 89 84 24 c8 00 00 	mov    %rax,0xc8(%rsp)
    4ad3:	00 
    4ad4:	48 8d bc 24 00 01 00 	lea    0x100(%rsp),%rdi
    4adb:	00 
    4adc:	e8 bf d6 ff ff       	call   21a0 <_ZNSt6localeD1Ev@plt>
    4ae1:	49 8b 46 10          	mov    0x10(%r14),%rax
    4ae5:	49 8b 4e 18          	mov    0x18(%r14),%rcx
    4ae9:	48 89 84 24 b0 00 00 	mov    %rax,0xb0(%rsp)
    4af0:	00 
    4af1:	48 8b 40 e8          	mov    -0x18(%rax),%rax
    4af5:	48 89 8c 04 b0 00 00 	mov    %rcx,0xb0(%rsp,%rax,1)
    4afc:	00 
    4afd:	48 c7 84 24 b8 00 00 	movq   $0x0,0xb8(%rsp)
    4b04:	00 00 00 00 00 
    4b09:	48 8d bc 24 30 01 00 	lea    0x130(%rsp),%rdi
    4b10:	00 
    4b11:	e8 3a d5 ff ff       	call   2050 <_ZNSt8ios_baseD2Ev@plt>
    4b16:	be 50 00 00 00       	mov    $0x50,%esi
    4b1b:	48 8b 7c 24 20       	mov    0x20(%rsp),%rdi
    4b20:	e8 eb d5 ff ff       	call   2110 <_ZdlPvm@plt>
    4b25:	41 89 e9             	mov    %ebp,%r9d
    4b28:	4d 85 e4             	test   %r12,%r12
    4b2b:	0f 84 2c 03 00 00    	je     4e5d <main+0x170d>
    4b31:	49 8d 44 24 ff       	lea    -0x1(%r12),%rax
    4b36:	44 89 e1             	mov    %r12d,%ecx
    4b39:	83 e1 e0             	and    $0xffffffe0,%ecx
    4b3c:	44 89 e2             	mov    %r12d,%edx
    4b3f:	83 e2 fc             	and    $0xfffffffc,%edx
    4b42:	48 89 d6             	mov    %rdx,%rsi
    4b45:	48 f7 de             	neg    %rsi
    4b48:	31 ff                	xor    %edi,%edi
    4b4a:	45 31 c0             	xor    %r8d,%r8d
    4b4d:	41 89 e9             	mov    %ebp,%r9d
    4b50:	eb 1d                	jmp    4b6f <main+0x141f>
    4b52:	66 66 66 66 66 2e 0f 	data16 data16 data16 data16 cs nopw 0x0(%rax,%rax,1)
    4b59:	1f 84 00 00 00 00 00 
    4b60:	41 ff c0             	inc    %r8d
    4b63:	4c 01 e7             	add    %r12,%rdi
    4b66:	45 39 e0             	cmp    %r12d,%r8d
    4b69:	0f 84 ee 02 00 00    	je     4e5d <main+0x170d>
    4b6f:	41 83 fc 03          	cmp    $0x3,%r12d
    4b73:	76 22                	jbe    4b97 <main+0x1447>
    4b75:	49 89 c2             	mov    %rax,%r10
    4b78:	49 c1 ea 20          	shr    $0x20,%r10
    4b7c:	41 0f 95 c2          	setne  %r10b
    4b80:	45 89 e3             	mov    %r12d,%r11d
    4b83:	45 0f af d8          	imul   %r8d,%r11d
    4b87:	41 01 c3             	add    %eax,%r11d
    4b8a:	41 0f 92 c3          	setb   %r11b
    4b8e:	45 08 d3             	or     %r10b,%r11b
    4b91:	0f 84 c9 01 00 00    	je     4d60 <main+0x1610>
    4b97:	45 31 db             	xor    %r11d,%r11d
    4b9a:	45 89 e6             	mov    %r12d,%r14d
    4b9d:	45 29 de             	sub    %r11d,%r14d
    4ba0:	4d 89 da             	mov    %r11,%r10
    4ba3:	41 83 e6 07          	and    $0x7,%r14d
    4ba7:	74 1e                	je     4bc7 <main+0x1477>
    4ba9:	0f 1f 80 00 00 00 00 	nopl   0x0(%rax)
    4bb0:	46 8d 3c 17          	lea    (%rdi,%r10,1),%r15d
    4bb4:	46 8b 3c bb          	mov    (%rbx,%r15,4),%r15d
    4bb8:	45 39 cf             	cmp    %r9d,%r15d
    4bbb:	45 0f 42 cf          	cmovb  %r15d,%r9d
    4bbf:	49 ff c2             	inc    %r10
    4bc2:	49 ff ce             	dec    %r14
    4bc5:	75 e9                	jne    4bb0 <main+0x1460>
    4bc7:	4d 29 e3             	sub    %r12,%r11
    4bca:	49 83 fb f8          	cmp    $0xfffffffffffffff8,%r11
    4bce:	4c 8b 7c 24 08       	mov    0x8(%rsp),%r15
    4bd3:	76 18                	jbe    4bed <main+0x149d>
    4bd5:	eb 89                	jmp    4b60 <main+0x1410>
    4bd7:	66 0f 1f 84 00 00 00 	nopw   0x0(%rax,%rax,1)
    4bde:	00 00 
    4be0:	49 83 c2 08          	add    $0x8,%r10
    4be4:	4d 39 d4             	cmp    %r10,%r12
    4be7:	0f 84 73 ff ff ff    	je     4b60 <main+0x1410>
    4bed:	46 8d 1c 17          	lea    (%rdi,%r10,1),%r11d
    4bf1:	46 8b 1c 9b          	mov    (%rbx,%r11,4),%r11d
    4bf5:	45 39 cb             	cmp    %r9d,%r11d
    4bf8:	0f 82 b2 00 00 00    	jb     4cb0 <main+0x1560>
    4bfe:	45 89 cb             	mov    %r9d,%r11d
    4c01:	46 8d 0c 17          	lea    (%rdi,%r10,1),%r9d
    4c05:	41 ff c1             	inc    %r9d
    4c08:	46 8b 0c 8b          	mov    (%rbx,%r9,4),%r9d
    4c0c:	45 39 d9             	cmp    %r11d,%r9d
    4c0f:	0f 83 af 00 00 00    	jae    4cc4 <main+0x1574>
    4c15:	46 8d 1c 17          	lea    (%rdi,%r10,1),%r11d
    4c19:	41 83 c3 02          	add    $0x2,%r11d
    4c1d:	46 8b 1c 9b          	mov    (%rbx,%r11,4),%r11d
    4c21:	45 39 cb             	cmp    %r9d,%r11d
    4c24:	0f 82 b2 00 00 00    	jb     4cdc <main+0x158c>
    4c2a:	45 89 cb             	mov    %r9d,%r11d
    4c2d:	46 8d 0c 17          	lea    (%rdi,%r10,1),%r9d
    4c31:	41 83 c1 03          	add    $0x3,%r9d
    4c35:	46 8b 0c 8b          	mov    (%rbx,%r9,4),%r9d
    4c39:	45 39 d9             	cmp    %r11d,%r9d
    4c3c:	0f 83 af 00 00 00    	jae    4cf1 <main+0x15a1>
    4c42:	46 8d 1c 17          	lea    (%rdi,%r10,1),%r11d
    4c46:	41 83 c3 04          	add    $0x4,%r11d
    4c4a:	46 8b 1c 9b          	mov    (%rbx,%r11,4),%r11d
    4c4e:	45 39 cb             	cmp    %r9d,%r11d
    4c51:	0f 82 b2 00 00 00    	jb     4d09 <main+0x15b9>
    4c57:	45 89 cb             	mov    %r9d,%r11d
    4c5a:	46 8d 0c 17          	lea    (%rdi,%r10,1),%r9d
    4c5e:	41 83 c1 05          	add    $0x5,%r9d
    4c62:	46 8b 0c 8b          	mov    (%rbx,%r9,4),%r9d
    4c66:	45 39 d9             	cmp    %r11d,%r9d
    4c69:	0f 83 af 00 00 00    	jae    4d1e <main+0x15ce>
    4c6f:	46 8d 1c 17          	lea    (%rdi,%r10,1),%r11d
    4c73:	41 83 c3 06          	add    $0x6,%r11d
    4c77:	46 8b 1c 9b          	mov    (%rbx,%r11,4),%r11d
    4c7b:	45 39 cb             	cmp    %r9d,%r11d
    4c7e:	0f 82 b2 00 00 00    	jb     4d36 <main+0x15e6>
    4c84:	45 89 cb             	mov    %r9d,%r11d
    4c87:	46 8d 0c 17          	lea    (%rdi,%r10,1),%r9d
    4c8b:	41 83 c1 07          	add    $0x7,%r9d
    4c8f:	46 8b 0c 8b          	mov    (%rbx,%r9,4),%r9d
    4c93:	45 39 d9             	cmp    %r11d,%r9d
    4c96:	0f 82 44 ff ff ff    	jb     4be0 <main+0x1490>
    4c9c:	e9 aa 00 00 00       	jmp    4d4b <main+0x15fb>
    4ca1:	66 66 66 66 66 66 2e 	data16 data16 data16 data16 data16 cs nopw 0x0(%rax,%rax,1)
    4ca8:	0f 1f 84 00 00 00 00 
    4caf:	00 
    4cb0:	46 8d 0c 17          	lea    (%rdi,%r10,1),%r9d
    4cb4:	41 ff c1             	inc    %r9d
    4cb7:	46 8b 0c 8b          	mov    (%rbx,%r9,4),%r9d
    4cbb:	45 39 d9             	cmp    %r11d,%r9d
    4cbe:	0f 82 51 ff ff ff    	jb     4c15 <main+0x14c5>
    4cc4:	45 89 d9             	mov    %r11d,%r9d
    4cc7:	46 8d 1c 17          	lea    (%rdi,%r10,1),%r11d
    4ccb:	41 83 c3 02          	add    $0x2,%r11d
    4ccf:	46 8b 1c 9b          	mov    (%rbx,%r11,4),%r11d
    4cd3:	45 39 cb             	cmp    %r9d,%r11d
    4cd6:	0f 83 4e ff ff ff    	jae    4c2a <main+0x14da>
    4cdc:	46 8d 0c 17          	lea    (%rdi,%r10,1),%r9d
    4ce0:	41 83 c1 03          	add    $0x3,%r9d
    4ce4:	46 8b 0c 8b          	mov    (%rbx,%r9,4),%r9d
    4ce8:	45 39 d9             	cmp    %r11d,%r9d
    4ceb:	0f 82 51 ff ff ff    	jb     4c42 <main+0x14f2>
    4cf1:	45 89 d9             	mov    %r11d,%r9d
    4cf4:	46 8d 1c 17          	lea    (%rdi,%r10,1),%r11d
    4cf8:	41 83 c3 04          	add    $0x4,%r11d
    4cfc:	46 8b 1c 9b          	mov    (%rbx,%r11,4),%r11d
    4d00:	45 39 cb             	cmp    %r9d,%r11d
    4d03:	0f 83 4e ff ff ff    	jae    4c57 <main+0x1507>
    4d09:	46 8d 0c 17          	lea    (%rdi,%r10,1),%r9d
    4d0d:	41 83 c1 05          	add    $0x5,%r9d
    4d11:	46 8b 0c 8b          	mov    (%rbx,%r9,4),%r9d
    4d15:	45 39 d9             	cmp    %r11d,%r9d
    4d18:	0f 82 51 ff ff ff    	jb     4c6f <main+0x151f>
    4d1e:	45 89 d9             	mov    %r11d,%r9d
    4d21:	46 8d 1c 17          	lea    (%rdi,%r10,1),%r11d
    4d25:	41 83 c3 06          	add    $0x6,%r11d
    4d29:	46 8b 1c 9b          	mov    (%rbx,%r11,4),%r11d
    4d2d:	45 39 cb             	cmp    %r9d,%r11d
    4d30:	0f 83 4e ff ff ff    	jae    4c84 <main+0x1534>
    4d36:	46 8d 0c 17          	lea    (%rdi,%r10,1),%r9d
    4d3a:	41 83 c1 07          	add    $0x7,%r9d
    4d3e:	46 8b 0c 8b          	mov    (%rbx,%r9,4),%r9d
    4d42:	45 39 d9             	cmp    %r11d,%r9d
    4d45:	0f 82 95 fe ff ff    	jb     4be0 <main+0x1490>
    4d4b:	45 89 d9             	mov    %r11d,%r9d
    4d4e:	e9 8d fe ff ff       	jmp    4be0 <main+0x1490>
    4d53:	66 66 66 66 2e 0f 1f 	data16 data16 data16 cs nopw 0x0(%rax,%rax,1)
    4d5a:	84 00 00 00 00 00 
    4d60:	41 83 fc 20          	cmp    $0x20,%r12d
    4d64:	73 08                	jae    4d6e <main+0x161e>
    4d66:	45 31 d2             	xor    %r10d,%r10d
    4d69:	e9 96 00 00 00       	jmp    4e04 <main+0x16b4>
    4d6e:	62 d2 7d 28 7c c1    	vpbroadcastd %r9d,%ymm0
    4d74:	41 89 f9             	mov    %edi,%r9d
    4d77:	49 89 ca             	mov    %rcx,%r10
    4d7a:	c5 fd 6f c8          	vmovdqa %ymm0,%ymm1
    4d7e:	c5 fd 6f d0          	vmovdqa %ymm0,%ymm2
    4d82:	c5 fd 6f d8          	vmovdqa %ymm0,%ymm3
    4d86:	66 2e 0f 1f 84 00 00 	cs nopw 0x0(%rax,%rax,1)
    4d8d:	00 00 00 
    4d90:	45 89 cb             	mov    %r9d,%r11d
    4d93:	c4 a2 7d 3b 04 9b    	vpminud (%rbx,%r11,4),%ymm0,%ymm0
    4d99:	c4 a2 75 3b 4c 9b 20 	vpminud 0x20(%rbx,%r11,4),%ymm1,%ymm1
    4da0:	c4 a2 6d 3b 54 9b 40 	vpminud 0x40(%rbx,%r11,4),%ymm2,%ymm2
    4da7:	c4 a2 65 3b 5c 9b 60 	vpminud 0x60(%rbx,%r11,4),%ymm3,%ymm3
    4dae:	41 83 c1 20          	add    $0x20,%r9d
    4db2:	49 83 c2 e0          	add    $0xffffffffffffffe0,%r10
    4db6:	75 d8                	jne    4d90 <main+0x1640>
    4db8:	c4 e2 7d 3b c1       	vpminud %ymm1,%ymm0,%ymm0
    4dbd:	c4 e2 6d 3b cb       	vpminud %ymm3,%ymm2,%ymm1
    4dc2:	c4 e2 7d 3b c1       	vpminud %ymm1,%ymm0,%ymm0
    4dc7:	c4 e3 7d 39 c1 01    	vextracti128 $0x1,%ymm0,%xmm1
    4dcd:	c4 e2 79 3b c1       	vpminud %xmm1,%xmm0,%xmm0
    4dd2:	c5 f9 70 c8 ee       	vpshufd $0xee,%xmm0,%xmm1
    4dd7:	c4 e2 79 3b c1       	vpminud %xmm1,%xmm0,%xmm0
    4ddc:	c5 f9 70 c8 55       	vpshufd $0x55,%xmm0,%xmm1
    4de1:	c4 e2 79 3b c1       	vpminud %xmm1,%xmm0,%xmm0
    4de6:	c4 c1 79 7e c1       	vmovd  %xmm0,%r9d
    4deb:	44 39 e1             	cmp    %r12d,%ecx
    4dee:	0f 84 6c fd ff ff    	je     4b60 <main+0x1410>
    4df4:	49 89 cb             	mov    %rcx,%r11
    4df7:	49 89 ca             	mov    %rcx,%r10
    4dfa:	41 f6 c4 1c          	test   $0x1c,%r12b
    4dfe:	0f 84 96 fd ff ff    	je     4b9a <main+0x144a>
    4e04:	62 d2 7d 08 7c c1    	vpbroadcastd %r9d,%xmm0
    4e0a:	4e 8d 0c 16          	lea    (%rsi,%r10,1),%r9
    4e0e:	41 01 fa             	add    %edi,%r10d
    4e11:	66 66 66 66 66 66 2e 	data16 data16 data16 data16 data16 cs nopw 0x0(%rax,%rax,1)
    4e18:	0f 1f 84 00 00 00 00 
    4e1f:	00 
    4e20:	45 89 d3             	mov    %r10d,%r11d
    4e23:	c4 a2 79 3b 04 9b    	vpminud (%rbx,%r11,4),%xmm0,%xmm0
    4e29:	41 83 c2 04          	add    $0x4,%r10d
    4e2d:	49 83 c1 04          	add    $0x4,%r9
    4e31:	75 ed                	jne    4e20 <main+0x16d0>
    4e33:	c5 f9 70 c8 ee       	vpshufd $0xee,%xmm0,%xmm1
    4e38:	c4 e2 79 3b c1       	vpminud %xmm1,%xmm0,%xmm0
    4e3d:	c5 f9 70 c8 55       	vpshufd $0x55,%xmm0,%xmm1
    4e42:	c4 e2 79 3b c1       	vpminud %xmm1,%xmm0,%xmm0
    4e47:	c4 c1 79 7e c1       	vmovd  %xmm0,%r9d
    4e4c:	49 89 d3             	mov    %rdx,%r11
    4e4f:	44 39 e2             	cmp    %r12d,%edx
    4e52:	0f 84 08 fd ff ff    	je     4b60 <main+0x1410>
    4e58:	e9 3d fd ff ff       	jmp    4b9a <main+0x144a>
    4e5d:	62 d1 5e 08 7b c1    	vcvtusi2ss %r9d,%xmm4,%xmm0
    4e63:	c5 fa 11 44 24 10    	vmovss %xmm0,0x10(%rsp)
    4e69:	c5 f8 77             	vzeroupper
    4e6c:	e8 ef d2 ff ff       	call   2160 <log2f@plt>
    4e71:	c5 fa 11 44 24 20    	vmovss %xmm0,0x20(%rsp)
    4e77:	62 f1 5e 08 7b c5    	vcvtusi2ss %ebp,%xmm4,%xmm0
    4e7d:	c5 fa 5e 44 24 10    	vdivss 0x10(%rsp),%xmm0,%xmm0
    4e83:	e8 d8 d2 ff ff       	call   2160 <log2f@plt>
    4e88:	48 8b 84 24 a0 00 00 	mov    0xa0(%rsp),%rax
    4e8f:	00 
    4e90:	48 85 c0             	test   %rax,%rax
    4e93:	74 49                	je     4ede <main+0x178e>
    4e95:	c5 fa 11 44 24 10    	vmovss %xmm0,0x10(%rsp)
    4e9b:	44 8d 2c 40          	lea    (%rax,%rax,2),%r13d
    4e9f:	4c 89 ef             	mov    %r13,%rdi
    4ea2:	e8 59 d2 ff ff       	call   2100 <_Znwm@plt>
    4ea7:	49 89 c6             	mov    %rax,%r14
    4eaa:	48 89 84 24 b0 00 00 	mov    %rax,0xb0(%rsp)
    4eb1:	00 
    4eb2:	4c 01 e8             	add    %r13,%rax
    4eb5:	48 89 84 24 c0 00 00 	mov    %rax,0xc0(%rsp)
    4ebc:	00 
    4ebd:	41 c6 06 00          	movb   $0x0,(%r14)
    4ec1:	4c 89 f7             	mov    %r14,%rdi
    4ec4:	48 ff c7             	inc    %rdi
    4ec7:	49 ff cd             	dec    %r13
    4eca:	74 4a                	je     4f16 <main+0x17c6>
    4ecc:	31 f6                	xor    %esi,%esi
    4ece:	4c 89 ea             	mov    %r13,%rdx
    4ed1:	49 89 c5             	mov    %rax,%r13
    4ed4:	e8 c7 d1 ff ff       	call   20a0 <memset@plt>
    4ed9:	4c 89 ef             	mov    %r13,%rdi
    4edc:	eb 3b                	jmp    4f19 <main+0x17c9>
    4ede:	c5 f0 57 c9          	vxorps %xmm1,%xmm1,%xmm1
    4ee2:	c5 f8 29 8c 24 b0 00 	vmovaps %xmm1,0xb0(%rsp)
    4ee9:	00 00 
    4eeb:	48 c7 84 24 c0 00 00 	movq   $0x0,0xc0(%rsp)
    4ef2:	00 00 00 00 00 
    4ef7:	45 31 ed             	xor    %r13d,%r13d
    4efa:	45 31 f6             	xor    %r14d,%r14d
    4efd:	31 ff                	xor    %edi,%edi
    4eff:	48 89 bc 24 b8 00 00 	mov    %rdi,0xb8(%rsp)
    4f06:	00 
    4f07:	4d 85 e4             	test   %r12,%r12
    4f0a:	4c 89 6c 24 28       	mov    %r13,0x28(%rsp)
    4f0f:	75 24                	jne    4f35 <main+0x17e5>
    4f11:	e9 10 02 00 00       	jmp    5126 <main+0x19d6>
    4f16:	49 89 c5             	mov    %rax,%r13
    4f19:	c5 fa 10 44 24 10    	vmovss 0x10(%rsp),%xmm0
    4f1f:	48 89 bc 24 b8 00 00 	mov    %rdi,0xb8(%rsp)
    4f26:	00 
    4f27:	4d 85 e4             	test   %r12,%r12
    4f2a:	4c 89 6c 24 28       	mov    %r13,0x28(%rsp)
    4f2f:	0f 84 f1 01 00 00    	je     5126 <main+0x19d6>
    4f35:	44 89 e0             	mov    %r12d,%eax
    4f38:	83 e0 fe             	and    $0xfffffffe,%eax
    4f3b:	48 89 44 24 18       	mov    %rax,0x18(%rsp)
    4f40:	c5 fa 10 0d bc 40 00 	vmovss 0x40bc(%rip),%xmm1        # 9004 <_IO_stdin_used+0x4>
    4f47:	00 
    4f48:	c5 f2 5e c0          	vdivss %xmm0,%xmm1,%xmm0
    4f4c:	c5 fa 11 44 24 10    	vmovss %xmm0,0x10(%rsp)
    4f52:	43 8d 04 64          	lea    (%r12,%r12,2),%eax
    4f56:	89 44 24 78          	mov    %eax,0x78(%rsp)
    4f5a:	31 c9                	xor    %ecx,%ecx
    4f5c:	ba 05 00 00 00       	mov    $0x5,%edx
    4f61:	be 01 00 00 00       	mov    $0x1,%esi
    4f66:	eb 77                	jmp    4fdf <main+0x188f>
    4f68:	0f 1f 84 00 00 00 00 	nopl   0x0(%rax,%rax,1)
    4f6f:	00 
    4f70:	62 f1 5e 08 7b c0    	vcvtusi2ss %eax,%xmm4,%xmm0
    4f76:	e8 e5 d1 ff ff       	call   2160 <log2f@plt>
    4f7b:	c5 fa 5c 44 24 20    	vsubss 0x20(%rsp),%xmm0,%xmm0
    4f81:	c5 fa 59 05 8f 40 00 	vmulss 0x408f(%rip),%xmm0,%xmm0        # 9018 <_IO_stdin_used+0x18>
    4f88:	00 
    4f89:	c5 fa 59 44 24 10    	vmulss 0x10(%rsp),%xmm0,%xmm0
    4f8f:	c5 fa 2c c0          	vcvttss2si %xmm0,%eax
    4f93:	04 20                	add    $0x20,%al
    4f95:	b1 20                	mov    $0x20,%cl
    4f97:	43 8d 14 7f          	lea    (%r15,%r15,2),%edx
    4f9b:	41 88 0c 16          	mov    %cl,(%r14,%rdx,1)
    4f9f:	43 8d 14 7f          	lea    (%r15,%r15,2),%edx
    4fa3:	ff c2                	inc    %edx
    4fa5:	41 88 04 16          	mov    %al,(%r14,%rdx,1)
    4fa9:	43 8d 44 7f 02       	lea    0x2(%r15,%r15,2),%eax
    4fae:	41 88 0c 06          	mov    %cl,(%r14,%rax,1)
    4fb2:	4c 8b 7c 24 08       	mov    0x8(%rsp),%r15
    4fb7:	48 8b 44 24 50       	mov    0x50(%rsp),%rax
    4fbc:	4c 89 e9             	mov    %r13,%rcx
    4fbf:	8b 54 24 68          	mov    0x68(%rsp),%edx
    4fc3:	8b 74 24 58          	mov    0x58(%rsp),%esi
    4fc7:	4c 8b 6c 24 28       	mov    0x28(%rsp),%r13
    4fcc:	ff c1                	inc    %ecx
    4fce:	03 54 24 78          	add    0x78(%rsp),%edx
    4fd2:	01 c6                	add    %eax,%esi
    4fd4:	39 c1                	cmp    %eax,%ecx
    4fd6:	49 89 c4             	mov    %rax,%r12
    4fd9:	0f 84 47 01 00 00    	je     5126 <main+0x19d6>
    4fdf:	4c 89 e0             	mov    %r12,%rax
    4fe2:	41 bc 00 00 00 00    	mov    $0x0,%r12d
    4fe8:	48 83 f8 01          	cmp    $0x1,%rax
    4fec:	89 54 24 68          	mov    %edx,0x68(%rsp)
    4ff0:	89 74 24 58          	mov    %esi,0x58(%rsp)
    4ff4:	0f 84 fd 00 00 00    	je     50f7 <main+0x19a7>
    4ffa:	48 89 4c 24 60       	mov    %rcx,0x60(%rsp)
    4fff:	41 89 f7             	mov    %esi,%r15d
    5002:	41 89 d5             	mov    %edx,%r13d
    5005:	45 31 e4             	xor    %r12d,%r12d
    5008:	eb 57                	jmp    5061 <main+0x1911>
    500a:	66 0f 1f 44 00 00    	nopw   0x0(%rax,%rax,1)
    5010:	62 f1 5e 08 7b c0    	vcvtusi2ss %eax,%xmm4,%xmm0
    5016:	e8 45 d1 ff ff       	call   2160 <log2f@plt>
    501b:	c5 fa 5c 44 24 20    	vsubss 0x20(%rsp),%xmm0,%xmm0
    5021:	c5 fa 59 05 ef 3f 00 	vmulss 0x3fef(%rip),%xmm0,%xmm0        # 9018 <_IO_stdin_used+0x18>
    5028:	00 
    5029:	c5 fa 59 44 24 10    	vmulss 0x10(%rsp),%xmm0,%xmm0
    502f:	c5 fa 2c c0          	vcvttss2si %xmm0,%eax
    5033:	04 20                	add    $0x20,%al
    5035:	b1 20                	mov    $0x20,%cl
    5037:	41 8d 55 fe          	lea    -0x2(%r13),%edx
    503b:	41 88 0c 16          	mov    %cl,(%r14,%rdx,1)
    503f:	41 8d 55 ff          	lea    -0x1(%r13),%edx
    5043:	41 88 04 16          	mov    %al,(%r14,%rdx,1)
    5047:	44 89 e8             	mov    %r13d,%eax
    504a:	41 88 0c 06          	mov    %cl,(%r14,%rax,1)
    504e:	49 83 c4 02          	add    $0x2,%r12
    5052:	41 83 c5 06          	add    $0x6,%r13d
    5056:	41 83 c7 02          	add    $0x2,%r15d
    505a:	4c 39 64 24 18       	cmp    %r12,0x18(%rsp)
    505f:	74 7f                	je     50e0 <main+0x1990>
    5061:	41 8d 47 ff          	lea    -0x1(%r15),%eax
    5065:	8b 04 83             	mov    (%rbx,%rax,4),%eax
    5068:	39 e8                	cmp    %ebp,%eax
    506a:	73 34                	jae    50a0 <main+0x1950>
    506c:	62 f1 5e 08 7b c0    	vcvtusi2ss %eax,%xmm4,%xmm0
    5072:	e8 e9 d0 ff ff       	call   2160 <log2f@plt>
    5077:	c5 fa 5c 44 24 20    	vsubss 0x20(%rsp),%xmm0,%xmm0
    507d:	c5 fa 59 05 93 3f 00 	vmulss 0x3f93(%rip),%xmm0,%xmm0        # 9018 <_IO_stdin_used+0x18>
    5084:	00 
    5085:	c5 fa 59 44 24 10    	vmulss 0x10(%rsp),%xmm0,%xmm0
    508b:	c5 fa 2c c0          	vcvttss2si %xmm0,%eax
    508f:	04 20                	add    $0x20,%al
    5091:	b1 20                	mov    $0x20,%cl
    5093:	eb 0f                	jmp    50a4 <main+0x1954>
    5095:	66 66 2e 0f 1f 84 00 	data16 cs nopw 0x0(%rax,%rax,1)
    509c:	00 00 00 00 
    50a0:	31 c0                	xor    %eax,%eax
    50a2:	31 c9                	xor    %ecx,%ecx
    50a4:	41 8d 55 fb          	lea    -0x5(%r13),%edx
    50a8:	41 88 0c 16          	mov    %cl,(%r14,%rdx,1)
    50ac:	41 8d 55 fc          	lea    -0x4(%r13),%edx
    50b0:	41 88 04 16          	mov    %al,(%r14,%rdx,1)
    50b4:	41 8d 45 fd          	lea    -0x3(%r13),%eax
    50b8:	41 88 0c 06          	mov    %cl,(%r14,%rax,1)
    50bc:	44 89 f8             	mov    %r15d,%eax
    50bf:	8b 04 83             	mov    (%rbx,%rax,4),%eax
    50c2:	39 e8                	cmp    %ebp,%eax
    50c4:	0f 82 46 ff ff ff    	jb     5010 <main+0x18c0>
    50ca:	31 c0                	xor    %eax,%eax
    50cc:	31 c9                	xor    %ecx,%ecx
    50ce:	e9 64 ff ff ff       	jmp    5037 <main+0x18e7>
    50d3:	66 66 66 66 2e 0f 1f 	data16 data16 data16 cs nopw 0x0(%rax,%rax,1)
    50da:	84 00 00 00 00 00 
    50e0:	4c 8b 7c 24 08       	mov    0x8(%rsp),%r15
    50e5:	4c 8b 6c 24 28       	mov    0x28(%rsp),%r13
    50ea:	48 8b 4c 24 60       	mov    0x60(%rsp),%rcx
    50ef:	8b 54 24 68          	mov    0x68(%rsp),%edx
    50f3:	8b 74 24 58          	mov    0x58(%rsp),%esi
    50f7:	48 8b 44 24 50       	mov    0x50(%rsp),%rax
    50fc:	a8 01                	test   $0x1,%al
    50fe:	0f 84 c8 fe ff ff    	je     4fcc <main+0x187c>
    5104:	49 89 cd             	mov    %rcx,%r13
    5107:	41 89 cf             	mov    %ecx,%r15d
    510a:	44 0f af f8          	imul   %eax,%r15d
    510e:	45 01 e7             	add    %r12d,%r15d
    5111:	42 8b 04 bb          	mov    (%rbx,%r15,4),%eax
    5115:	39 e8                	cmp    %ebp,%eax
    5117:	0f 82 53 fe ff ff    	jb     4f70 <main+0x1820>
    511d:	31 c0                	xor    %eax,%eax
    511f:	31 c9                	xor    %ecx,%ecx
    5121:	e9 71 fe ff ff       	jmp    4f97 <main+0x1847>
    5126:	48 8d 3d 99 42 00 00 	lea    0x4299(%rip),%rdi        # 93c6 <_IO_stdin_used+0x3c6>
    512d:	48 8d 94 24 b0 00 00 	lea    0xb0(%rsp),%rdx
    5134:	00 
    5135:	44 89 e6             	mov    %r12d,%esi
    5138:	e8 f3 db ff ff       	call   2d30 <_Z8writeBMPPKcjRKSt6vectorIhSaIhEE>
    513d:	4d 85 f6             	test   %r14,%r14
    5140:	74 0e                	je     5150 <main+0x1a00>
    5142:	4d 29 f5             	sub    %r14,%r13
    5145:	4c 89 f7             	mov    %r14,%rdi
    5148:	4c 89 ee             	mov    %r13,%rsi
    514b:	e8 c0 cf ff ff       	call   2110 <_ZdlPvm@plt>
    5150:	48 8b 3d 61 5e 00 00 	mov    0x5e61(%rip),%rdi        # afb8 <_ZSt4cout@GLIBCXX_3.4>
    5157:	48 8d 35 8a 42 00 00 	lea    0x428a(%rip),%rsi        # 93e8 <_IO_stdin_used+0x3e8>
    515e:	ba 3a 00 00 00       	mov    $0x3a,%edx
    5163:	e8 c8 cf ff ff       	call   2130 <_ZSt16__ostream_insertIcSt11char_traitsIcEERSt13basic_ostreamIT_T0_ES6_PKS3_l@plt>
    5168:	4d 85 e4             	test   %r12,%r12
    516b:	0f 84 ca 02 00 00    	je     543b <main+0x1ceb>
    5171:	49 8d 44 24 ff       	lea    -0x1(%r12),%rax
    5176:	44 89 e1             	mov    %r12d,%ecx
    5179:	83 e1 f0             	and    $0xfffffff0,%ecx
    517c:	44 89 e2             	mov    %r12d,%edx
    517f:	83 e2 fc             	and    $0xfffffffc,%edx
    5182:	44 89 e6             	mov    %r12d,%esi
    5185:	83 e6 03             	and    $0x3,%esi
    5188:	48 89 54 24 20       	mov    %rdx,0x20(%rsp)
    518d:	48 f7 da             	neg    %rdx
    5190:	48 89 54 24 10       	mov    %rdx,0x10(%rsp)
    5195:	45 31 c0             	xor    %r8d,%r8d
    5198:	45 31 c9             	xor    %r9d,%r9d
    519b:	45 31 d2             	xor    %r10d,%r10d
    519e:	eb 0f                	jmp    51af <main+0x1a5f>
    51a0:	41 ff c1             	inc    %r9d
    51a3:	4d 01 e0             	add    %r12,%r8
    51a6:	45 39 e1             	cmp    %r12d,%r9d
    51a9:	0f 84 85 02 00 00    	je     5434 <main+0x1ce4>
    51af:	41 83 fc 03          	cmp    $0x3,%r12d
    51b3:	76 22                	jbe    51d7 <main+0x1a87>
    51b5:	48 89 c7             	mov    %rax,%rdi
    51b8:	48 c1 ef 20          	shr    $0x20,%rdi
    51bc:	40 0f 95 c7          	setne  %dil
    51c0:	45 89 e3             	mov    %r12d,%r11d
    51c3:	45 0f af d9          	imul   %r9d,%r11d
    51c7:	41 01 c3             	add    %eax,%r11d
    51ca:	41 0f 92 c3          	setb   %r11b
    51ce:	41 08 fb             	or     %dil,%r11b
    51d1:	0f 84 09 01 00 00    	je     52e0 <main+0x1b90>
    51d7:	45 31 f6             	xor    %r14d,%r14d
    51da:	48 85 f6             	test   %rsi,%rsi
    51dd:	74 41                	je     5220 <main+0x1ad0>
    51df:	49 89 f7             	mov    %rsi,%r15
    51e2:	4d 89 f3             	mov    %r14,%r11
    51e5:	48 8b 54 24 08       	mov    0x8(%rsp),%rdx
    51ea:	66 0f 1f 44 00 00    	nopw   0x0(%rax,%rax,1)
    51f0:	47 8d 24 18          	lea    (%r8,%r11,1),%r12d
    51f4:	42 8b 3c a3          	mov    (%rbx,%r12,4),%edi
    51f8:	46 8b 24 a2          	mov    (%rdx,%r12,4),%r12d
    51fc:	41 89 fd             	mov    %edi,%r13d
    51ff:	45 29 e5             	sub    %r12d,%r13d
    5202:	41 29 fc             	sub    %edi,%r12d
    5205:	45 0f 4c e5          	cmovl  %r13d,%r12d
    5209:	4d 01 e2             	add    %r12,%r10
    520c:	49 ff c3             	inc    %r11
    520f:	49 ff cf             	dec    %r15
    5212:	75 dc                	jne    51f0 <main+0x1aa0>
    5214:	eb 12                	jmp    5228 <main+0x1ad8>
    5216:	66 2e 0f 1f 84 00 00 	cs nopw 0x0(%rax,%rax,1)
    521d:	00 00 00 
    5220:	4d 89 f3             	mov    %r14,%r11
    5223:	48 8b 54 24 08       	mov    0x8(%rsp),%rdx
    5228:	4c 8b 64 24 50       	mov    0x50(%rsp),%r12
    522d:	4d 29 e6             	sub    %r12,%r14
    5230:	49 83 fe fc          	cmp    $0xfffffffffffffffc,%r14
    5234:	49 89 d7             	mov    %rdx,%r15
    5237:	0f 87 63 ff ff ff    	ja     51a0 <main+0x1a50>
    523d:	0f 1f 00             	nopl   (%rax)
    5240:	43 8d 3c 18          	lea    (%r8,%r11,1),%edi
    5244:	44 8b 3c bb          	mov    (%rbx,%rdi,4),%r15d
    5248:	48 8b 54 24 08       	mov    0x8(%rsp),%rdx
    524d:	44 8b 34 ba          	mov    (%rdx,%rdi,4),%r14d
    5251:	44 89 ff             	mov    %r15d,%edi
    5254:	44 29 f7             	sub    %r14d,%edi
    5257:	45 29 fe             	sub    %r15d,%r14d
    525a:	44 0f 4c f7          	cmovl  %edi,%r14d
    525e:	4d 01 d6             	add    %r10,%r14
    5261:	43 8d 3c 18          	lea    (%r8,%r11,1),%edi
    5265:	ff c7                	inc    %edi
    5267:	44 8b 14 bb          	mov    (%rbx,%rdi,4),%r10d
    526b:	48 8b 54 24 08       	mov    0x8(%rsp),%rdx
    5270:	8b 3c ba             	mov    (%rdx,%rdi,4),%edi
    5273:	45 89 d7             	mov    %r10d,%r15d
    5276:	41 29 ff             	sub    %edi,%r15d
    5279:	44 29 d7             	sub    %r10d,%edi
    527c:	41 0f 4c ff          	cmovl  %r15d,%edi
    5280:	47 8d 54 18 02       	lea    0x2(%r8,%r11,1),%r10d
    5285:	46 8b 3c 93          	mov    (%rbx,%r10,4),%r15d
    5289:	48 8b 54 24 08       	mov    0x8(%rsp),%rdx
    528e:	46 8b 24 92          	mov    (%rdx,%r10,4),%r12d
    5292:	45 89 fa             	mov    %r15d,%r10d
    5295:	45 29 e2             	sub    %r12d,%r10d
    5298:	45 29 fc             	sub    %r15d,%r12d
    529b:	4c 8b 7c 24 08       	mov    0x8(%rsp),%r15
    52a0:	45 0f 4c e2          	cmovl  %r10d,%r12d
    52a4:	49 01 fc             	add    %rdi,%r12
    52a7:	4d 01 f4             	add    %r14,%r12
    52aa:	43 8d 3c 18          	lea    (%r8,%r11,1),%edi
    52ae:	83 c7 03             	add    $0x3,%edi
    52b1:	44 8b 34 bb          	mov    (%rbx,%rdi,4),%r14d
    52b5:	45 8b 14 bf          	mov    (%r15,%rdi,4),%r10d
    52b9:	44 89 f7             	mov    %r14d,%edi
    52bc:	44 29 d7             	sub    %r10d,%edi
    52bf:	45 29 f2             	sub    %r14d,%r10d
    52c2:	44 0f 4c d7          	cmovl  %edi,%r10d
    52c6:	4d 01 e2             	add    %r12,%r10
    52c9:	4c 8b 64 24 50       	mov    0x50(%rsp),%r12
    52ce:	49 83 c3 04          	add    $0x4,%r11
    52d2:	4d 39 dc             	cmp    %r11,%r12
    52d5:	0f 85 65 ff ff ff    	jne    5240 <main+0x1af0>
    52db:	e9 c0 fe ff ff       	jmp    51a0 <main+0x1a50>
    52e0:	41 83 fc 10          	cmp    $0x10,%r12d
    52e4:	73 08                	jae    52ee <main+0x1b9e>
    52e6:	45 31 db             	xor    %r11d,%r11d
    52e9:	e9 d6 00 00 00       	jmp    53c4 <main+0x1c74>
    52ee:	c4 c1 f9 6e c2       	vmovq  %r10,%xmm0
    52f3:	c5 f0 57 c9          	vxorps %xmm1,%xmm1,%xmm1
    52f7:	45 89 c2             	mov    %r8d,%r10d
    52fa:	49 89 cb             	mov    %rcx,%r11
    52fd:	c5 e8 57 d2          	vxorps %xmm2,%xmm2,%xmm2
    5301:	c5 e0 57 db          	vxorps %xmm3,%xmm3,%xmm3
    5305:	66 66 2e 0f 1f 84 00 	data16 cs nopw 0x0(%rax,%rax,1)
    530c:	00 00 00 00 
    5310:	44 89 d7             	mov    %r10d,%edi
    5313:	c5 fa 6f 24 bb       	vmovdqu (%rbx,%rdi,4),%xmm4
    5318:	c5 fa 6f 6c bb 10    	vmovdqu 0x10(%rbx,%rdi,4),%xmm5
    531e:	c5 fa 6f 74 bb 20    	vmovdqu 0x20(%rbx,%rdi,4),%xmm6
    5324:	c5 fa 6f 7c bb 30    	vmovdqu 0x30(%rbx,%rdi,4),%xmm7
    532a:	c4 c1 59 fa 24 bf    	vpsubd (%r15,%rdi,4),%xmm4,%xmm4
    5330:	c4 c1 51 fa 6c bf 10 	vpsubd 0x10(%r15,%rdi,4),%xmm5,%xmm5
    5337:	c4 c1 49 fa 74 bf 20 	vpsubd 0x20(%r15,%rdi,4),%xmm6,%xmm6
    533e:	c4 c1 41 fa 7c bf 30 	vpsubd 0x30(%r15,%rdi,4),%xmm7,%xmm7
    5345:	c4 e2 79 1e e4       	vpabsd %xmm4,%xmm4
    534a:	c4 e2 79 1e ed       	vpabsd %xmm5,%xmm5
    534f:	c4 e2 79 1e f6       	vpabsd %xmm6,%xmm6
    5354:	c4 e2 79 1e ff       	vpabsd %xmm7,%xmm7
    5359:	c4 e2 7d 35 e4       	vpmovzxdq %xmm4,%ymm4
    535e:	c5 fd d4 c4          	vpaddq %ymm4,%ymm0,%ymm0
    5362:	c4 e2 7d 35 e5       	vpmovzxdq %xmm5,%ymm4
    5367:	c5 f5 d4 cc          	vpaddq %ymm4,%ymm1,%ymm1
    536b:	c4 e2 7d 35 e6       	vpmovzxdq %xmm6,%ymm4
    5370:	c5 ed d4 d4          	vpaddq %ymm4,%ymm2,%ymm2
    5374:	c4 e2 7d 35 e7       	vpmovzxdq %xmm7,%ymm4
    5379:	c5 e5 d4 dc          	vpaddq %ymm4,%ymm3,%ymm3
    537d:	41 83 c2 10          	add    $0x10,%r10d
    5381:	49 83 c3 f0          	add    $0xfffffffffffffff0,%r11
    5385:	75 89                	jne    5310 <main+0x1bc0>
    5387:	c5 f5 d4 c0          	vpaddq %ymm0,%ymm1,%ymm0
    538b:	c5 ed d4 c0          	vpaddq %ymm0,%ymm2,%ymm0
    538f:	c5 e5 d4 c0          	vpaddq %ymm0,%ymm3,%ymm0
    5393:	c4 e3 7d 39 c1 01    	vextracti128 $0x1,%ymm0,%xmm1
    5399:	c5 f9 d4 c1          	vpaddq %xmm1,%xmm0,%xmm0
    539d:	c5 f9 70 c8 ee       	vpshufd $0xee,%xmm0,%xmm1
    53a2:	c5 f9 d4 c1          	vpaddq %xmm1,%xmm0,%xmm0
    53a6:	c4 c1 f9 7e c2       	vmovq  %xmm0,%r10
    53ab:	44 39 e1             	cmp    %r12d,%ecx
    53ae:	0f 84 ec fd ff ff    	je     51a0 <main+0x1a50>
    53b4:	49 89 ce             	mov    %rcx,%r14
    53b7:	49 89 cb             	mov    %rcx,%r11
    53ba:	41 f6 c4 0c          	test   $0xc,%r12b
    53be:	0f 84 16 fe ff ff    	je     51da <main+0x1a8a>
    53c4:	c4 c1 f9 6e c2       	vmovq  %r10,%xmm0
    53c9:	48 8b 54 24 10       	mov    0x10(%rsp),%rdx
    53ce:	4e 8d 14 1a          	lea    (%rdx,%r11,1),%r10
    53d2:	45 01 c3             	add    %r8d,%r11d
    53d5:	66 66 2e 0f 1f 84 00 	data16 cs nopw 0x0(%rax,%rax,1)
    53dc:	00 00 00 00 
    53e0:	44 89 df             	mov    %r11d,%edi
    53e3:	c5 fa 6f 0c bb       	vmovdqu (%rbx,%rdi,4),%xmm1
    53e8:	c4 c1 71 fa 0c bf    	vpsubd (%r15,%rdi,4),%xmm1,%xmm1
    53ee:	c4 e2 79 1e c9       	vpabsd %xmm1,%xmm1
    53f3:	c4 e2 7d 35 c9       	vpmovzxdq %xmm1,%ymm1
    53f8:	c5 fd d4 c1          	vpaddq %ymm1,%ymm0,%ymm0
    53fc:	41 83 c3 04          	add    $0x4,%r11d
    5400:	49 83 c2 04          	add    $0x4,%r10
    5404:	75 da                	jne    53e0 <main+0x1c90>
    5406:	c4 e3 7d 39 c1 01    	vextracti128 $0x1,%ymm0,%xmm1
    540c:	c5 f9 d4 c1          	vpaddq %xmm1,%xmm0,%xmm0
    5410:	c5 f9 70 c8 ee       	vpshufd $0xee,%xmm0,%xmm1
    5415:	c5 f9 d4 c1          	vpaddq %xmm1,%xmm0,%xmm0
    5419:	c4 c1 f9 7e c2       	vmovq  %xmm0,%r10
    541e:	48 8b 54 24 20       	mov    0x20(%rsp),%rdx
    5423:	49 89 d6             	mov    %rdx,%r14
    5426:	44 39 e2             	cmp    %r12d,%edx
    5429:	0f 84 71 fd ff ff    	je     51a0 <main+0x1a50>
    542f:	e9 a6 fd ff ff       	jmp    51da <main+0x1a8a>
    5434:	c4 c1 bb 2a c2       	vcvtsi2sd %r10,%xmm8,%xmm0
    5439:	eb 04                	jmp    543f <main+0x1cef>
    543b:	c5 f9 57 c0          	vxorpd %xmm0,%xmm0,%xmm0
    543f:	44 89 e0             	mov    %r12d,%eax
    5442:	0f af c5             	imul   %ebp,%eax
    5445:	41 0f af c4          	imul   %r12d,%eax
    5449:	62 f1 3f 08 7b c8    	vcvtusi2sd %eax,%xmm8,%xmm1
    544f:	c5 fb 5e c1          	vdivsd %xmm1,%xmm0,%xmm0
    5453:	48 8b 3d 5e 5b 00 00 	mov    0x5b5e(%rip),%rdi        # afb8 <_ZSt4cout@GLIBCXX_3.4>
    545a:	c5 f8 77             	vzeroupper
    545d:	e8 5e cd ff ff       	call   21c0 <_ZNSo9_M_insertIdEERSoT_@plt>
    5462:	49 89 c6             	mov    %rax,%r14
    5465:	48 8b 00             	mov    (%rax),%rax
    5468:	48 8b 40 e8          	mov    -0x18(%rax),%rax
    546c:	4d 8b ac 06 f0 00 00 	mov    0xf0(%r14,%rax,1),%r13
    5473:	00 
    5474:	4d 85 ed             	test   %r13,%r13
    5477:	0f 84 5e 2a 00 00    	je     7edb <main+0x478b>
    547d:	41 80 7d 38 00       	cmpb   $0x0,0x38(%r13)
    5482:	74 07                	je     548b <main+0x1d3b>
    5484:	41 0f b6 45 43       	movzbl 0x43(%r13),%eax
    5489:	eb 17                	jmp    54a2 <main+0x1d52>
    548b:	4c 89 ef             	mov    %r13,%rdi
    548e:	e8 ad cc ff ff       	call   2140 <_ZNKSt5ctypeIcE13_M_widen_initEv@plt>
    5493:	49 8b 45 00          	mov    0x0(%r13),%rax
    5497:	4c 89 ef             	mov    %r13,%rdi
    549a:	be 0a 00 00 00       	mov    $0xa,%esi
    549f:	ff 50 30             	call   *0x30(%rax)
    54a2:	0f be f0             	movsbl %al,%esi
    54a5:	4c 89 f7             	mov    %r14,%rdi
    54a8:	e8 83 cb ff ff       	call   2030 <_ZNSo3putEc@plt>
    54ad:	48 89 c7             	mov    %rax,%rdi
    54b0:	e8 0b cc ff ff       	call   20c0 <_ZNSo5flushEv@plt>
    54b5:	8b 8c 24 8c 00 00 00 	mov    0x8c(%rsp),%ecx
    54bc:	83 f9 06             	cmp    $0x6,%ecx
    54bf:	74 09                	je     54ca <main+0x1d7a>
    54c1:	83 f9 03             	cmp    $0x3,%ecx
    54c4:	0f 85 ee 0d 00 00    	jne    62b8 <main+0x2b68>
    54ca:	4d 0f af e4          	imul   %r12,%r12
    54ce:	49 c1 e4 02          	shl    $0x2,%r12
    54d2:	48 89 df             	mov    %rbx,%rdi
    54d5:	31 f6                	xor    %esi,%esi
    54d7:	4c 89 e2             	mov    %r12,%rdx
    54da:	e8 c1 cb ff ff       	call   20a0 <memset@plt>
    54df:	48 8b 05 d2 5a 00 00 	mov    0x5ad2(%rip),%rax        # afb8 <_ZSt4cout@GLIBCXX_3.4>
    54e6:	48 8b 08             	mov    (%rax),%rcx
    54e9:	48 8b 49 e8          	mov    -0x18(%rcx),%rcx
    54ed:	4c 8b b4 08 f0 00 00 	mov    0xf0(%rax,%rcx,1),%r14
    54f4:	00 
    54f5:	4d 85 f6             	test   %r14,%r14
    54f8:	0f 84 dd 29 00 00    	je     7edb <main+0x478b>
    54fe:	41 80 7e 38 00       	cmpb   $0x0,0x38(%r14)
    5503:	74 07                	je     550c <main+0x1dbc>
    5505:	41 0f b6 46 43       	movzbl 0x43(%r14),%eax
    550a:	eb 16                	jmp    5522 <main+0x1dd2>
    550c:	4c 89 f7             	mov    %r14,%rdi
    550f:	e8 2c cc ff ff       	call   2140 <_ZNKSt5ctypeIcE13_M_widen_initEv@plt>
    5514:	49 8b 06             	mov    (%r14),%rax
    5517:	4c 89 f7             	mov    %r14,%rdi
    551a:	be 0a 00 00 00       	mov    $0xa,%esi
    551f:	ff 50 30             	call   *0x30(%rax)
    5522:	0f be f0             	movsbl %al,%esi
    5525:	48 8b 3d 8c 5a 00 00 	mov    0x5a8c(%rip),%rdi        # afb8 <_ZSt4cout@GLIBCXX_3.4>
    552c:	e8 ff ca ff ff       	call   2030 <_ZNSo3putEc@plt>
    5531:	48 89 c7             	mov    %rax,%rdi
    5534:	e8 87 cb ff ff       	call   20c0 <_ZNSo5flushEv@plt>
    5539:	49 89 c6             	mov    %rax,%r14
    553c:	48 8d 35 16 3e 00 00 	lea    0x3e16(%rip),%rsi        # 9359 <_IO_stdin_used+0x359>
    5543:	ba 08 00 00 00       	mov    $0x8,%edx
    5548:	48 89 c7             	mov    %rax,%rdi
    554b:	e8 e0 cb ff ff       	call   2130 <_ZSt16__ostream_insertIcSt11char_traitsIcEERSt13basic_ostreamIT_T0_ES6_PKS3_l@plt>
    5550:	48 8d 35 cc 3e 00 00 	lea    0x3ecc(%rip),%rsi        # 9423 <_IO_stdin_used+0x423>
    5557:	ba 1f 00 00 00       	mov    $0x1f,%edx
    555c:	4c 89 f7             	mov    %r14,%rdi
    555f:	e8 cc cb ff ff       	call   2130 <_ZSt16__ostream_insertIcSt11char_traitsIcEERSt13basic_ostreamIT_T0_ES6_PKS3_l@plt>
    5564:	48 8d 35 0d 3e 00 00 	lea    0x3e0d(%rip),%rsi        # 9378 <_IO_stdin_used+0x378>
    556b:	ba 05 00 00 00       	mov    $0x5,%edx
    5570:	4c 89 f7             	mov    %r14,%rdi
    5573:	e8 b8 cb ff ff       	call   2130 <_ZSt16__ostream_insertIcSt11char_traitsIcEERSt13basic_ostreamIT_T0_ES6_PKS3_l@plt>
    5578:	bf 50 00 00 00       	mov    $0x50,%edi
    557d:	e8 7e cb ff ff       	call   2100 <_Znwm@plt>
    5582:	49 89 c4             	mov    %rax,%r12
    5585:	c5 f8 57 c0          	vxorps %xmm0,%xmm0,%xmm0
    5589:	c5 fc 11 40 30       	vmovups %ymm0,0x30(%rax)
    558e:	c5 fc 11 40 20       	vmovups %ymm0,0x20(%rax)
    5593:	c5 fc 11 00          	vmovups %ymm0,(%rax)
    5597:	c5 f8 77             	vzeroupper
    559a:	e8 a1 ca ff ff       	call   2040 <_ZNSt6chrono3_V212system_clock3nowEv@plt>
    559f:	49 89 c6             	mov    %rax,%r14
    55a2:	e8 99 ca ff ff       	call   2040 <_ZNSt6chrono3_V212system_clock3nowEv@plt>
    55a7:	4c 29 f0             	sub    %r14,%rax
    55aa:	62 f1 9f 08 7b c0    	vcvtusi2sd %rax,%xmm12,%xmm0
    55b0:	c4 c1 7b 11 04 24    	vmovsd %xmm0,(%r12)
    55b6:	e8 85 ca ff ff       	call   2040 <_ZNSt6chrono3_V212system_clock3nowEv@plt>
    55bb:	49 89 c6             	mov    %rax,%r14
    55be:	e8 7d ca ff ff       	call   2040 <_ZNSt6chrono3_V212system_clock3nowEv@plt>
    55c3:	4c 29 f0             	sub    %r14,%rax
    55c6:	62 f1 9f 08 7b c0    	vcvtusi2sd %rax,%xmm12,%xmm0
    55cc:	c4 c1 7b 11 44 24 08 	vmovsd %xmm0,0x8(%r12)
    55d3:	e8 68 ca ff ff       	call   2040 <_ZNSt6chrono3_V212system_clock3nowEv@plt>
    55d8:	49 89 c6             	mov    %rax,%r14
    55db:	e8 60 ca ff ff       	call   2040 <_ZNSt6chrono3_V212system_clock3nowEv@plt>
    55e0:	4c 29 f0             	sub    %r14,%rax
    55e3:	62 f1 9f 08 7b c0    	vcvtusi2sd %rax,%xmm12,%xmm0
    55e9:	c4 c1 7b 11 44 24 10 	vmovsd %xmm0,0x10(%r12)
    55f0:	e8 4b ca ff ff       	call   2040 <_ZNSt6chrono3_V212system_clock3nowEv@plt>
    55f5:	49 89 c6             	mov    %rax,%r14
    55f8:	e8 43 ca ff ff       	call   2040 <_ZNSt6chrono3_V212system_clock3nowEv@plt>
    55fd:	4c 29 f0             	sub    %r14,%rax
    5600:	62 f1 9f 08 7b c0    	vcvtusi2sd %rax,%xmm12,%xmm0
    5606:	c4 c1 7b 11 44 24 18 	vmovsd %xmm0,0x18(%r12)
    560d:	e8 2e ca ff ff       	call   2040 <_ZNSt6chrono3_V212system_clock3nowEv@plt>
    5612:	49 89 c6             	mov    %rax,%r14
    5615:	e8 26 ca ff ff       	call   2040 <_ZNSt6chrono3_V212system_clock3nowEv@plt>
    561a:	4c 29 f0             	sub    %r14,%rax
    561d:	62 f1 9f 08 7b c0    	vcvtusi2sd %rax,%xmm12,%xmm0
    5623:	c4 c1 7b 11 44 24 20 	vmovsd %xmm0,0x20(%r12)
    562a:	e8 11 ca ff ff       	call   2040 <_ZNSt6chrono3_V212system_clock3nowEv@plt>
    562f:	49 89 c6             	mov    %rax,%r14
    5632:	e8 09 ca ff ff       	call   2040 <_ZNSt6chrono3_V212system_clock3nowEv@plt>
    5637:	4c 29 f0             	sub    %r14,%rax
    563a:	62 f1 9f 08 7b c0    	vcvtusi2sd %rax,%xmm12,%xmm0
    5640:	c4 c1 7b 11 44 24 28 	vmovsd %xmm0,0x28(%r12)
    5647:	e8 f4 c9 ff ff       	call   2040 <_ZNSt6chrono3_V212system_clock3nowEv@plt>
    564c:	49 89 c6             	mov    %rax,%r14
    564f:	e8 ec c9 ff ff       	call   2040 <_ZNSt6chrono3_V212system_clock3nowEv@plt>
    5654:	4c 29 f0             	sub    %r14,%rax
    5657:	62 f1 9f 08 7b c0    	vcvtusi2sd %rax,%xmm12,%xmm0
    565d:	c4 c1 7b 11 44 24 30 	vmovsd %xmm0,0x30(%r12)
    5664:	e8 d7 c9 ff ff       	call   2040 <_ZNSt6chrono3_V212system_clock3nowEv@plt>
    5669:	49 89 c6             	mov    %rax,%r14
    566c:	e8 cf c9 ff ff       	call   2040 <_ZNSt6chrono3_V212system_clock3nowEv@plt>
    5671:	4c 29 f0             	sub    %r14,%rax
    5674:	62 f1 ef 08 7b c0    	vcvtusi2sd %rax,%xmm2,%xmm0
    567a:	c4 c1 7b 11 44 24 38 	vmovsd %xmm0,0x38(%r12)
    5681:	e8 ba c9 ff ff       	call   2040 <_ZNSt6chrono3_V212system_clock3nowEv@plt>
    5686:	49 89 c6             	mov    %rax,%r14
    5689:	e8 b2 c9 ff ff       	call   2040 <_ZNSt6chrono3_V212system_clock3nowEv@plt>
    568e:	4c 29 f0             	sub    %r14,%rax
    5691:	62 f1 ef 08 7b c0    	vcvtusi2sd %rax,%xmm2,%xmm0
    5697:	c4 c1 7b 11 44 24 40 	vmovsd %xmm0,0x40(%r12)
    569e:	e8 9d c9 ff ff       	call   2040 <_ZNSt6chrono3_V212system_clock3nowEv@plt>
    56a3:	49 89 c6             	mov    %rax,%r14
    56a6:	e8 95 c9 ff ff       	call   2040 <_ZNSt6chrono3_V212system_clock3nowEv@plt>
    56ab:	4c 29 f0             	sub    %r14,%rax
    56ae:	62 f1 f7 08 7b c0    	vcvtusi2sd %rax,%xmm1,%xmm0
    56b4:	c4 c1 7b 11 44 24 48 	vmovsd %xmm0,0x48(%r12)
    56bb:	4d 89 e6             	mov    %r12,%r14
    56be:	49 83 c6 50          	add    $0x50,%r14
    56c2:	ba 06 00 00 00       	mov    $0x6,%edx
    56c7:	4c 89 e7             	mov    %r12,%rdi
    56ca:	4c 89 f6             	mov    %r14,%rsi
    56cd:	4c 89 64 24 20       	mov    %r12,0x20(%rsp)
    56d2:	e8 e9 29 00 00       	call   80c0 <_ZSt16__introsort_loopIN9__gnu_cxx17__normal_iteratorIPdSt6vectorIdSaIdEEEElNS0_5__ops15_Iter_less_iterEEvT_S9_T0_T1_>
    56d7:	4c 89 e7             	mov    %r12,%rdi
    56da:	4c 89 f6             	mov    %r14,%rsi
    56dd:	e8 7e 2c 00 00       	call   8360 <_ZSt22__final_insertion_sortIN9__gnu_cxx17__normal_iteratorIPdSt6vectorIdSaIdEEEENS0_5__ops15_Iter_less_iterEEvT_S9_T0_>
    56e2:	48 8d bc 24 b0 00 00 	lea    0xb0(%rsp),%rdi
    56e9:	00 
    56ea:	e8 e1 c9 ff ff       	call   20d0 <_ZNSt7__cxx1118basic_stringstreamIcSt11char_traitsIcESaIcEEC1Ev@plt>
    56ef:	48 8d bc 24 c0 00 00 	lea    0xc0(%rsp),%rdi
    56f6:	00 
    56f7:	48 8b 84 24 c0 00 00 	mov    0xc0(%rsp),%rax
    56fe:	00 
    56ff:	48 8b 48 e8          	mov    -0x18(%rax),%rcx
    5703:	ba fb fe ff ff       	mov    $0xfffffefb,%edx
    5708:	23 94 0c d8 00 00 00 	and    0xd8(%rsp,%rcx,1),%edx
    570f:	83 ca 04             	or     $0x4,%edx
    5712:	89 94 0c d8 00 00 00 	mov    %edx,0xd8(%rsp,%rcx,1)
    5719:	48 8b 48 e8          	mov    -0x18(%rax),%rcx
    571d:	48 c7 84 0c d0 00 00 	movq   $0x6,0xd0(%rsp,%rcx,1)
    5724:	00 06 00 00 00 
    5729:	48 8b 40 e8          	mov    -0x18(%rax),%rax
    572d:	48 c7 84 04 c8 00 00 	movq   $0x2,0xc8(%rsp,%rax,1)
    5734:	00 02 00 00 00 
    5739:	c4 c1 7b 10 04 24    	vmovsd (%r12),%xmm0
    573f:	c5 fb 59 05 11 3b 00 	vmulsd 0x3b11(%rip),%xmm0,%xmm0        # 9258 <_IO_stdin_used+0x258>
    5746:	00 
    5747:	e8 74 ca ff ff       	call   21c0 <_ZNSo9_M_insertIdEERSoT_@plt>
    574c:	48 8b 3d 65 58 00 00 	mov    0x5865(%rip),%rdi        # afb8 <_ZSt4cout@GLIBCXX_3.4>
    5753:	48 8d 35 24 3c 00 00 	lea    0x3c24(%rip),%rsi        # 937e <_IO_stdin_used+0x37e>
    575a:	ba 0b 00 00 00       	mov    $0xb,%edx
    575f:	e8 cc c9 ff ff       	call   2130 <_ZSt16__ostream_insertIcSt11char_traitsIcEERSt13basic_ostreamIT_T0_ES6_PKS3_l@plt>
    5764:	4c 8d 64 24 40       	lea    0x40(%rsp),%r12
    5769:	4c 89 64 24 30       	mov    %r12,0x30(%rsp)
    576e:	48 c7 44 24 38 00 00 	movq   $0x0,0x38(%rsp)
    5775:	00 00 
    5777:	c6 44 24 40 00       	movb   $0x0,0x40(%rsp)
    577c:	4c 8b 84 24 e0 00 00 	mov    0xe0(%rsp),%r8
    5783:	00 
    5784:	48 8b 84 24 f0 00 00 	mov    0xf0(%rsp),%rax
    578b:	00 
    578c:	48 85 c0             	test   %rax,%rax
    578f:	0f 94 c1             	sete   %cl
    5792:	4c 39 c0             	cmp    %r8,%rax
    5795:	4c 0f 47 c0          	cmova  %rax,%r8
    5799:	4d 85 c0             	test   %r8,%r8
    579c:	0f 94 c0             	sete   %al
    579f:	08 c8                	or     %cl,%al
    57a1:	74 14                	je     57b7 <main+0x2067>
    57a3:	48 8d b4 24 10 01 00 	lea    0x110(%rsp),%rsi
    57aa:	00 
    57ab:	48 8d 7c 24 30       	lea    0x30(%rsp),%rdi
    57b0:	e8 bb 32 00 00       	call   8a70 <_ZNSt7__cxx1112basic_stringIcSt11char_traitsIcESaIcEE9_M_assignERKS4_>
    57b5:	eb 19                	jmp    57d0 <main+0x2080>
    57b7:	48 8b 8c 24 e8 00 00 	mov    0xe8(%rsp),%rcx
    57be:	00 
    57bf:	49 29 c8             	sub    %rcx,%r8
    57c2:	48 8d 7c 24 30       	lea    0x30(%rsp),%rdi
    57c7:	31 f6                	xor    %esi,%esi
    57c9:	31 d2                	xor    %edx,%edx
    57cb:	e8 d0 2f 00 00       	call   87a0 <_ZNSt7__cxx1112basic_stringIcSt11char_traitsIcESaIcEE10_M_replaceEmmPKcm>
    57d0:	48 8b 74 24 30       	mov    0x30(%rsp),%rsi
    57d5:	48 8b 54 24 38       	mov    0x38(%rsp),%rdx
    57da:	48 8b 3d d7 57 00 00 	mov    0x57d7(%rip),%rdi        # afb8 <_ZSt4cout@GLIBCXX_3.4>
    57e1:	e8 4a c9 ff ff       	call   2130 <_ZSt16__ostream_insertIcSt11char_traitsIcEERSt13basic_ostreamIT_T0_ES6_PKS3_l@plt>
    57e6:	49 89 c5             	mov    %rax,%r13
    57e9:	48 8d 35 9a 3b 00 00 	lea    0x3b9a(%rip),%rsi        # 938a <_IO_stdin_used+0x38a>
    57f0:	ba 03 00 00 00       	mov    $0x3,%edx
    57f5:	48 89 c7             	mov    %rax,%rdi
    57f8:	e8 33 c9 ff ff       	call   2130 <_ZSt16__ostream_insertIcSt11char_traitsIcEERSt13basic_ostreamIT_T0_ES6_PKS3_l@plt>
    57fd:	49 8b 45 00          	mov    0x0(%r13),%rax
    5801:	48 8b 40 e8          	mov    -0x18(%rax),%rax
    5805:	4d 8b b4 05 f0 00 00 	mov    0xf0(%r13,%rax,1),%r14
    580c:	00 
    580d:	4d 85 f6             	test   %r14,%r14
    5810:	0f 84 cf 26 00 00    	je     7ee5 <main+0x4795>
    5816:	41 80 7e 38 00       	cmpb   $0x0,0x38(%r14)
    581b:	74 07                	je     5824 <main+0x20d4>
    581d:	41 0f b6 46 43       	movzbl 0x43(%r14),%eax
    5822:	eb 16                	jmp    583a <main+0x20ea>
    5824:	4c 89 f7             	mov    %r14,%rdi
    5827:	e8 14 c9 ff ff       	call   2140 <_ZNKSt5ctypeIcE13_M_widen_initEv@plt>
    582c:	49 8b 06             	mov    (%r14),%rax
    582f:	4c 89 f7             	mov    %r14,%rdi
    5832:	be 0a 00 00 00       	mov    $0xa,%esi
    5837:	ff 50 30             	call   *0x30(%rax)
    583a:	0f be f0             	movsbl %al,%esi
    583d:	4c 89 ef             	mov    %r13,%rdi
    5840:	e8 eb c7 ff ff       	call   2030 <_ZNSo3putEc@plt>
    5845:	48 89 c7             	mov    %rax,%rdi
    5848:	e8 73 c8 ff ff       	call   20c0 <_ZNSo5flushEv@plt>
    584d:	48 8b 7c 24 30       	mov    0x30(%rsp),%rdi
    5852:	4c 39 e7             	cmp    %r12,%rdi
    5855:	74 0d                	je     5864 <main+0x2114>
    5857:	48 8b 74 24 40       	mov    0x40(%rsp),%rsi
    585c:	48 ff c6             	inc    %rsi
    585f:	e8 ac c8 ff ff       	call   2110 <_ZdlPvm@plt>
    5864:	4c 8b 35 2d 57 00 00 	mov    0x572d(%rip),%r14        # af98 <_ZTTNSt7__cxx1118basic_stringstreamIcSt11char_traitsIcESaIcEEE@GLIBCXX_3.4.21>
    586b:	49 8b 06             	mov    (%r14),%rax
    586e:	49 8b 4e 40          	mov    0x40(%r14),%rcx
    5872:	48 89 84 24 b0 00 00 	mov    %rax,0xb0(%rsp)
    5879:	00 
    587a:	48 8b 40 e8          	mov    -0x18(%rax),%rax
    587e:	48 89 8c 04 b0 00 00 	mov    %rcx,0xb0(%rsp,%rax,1)
    5885:	00 
    5886:	49 8b 46 48          	mov    0x48(%r14),%rax
    588a:	48 89 84 24 c0 00 00 	mov    %rax,0xc0(%rsp)
    5891:	00 
    5892:	48 8b 05 47 57 00 00 	mov    0x5747(%rip),%rax        # afe0 <_ZTVNSt7__cxx1115basic_stringbufIcSt11char_traitsIcESaIcEEE@GLIBCXX_3.4.21>
    5899:	48 83 c0 10          	add    $0x10,%rax
    589d:	48 89 84 24 c8 00 00 	mov    %rax,0xc8(%rsp)
    58a4:	00 
    58a5:	48 8b bc 24 10 01 00 	mov    0x110(%rsp),%rdi
    58ac:	00 
    58ad:	48 8d 84 24 20 01 00 	lea    0x120(%rsp),%rax
    58b4:	00 
    58b5:	48 39 c7             	cmp    %rax,%rdi
    58b8:	4c 8b 64 24 50       	mov    0x50(%rsp),%r12
    58bd:	74 10                	je     58cf <main+0x217f>
    58bf:	48 8b b4 24 20 01 00 	mov    0x120(%rsp),%rsi
    58c6:	00 
    58c7:	48 ff c6             	inc    %rsi
    58ca:	e8 41 c8 ff ff       	call   2110 <_ZdlPvm@plt>
    58cf:	48 8b 05 d2 56 00 00 	mov    0x56d2(%rip),%rax        # afa8 <_ZTVSt15basic_streambufIcSt11char_traitsIcEE@GLIBCXX_3.4>
    58d6:	48 83 c0 10          	add    $0x10,%rax
    58da:	48 89 84 24 c8 00 00 	mov    %rax,0xc8(%rsp)
    58e1:	00 
    58e2:	48 8d bc 24 00 01 00 	lea    0x100(%rsp),%rdi
    58e9:	00 
    58ea:	e8 b1 c8 ff ff       	call   21a0 <_ZNSt6localeD1Ev@plt>
    58ef:	49 8b 46 10          	mov    0x10(%r14),%rax
    58f3:	49 8b 4e 18          	mov    0x18(%r14),%rcx
    58f7:	48 89 84 24 b0 00 00 	mov    %rax,0xb0(%rsp)
    58fe:	00 
    58ff:	48 8b 40 e8          	mov    -0x18(%rax),%rax
    5903:	48 89 8c 04 b0 00 00 	mov    %rcx,0xb0(%rsp,%rax,1)
    590a:	00 
    590b:	48 c7 84 24 b8 00 00 	movq   $0x0,0xb8(%rsp)
    5912:	00 00 00 00 00 
    5917:	48 8d bc 24 30 01 00 	lea    0x130(%rsp),%rdi
    591e:	00 
    591f:	e8 2c c7 ff ff       	call   2050 <_ZNSt8ios_baseD2Ev@plt>
    5924:	be 50 00 00 00       	mov    $0x50,%esi
    5929:	48 8b 7c 24 20       	mov    0x20(%rsp),%rdi
    592e:	e8 dd c7 ff ff       	call   2110 <_ZdlPvm@plt>
    5933:	41 89 e9             	mov    %ebp,%r9d
    5936:	4d 85 e4             	test   %r12,%r12
    5939:	0f 84 1e 03 00 00    	je     5c5d <main+0x250d>
    593f:	49 8d 44 24 ff       	lea    -0x1(%r12),%rax
    5944:	44 89 e1             	mov    %r12d,%ecx
    5947:	83 e1 e0             	and    $0xffffffe0,%ecx
    594a:	44 89 e2             	mov    %r12d,%edx
    594d:	83 e2 fc             	and    $0xfffffffc,%edx
    5950:	48 89 d6             	mov    %rdx,%rsi
    5953:	48 f7 de             	neg    %rsi
    5956:	31 ff                	xor    %edi,%edi
    5958:	45 31 c0             	xor    %r8d,%r8d
    595b:	41 89 e9             	mov    %ebp,%r9d
    595e:	eb 0f                	jmp    596f <main+0x221f>
    5960:	41 ff c0             	inc    %r8d
    5963:	4c 01 e7             	add    %r12,%rdi
    5966:	45 39 e0             	cmp    %r12d,%r8d
    5969:	0f 84 ee 02 00 00    	je     5c5d <main+0x250d>
    596f:	41 83 fc 03          	cmp    $0x3,%r12d
    5973:	76 22                	jbe    5997 <main+0x2247>
    5975:	49 89 c2             	mov    %rax,%r10
    5978:	49 c1 ea 20          	shr    $0x20,%r10
    597c:	41 0f 95 c2          	setne  %r10b
    5980:	45 89 e3             	mov    %r12d,%r11d
    5983:	45 0f af d8          	imul   %r8d,%r11d
    5987:	41 01 c3             	add    %eax,%r11d
    598a:	41 0f 92 c3          	setb   %r11b
    598e:	45 08 d3             	or     %r10b,%r11b
    5991:	0f 84 c9 01 00 00    	je     5b60 <main+0x2410>
    5997:	45 31 db             	xor    %r11d,%r11d
    599a:	45 89 e6             	mov    %r12d,%r14d
    599d:	45 29 de             	sub    %r11d,%r14d
    59a0:	4d 89 da             	mov    %r11,%r10
    59a3:	41 83 e6 07          	and    $0x7,%r14d
    59a7:	74 1e                	je     59c7 <main+0x2277>
    59a9:	0f 1f 80 00 00 00 00 	nopl   0x0(%rax)
    59b0:	46 8d 3c 17          	lea    (%rdi,%r10,1),%r15d
    59b4:	46 8b 3c bb          	mov    (%rbx,%r15,4),%r15d
    59b8:	45 39 cf             	cmp    %r9d,%r15d
    59bb:	45 0f 42 cf          	cmovb  %r15d,%r9d
    59bf:	49 ff c2             	inc    %r10
    59c2:	49 ff ce             	dec    %r14
    59c5:	75 e9                	jne    59b0 <main+0x2260>
    59c7:	4d 29 e3             	sub    %r12,%r11
    59ca:	49 83 fb f8          	cmp    $0xfffffffffffffff8,%r11
    59ce:	4c 8b 7c 24 08       	mov    0x8(%rsp),%r15
    59d3:	76 18                	jbe    59ed <main+0x229d>
    59d5:	eb 89                	jmp    5960 <main+0x2210>
    59d7:	66 0f 1f 84 00 00 00 	nopw   0x0(%rax,%rax,1)
    59de:	00 00 
    59e0:	49 83 c2 08          	add    $0x8,%r10
    59e4:	4d 39 d4             	cmp    %r10,%r12
    59e7:	0f 84 73 ff ff ff    	je     5960 <main+0x2210>
    59ed:	46 8d 1c 17          	lea    (%rdi,%r10,1),%r11d
    59f1:	46 8b 1c 9b          	mov    (%rbx,%r11,4),%r11d
    59f5:	45 39 cb             	cmp    %r9d,%r11d
    59f8:	0f 82 b2 00 00 00    	jb     5ab0 <main+0x2360>
    59fe:	45 89 cb             	mov    %r9d,%r11d
    5a01:	46 8d 0c 17          	lea    (%rdi,%r10,1),%r9d
    5a05:	41 ff c1             	inc    %r9d
    5a08:	46 8b 0c 8b          	mov    (%rbx,%r9,4),%r9d
    5a0c:	45 39 d9             	cmp    %r11d,%r9d
    5a0f:	0f 83 af 00 00 00    	jae    5ac4 <main+0x2374>
    5a15:	46 8d 1c 17          	lea    (%rdi,%r10,1),%r11d
    5a19:	41 83 c3 02          	add    $0x2,%r11d
    5a1d:	46 8b 1c 9b          	mov    (%rbx,%r11,4),%r11d
    5a21:	45 39 cb             	cmp    %r9d,%r11d
    5a24:	0f 82 b2 00 00 00    	jb     5adc <main+0x238c>
    5a2a:	45 89 cb             	mov    %r9d,%r11d
    5a2d:	46 8d 0c 17          	lea    (%rdi,%r10,1),%r9d
    5a31:	41 83 c1 03          	add    $0x3,%r9d
    5a35:	46 8b 0c 8b          	mov    (%rbx,%r9,4),%r9d
    5a39:	45 39 d9             	cmp    %r11d,%r9d
    5a3c:	0f 83 af 00 00 00    	jae    5af1 <main+0x23a1>
    5a42:	46 8d 1c 17          	lea    (%rdi,%r10,1),%r11d
    5a46:	41 83 c3 04          	add    $0x4,%r11d
    5a4a:	46 8b 1c 9b          	mov    (%rbx,%r11,4),%r11d
    5a4e:	45 39 cb             	cmp    %r9d,%r11d
    5a51:	0f 82 b2 00 00 00    	jb     5b09 <main+0x23b9>
    5a57:	45 89 cb             	mov    %r9d,%r11d
    5a5a:	46 8d 0c 17          	lea    (%rdi,%r10,1),%r9d
    5a5e:	41 83 c1 05          	add    $0x5,%r9d
    5a62:	46 8b 0c 8b          	mov    (%rbx,%r9,4),%r9d
    5a66:	45 39 d9             	cmp    %r11d,%r9d
    5a69:	0f 83 af 00 00 00    	jae    5b1e <main+0x23ce>
    5a6f:	46 8d 1c 17          	lea    (%rdi,%r10,1),%r11d
    5a73:	41 83 c3 06          	add    $0x6,%r11d
    5a77:	46 8b 1c 9b          	mov    (%rbx,%r11,4),%r11d
    5a7b:	45 39 cb             	cmp    %r9d,%r11d
    5a7e:	0f 82 b2 00 00 00    	jb     5b36 <main+0x23e6>
    5a84:	45 89 cb             	mov    %r9d,%r11d
    5a87:	46 8d 0c 17          	lea    (%rdi,%r10,1),%r9d
    5a8b:	41 83 c1 07          	add    $0x7,%r9d
    5a8f:	46 8b 0c 8b          	mov    (%rbx,%r9,4),%r9d
    5a93:	45 39 d9             	cmp    %r11d,%r9d
    5a96:	0f 82 44 ff ff ff    	jb     59e0 <main+0x2290>
    5a9c:	e9 aa 00 00 00       	jmp    5b4b <main+0x23fb>
    5aa1:	66 66 66 66 66 66 2e 	data16 data16 data16 data16 data16 cs nopw 0x0(%rax,%rax,1)
    5aa8:	0f 1f 84 00 00 00 00 
    5aaf:	00 
    5ab0:	46 8d 0c 17          	lea    (%rdi,%r10,1),%r9d
    5ab4:	41 ff c1             	inc    %r9d
    5ab7:	46 8b 0c 8b          	mov    (%rbx,%r9,4),%r9d
    5abb:	45 39 d9             	cmp    %r11d,%r9d
    5abe:	0f 82 51 ff ff ff    	jb     5a15 <main+0x22c5>
    5ac4:	45 89 d9             	mov    %r11d,%r9d
    5ac7:	46 8d 1c 17          	lea    (%rdi,%r10,1),%r11d
    5acb:	41 83 c3 02          	add    $0x2,%r11d
    5acf:	46 8b 1c 9b          	mov    (%rbx,%r11,4),%r11d
    5ad3:	45 39 cb             	cmp    %r9d,%r11d
    5ad6:	0f 83 4e ff ff ff    	jae    5a2a <main+0x22da>
    5adc:	46 8d 0c 17          	lea    (%rdi,%r10,1),%r9d
    5ae0:	41 83 c1 03          	add    $0x3,%r9d
    5ae4:	46 8b 0c 8b          	mov    (%rbx,%r9,4),%r9d
    5ae8:	45 39 d9             	cmp    %r11d,%r9d
    5aeb:	0f 82 51 ff ff ff    	jb     5a42 <main+0x22f2>
    5af1:	45 89 d9             	mov    %r11d,%r9d
    5af4:	46 8d 1c 17          	lea    (%rdi,%r10,1),%r11d
    5af8:	41 83 c3 04          	add    $0x4,%r11d
    5afc:	46 8b 1c 9b          	mov    (%rbx,%r11,4),%r11d
    5b00:	45 39 cb             	cmp    %r9d,%r11d
    5b03:	0f 83 4e ff ff ff    	jae    5a57 <main+0x2307>
    5b09:	46 8d 0c 17          	lea    (%rdi,%r10,1),%r9d
    5b0d:	41 83 c1 05          	add    $0x5,%r9d
    5b11:	46 8b 0c 8b          	mov    (%rbx,%r9,4),%r9d
    5b15:	45 39 d9             	cmp    %r11d,%r9d
    5b18:	0f 82 51 ff ff ff    	jb     5a6f <main+0x231f>
    5b1e:	45 89 d9             	mov    %r11d,%r9d
    5b21:	46 8d 1c 17          	lea    (%rdi,%r10,1),%r11d
    5b25:	41 83 c3 06          	add    $0x6,%r11d
    5b29:	46 8b 1c 9b          	mov    (%rbx,%r11,4),%r11d
    5b2d:	45 39 cb             	cmp    %r9d,%r11d
    5b30:	0f 83 4e ff ff ff    	jae    5a84 <main+0x2334>
    5b36:	46 8d 0c 17          	lea    (%rdi,%r10,1),%r9d
    5b3a:	41 83 c1 07          	add    $0x7,%r9d
    5b3e:	46 8b 0c 8b          	mov    (%rbx,%r9,4),%r9d
    5b42:	45 39 d9             	cmp    %r11d,%r9d
    5b45:	0f 82 95 fe ff ff    	jb     59e0 <main+0x2290>
    5b4b:	45 89 d9             	mov    %r11d,%r9d
    5b4e:	e9 8d fe ff ff       	jmp    59e0 <main+0x2290>
    5b53:	66 66 66 66 2e 0f 1f 	data16 data16 data16 cs nopw 0x0(%rax,%rax,1)
    5b5a:	84 00 00 00 00 00 
    5b60:	41 83 fc 20          	cmp    $0x20,%r12d
    5b64:	73 08                	jae    5b6e <main+0x241e>
    5b66:	45 31 d2             	xor    %r10d,%r10d
    5b69:	e9 96 00 00 00       	jmp    5c04 <main+0x24b4>
    5b6e:	62 d2 7d 28 7c c1    	vpbroadcastd %r9d,%ymm0
    5b74:	41 89 f9             	mov    %edi,%r9d
    5b77:	49 89 ca             	mov    %rcx,%r10
    5b7a:	c5 fd 6f c8          	vmovdqa %ymm0,%ymm1
    5b7e:	c5 fd 6f d0          	vmovdqa %ymm0,%ymm2
    5b82:	c5 fd 6f d8          	vmovdqa %ymm0,%ymm3
    5b86:	66 2e 0f 1f 84 00 00 	cs nopw 0x0(%rax,%rax,1)
    5b8d:	00 00 00 
    5b90:	45 89 cb             	mov    %r9d,%r11d
    5b93:	c4 a2 7d 3b 04 9b    	vpminud (%rbx,%r11,4),%ymm0,%ymm0
    5b99:	c4 a2 75 3b 4c 9b 20 	vpminud 0x20(%rbx,%r11,4),%ymm1,%ymm1
    5ba0:	c4 a2 6d 3b 54 9b 40 	vpminud 0x40(%rbx,%r11,4),%ymm2,%ymm2
    5ba7:	c4 a2 65 3b 5c 9b 60 	vpminud 0x60(%rbx,%r11,4),%ymm3,%ymm3
    5bae:	41 83 c1 20          	add    $0x20,%r9d
    5bb2:	49 83 c2 e0          	add    $0xffffffffffffffe0,%r10
    5bb6:	75 d8                	jne    5b90 <main+0x2440>
    5bb8:	c4 e2 7d 3b c1       	vpminud %ymm1,%ymm0,%ymm0
    5bbd:	c4 e2 6d 3b cb       	vpminud %ymm3,%ymm2,%ymm1
    5bc2:	c4 e2 7d 3b c1       	vpminud %ymm1,%ymm0,%ymm0
    5bc7:	c4 e3 7d 39 c1 01    	vextracti128 $0x1,%ymm0,%xmm1
    5bcd:	c4 e2 79 3b c1       	vpminud %xmm1,%xmm0,%xmm0
    5bd2:	c5 f9 70 c8 ee       	vpshufd $0xee,%xmm0,%xmm1
    5bd7:	c4 e2 79 3b c1       	vpminud %xmm1,%xmm0,%xmm0
    5bdc:	c5 f9 70 c8 55       	vpshufd $0x55,%xmm0,%xmm1
    5be1:	c4 e2 79 3b c1       	vpminud %xmm1,%xmm0,%xmm0
    5be6:	c4 c1 79 7e c1       	vmovd  %xmm0,%r9d
    5beb:	44 39 e1             	cmp    %r12d,%ecx
    5bee:	0f 84 6c fd ff ff    	je     5960 <main+0x2210>
    5bf4:	49 89 cb             	mov    %rcx,%r11
    5bf7:	49 89 ca             	mov    %rcx,%r10
    5bfa:	41 f6 c4 1c          	test   $0x1c,%r12b
    5bfe:	0f 84 96 fd ff ff    	je     599a <main+0x224a>
    5c04:	62 d2 7d 08 7c c1    	vpbroadcastd %r9d,%xmm0
    5c0a:	4e 8d 0c 16          	lea    (%rsi,%r10,1),%r9
    5c0e:	41 01 fa             	add    %edi,%r10d
    5c11:	66 66 66 66 66 66 2e 	data16 data16 data16 data16 data16 cs nopw 0x0(%rax,%rax,1)
    5c18:	0f 1f 84 00 00 00 00 
    5c1f:	00 
    5c20:	45 89 d3             	mov    %r10d,%r11d
    5c23:	c4 a2 79 3b 04 9b    	vpminud (%rbx,%r11,4),%xmm0,%xmm0
    5c29:	41 83 c2 04          	add    $0x4,%r10d
    5c2d:	49 83 c1 04          	add    $0x4,%r9
    5c31:	75 ed                	jne    5c20 <main+0x24d0>
    5c33:	c5 f9 70 c8 ee       	vpshufd $0xee,%xmm0,%xmm1
    5c38:	c4 e2 79 3b c1       	vpminud %xmm1,%xmm0,%xmm0
    5c3d:	c5 f9 70 c8 55       	vpshufd $0x55,%xmm0,%xmm1
    5c42:	c4 e2 79 3b c1       	vpminud %xmm1,%xmm0,%xmm0
    5c47:	c4 c1 79 7e c1       	vmovd  %xmm0,%r9d
    5c4c:	49 89 d3             	mov    %rdx,%r11
    5c4f:	44 39 e2             	cmp    %r12d,%edx
    5c52:	0f 84 08 fd ff ff    	je     5960 <main+0x2210>
    5c58:	e9 3d fd ff ff       	jmp    599a <main+0x224a>
    5c5d:	62 d1 5e 08 7b c1    	vcvtusi2ss %r9d,%xmm4,%xmm0
    5c63:	c5 fa 11 44 24 10    	vmovss %xmm0,0x10(%rsp)
    5c69:	c5 f8 77             	vzeroupper
    5c6c:	e8 ef c4 ff ff       	call   2160 <log2f@plt>
    5c71:	c5 fa 11 44 24 20    	vmovss %xmm0,0x20(%rsp)
    5c77:	62 f1 5e 08 7b c5    	vcvtusi2ss %ebp,%xmm4,%xmm0
    5c7d:	c5 fa 5e 44 24 10    	vdivss 0x10(%rsp),%xmm0,%xmm0
    5c83:	e8 d8 c4 ff ff       	call   2160 <log2f@plt>
    5c88:	48 8b 84 24 a0 00 00 	mov    0xa0(%rsp),%rax
    5c8f:	00 
    5c90:	48 85 c0             	test   %rax,%rax
    5c93:	74 49                	je     5cde <main+0x258e>
    5c95:	c5 fa 11 44 24 10    	vmovss %xmm0,0x10(%rsp)
    5c9b:	44 8d 2c 40          	lea    (%rax,%rax,2),%r13d
    5c9f:	4c 89 ef             	mov    %r13,%rdi
    5ca2:	e8 59 c4 ff ff       	call   2100 <_Znwm@plt>
    5ca7:	49 89 c6             	mov    %rax,%r14
    5caa:	48 89 84 24 b0 00 00 	mov    %rax,0xb0(%rsp)
    5cb1:	00 
    5cb2:	4c 01 e8             	add    %r13,%rax
    5cb5:	48 89 84 24 c0 00 00 	mov    %rax,0xc0(%rsp)
    5cbc:	00 
    5cbd:	41 c6 06 00          	movb   $0x0,(%r14)
    5cc1:	4c 89 f7             	mov    %r14,%rdi
    5cc4:	48 ff c7             	inc    %rdi
    5cc7:	49 ff cd             	dec    %r13
    5cca:	74 4a                	je     5d16 <main+0x25c6>
    5ccc:	31 f6                	xor    %esi,%esi
    5cce:	4c 89 ea             	mov    %r13,%rdx
    5cd1:	49 89 c5             	mov    %rax,%r13
    5cd4:	e8 c7 c3 ff ff       	call   20a0 <memset@plt>
    5cd9:	4c 89 ef             	mov    %r13,%rdi
    5cdc:	eb 3b                	jmp    5d19 <main+0x25c9>
    5cde:	c5 f0 57 c9          	vxorps %xmm1,%xmm1,%xmm1
    5ce2:	c5 f8 29 8c 24 b0 00 	vmovaps %xmm1,0xb0(%rsp)
    5ce9:	00 00 
    5ceb:	48 c7 84 24 c0 00 00 	movq   $0x0,0xc0(%rsp)
    5cf2:	00 00 00 00 00 
    5cf7:	45 31 ed             	xor    %r13d,%r13d
    5cfa:	45 31 f6             	xor    %r14d,%r14d
    5cfd:	31 ff                	xor    %edi,%edi
    5cff:	48 89 bc 24 b8 00 00 	mov    %rdi,0xb8(%rsp)
    5d06:	00 
    5d07:	4d 85 e4             	test   %r12,%r12
    5d0a:	4c 89 6c 24 28       	mov    %r13,0x28(%rsp)
    5d0f:	75 24                	jne    5d35 <main+0x25e5>
    5d11:	e9 10 02 00 00       	jmp    5f26 <main+0x27d6>
    5d16:	49 89 c5             	mov    %rax,%r13
    5d19:	c5 fa 10 44 24 10    	vmovss 0x10(%rsp),%xmm0
    5d1f:	48 89 bc 24 b8 00 00 	mov    %rdi,0xb8(%rsp)
    5d26:	00 
    5d27:	4d 85 e4             	test   %r12,%r12
    5d2a:	4c 89 6c 24 28       	mov    %r13,0x28(%rsp)
    5d2f:	0f 84 f1 01 00 00    	je     5f26 <main+0x27d6>
    5d35:	44 89 e0             	mov    %r12d,%eax
    5d38:	83 e0 fe             	and    $0xfffffffe,%eax
    5d3b:	48 89 44 24 18       	mov    %rax,0x18(%rsp)
    5d40:	c5 fa 10 0d bc 32 00 	vmovss 0x32bc(%rip),%xmm1        # 9004 <_IO_stdin_used+0x4>
    5d47:	00 
    5d48:	c5 f2 5e c0          	vdivss %xmm0,%xmm1,%xmm0
    5d4c:	c5 fa 11 44 24 10    	vmovss %xmm0,0x10(%rsp)
    5d52:	43 8d 04 64          	lea    (%r12,%r12,2),%eax
    5d56:	89 44 24 78          	mov    %eax,0x78(%rsp)
    5d5a:	31 c9                	xor    %ecx,%ecx
    5d5c:	ba 05 00 00 00       	mov    $0x5,%edx
    5d61:	be 01 00 00 00       	mov    $0x1,%esi
    5d66:	eb 77                	jmp    5ddf <main+0x268f>
    5d68:	0f 1f 84 00 00 00 00 	nopl   0x0(%rax,%rax,1)
    5d6f:	00 
    5d70:	62 f1 5e 08 7b c0    	vcvtusi2ss %eax,%xmm4,%xmm0
    5d76:	e8 e5 c3 ff ff       	call   2160 <log2f@plt>
    5d7b:	c5 fa 5c 44 24 20    	vsubss 0x20(%rsp),%xmm0,%xmm0
    5d81:	c5 fa 59 05 8f 32 00 	vmulss 0x328f(%rip),%xmm0,%xmm0        # 9018 <_IO_stdin_used+0x18>
    5d88:	00 
    5d89:	c5 fa 59 44 24 10    	vmulss 0x10(%rsp),%xmm0,%xmm0
    5d8f:	c5 fa 2c c0          	vcvttss2si %xmm0,%eax
    5d93:	04 20                	add    $0x20,%al
    5d95:	b1 20                	mov    $0x20,%cl
    5d97:	43 8d 14 7f          	lea    (%r15,%r15,2),%edx
    5d9b:	41 88 0c 16          	mov    %cl,(%r14,%rdx,1)
    5d9f:	43 8d 14 7f          	lea    (%r15,%r15,2),%edx
    5da3:	ff c2                	inc    %edx
    5da5:	41 88 04 16          	mov    %al,(%r14,%rdx,1)
    5da9:	43 8d 44 7f 02       	lea    0x2(%r15,%r15,2),%eax
    5dae:	41 88 0c 06          	mov    %cl,(%r14,%rax,1)
    5db2:	4c 8b 7c 24 08       	mov    0x8(%rsp),%r15
    5db7:	48 8b 44 24 50       	mov    0x50(%rsp),%rax
    5dbc:	4c 89 e9             	mov    %r13,%rcx
    5dbf:	8b 54 24 68          	mov    0x68(%rsp),%edx
    5dc3:	8b 74 24 58          	mov    0x58(%rsp),%esi
    5dc7:	4c 8b 6c 24 28       	mov    0x28(%rsp),%r13
    5dcc:	ff c1                	inc    %ecx
    5dce:	03 54 24 78          	add    0x78(%rsp),%edx
    5dd2:	01 c6                	add    %eax,%esi
    5dd4:	39 c1                	cmp    %eax,%ecx
    5dd6:	49 89 c4             	mov    %rax,%r12
    5dd9:	0f 84 47 01 00 00    	je     5f26 <main+0x27d6>
    5ddf:	4c 89 e0             	mov    %r12,%rax
    5de2:	41 bc 00 00 00 00    	mov    $0x0,%r12d
    5de8:	48 83 f8 01          	cmp    $0x1,%rax
    5dec:	89 54 24 68          	mov    %edx,0x68(%rsp)
    5df0:	89 74 24 58          	mov    %esi,0x58(%rsp)
    5df4:	0f 84 fd 00 00 00    	je     5ef7 <main+0x27a7>
    5dfa:	48 89 4c 24 60       	mov    %rcx,0x60(%rsp)
    5dff:	41 89 f7             	mov    %esi,%r15d
    5e02:	41 89 d5             	mov    %edx,%r13d
    5e05:	45 31 e4             	xor    %r12d,%r12d
    5e08:	eb 57                	jmp    5e61 <main+0x2711>
    5e0a:	66 0f 1f 44 00 00    	nopw   0x0(%rax,%rax,1)
    5e10:	62 f1 5e 08 7b c0    	vcvtusi2ss %eax,%xmm4,%xmm0
    5e16:	e8 45 c3 ff ff       	call   2160 <log2f@plt>
    5e1b:	c5 fa 5c 44 24 20    	vsubss 0x20(%rsp),%xmm0,%xmm0
    5e21:	c5 fa 59 05 ef 31 00 	vmulss 0x31ef(%rip),%xmm0,%xmm0        # 9018 <_IO_stdin_used+0x18>
    5e28:	00 
    5e29:	c5 fa 59 44 24 10    	vmulss 0x10(%rsp),%xmm0,%xmm0
    5e2f:	c5 fa 2c c0          	vcvttss2si %xmm0,%eax
    5e33:	04 20                	add    $0x20,%al
    5e35:	b1 20                	mov    $0x20,%cl
    5e37:	41 8d 55 fe          	lea    -0x2(%r13),%edx
    5e3b:	41 88 0c 16          	mov    %cl,(%r14,%rdx,1)
    5e3f:	41 8d 55 ff          	lea    -0x1(%r13),%edx
    5e43:	41 88 04 16          	mov    %al,(%r14,%rdx,1)
    5e47:	44 89 e8             	mov    %r13d,%eax
    5e4a:	41 88 0c 06          	mov    %cl,(%r14,%rax,1)
    5e4e:	49 83 c4 02          	add    $0x2,%r12
    5e52:	41 83 c5 06          	add    $0x6,%r13d
    5e56:	41 83 c7 02          	add    $0x2,%r15d
    5e5a:	4c 39 64 24 18       	cmp    %r12,0x18(%rsp)
    5e5f:	74 7f                	je     5ee0 <main+0x2790>
    5e61:	41 8d 47 ff          	lea    -0x1(%r15),%eax
    5e65:	8b 04 83             	mov    (%rbx,%rax,4),%eax
    5e68:	39 e8                	cmp    %ebp,%eax
    5e6a:	73 34                	jae    5ea0 <main+0x2750>
    5e6c:	62 f1 5e 08 7b c0    	vcvtusi2ss %eax,%xmm4,%xmm0
    5e72:	e8 e9 c2 ff ff       	call   2160 <log2f@plt>
    5e77:	c5 fa 5c 44 24 20    	vsubss 0x20(%rsp),%xmm0,%xmm0
    5e7d:	c5 fa 59 05 93 31 00 	vmulss 0x3193(%rip),%xmm0,%xmm0        # 9018 <_IO_stdin_used+0x18>
    5e84:	00 
    5e85:	c5 fa 59 44 24 10    	vmulss 0x10(%rsp),%xmm0,%xmm0
    5e8b:	c5 fa 2c c0          	vcvttss2si %xmm0,%eax
    5e8f:	04 20                	add    $0x20,%al
    5e91:	b1 20                	mov    $0x20,%cl
    5e93:	eb 0f                	jmp    5ea4 <main+0x2754>
    5e95:	66 66 2e 0f 1f 84 00 	data16 cs nopw 0x0(%rax,%rax,1)
    5e9c:	00 00 00 00 
    5ea0:	31 c0                	xor    %eax,%eax
    5ea2:	31 c9                	xor    %ecx,%ecx
    5ea4:	41 8d 55 fb          	lea    -0x5(%r13),%edx
    5ea8:	41 88 0c 16          	mov    %cl,(%r14,%rdx,1)
    5eac:	41 8d 55 fc          	lea    -0x4(%r13),%edx
    5eb0:	41 88 04 16          	mov    %al,(%r14,%rdx,1)
    5eb4:	41 8d 45 fd          	lea    -0x3(%r13),%eax
    5eb8:	41 88 0c 06          	mov    %cl,(%r14,%rax,1)
    5ebc:	44 89 f8             	mov    %r15d,%eax
    5ebf:	8b 04 83             	mov    (%rbx,%rax,4),%eax
    5ec2:	39 e8                	cmp    %ebp,%eax
    5ec4:	0f 82 46 ff ff ff    	jb     5e10 <main+0x26c0>
    5eca:	31 c0                	xor    %eax,%eax
    5ecc:	31 c9                	xor    %ecx,%ecx
    5ece:	e9 64 ff ff ff       	jmp    5e37 <main+0x26e7>
    5ed3:	66 66 66 66 2e 0f 1f 	data16 data16 data16 cs nopw 0x0(%rax,%rax,1)
    5eda:	84 00 00 00 00 00 
    5ee0:	4c 8b 7c 24 08       	mov    0x8(%rsp),%r15
    5ee5:	4c 8b 6c 24 28       	mov    0x28(%rsp),%r13
    5eea:	48 8b 4c 24 60       	mov    0x60(%rsp),%rcx
    5eef:	8b 54 24 68          	mov    0x68(%rsp),%edx
    5ef3:	8b 74 24 58          	mov    0x58(%rsp),%esi
    5ef7:	48 8b 44 24 50       	mov    0x50(%rsp),%rax
    5efc:	a8 01                	test   $0x1,%al
    5efe:	0f 84 c8 fe ff ff    	je     5dcc <main+0x267c>
    5f04:	49 89 cd             	mov    %rcx,%r13
    5f07:	41 89 cf             	mov    %ecx,%r15d
    5f0a:	44 0f af f8          	imul   %eax,%r15d
    5f0e:	45 01 e7             	add    %r12d,%r15d
    5f11:	42 8b 04 bb          	mov    (%rbx,%r15,4),%eax
    5f15:	39 e8                	cmp    %ebp,%eax
    5f17:	0f 82 53 fe ff ff    	jb     5d70 <main+0x2620>
    5f1d:	31 c0                	xor    %eax,%eax
    5f1f:	31 c9                	xor    %ecx,%ecx
    5f21:	e9 71 fe ff ff       	jmp    5d97 <main+0x2647>
    5f26:	48 8d 3d 16 35 00 00 	lea    0x3516(%rip),%rdi        # 9443 <_IO_stdin_used+0x443>
    5f2d:	48 8d 94 24 b0 00 00 	lea    0xb0(%rsp),%rdx
    5f34:	00 
    5f35:	44 89 e6             	mov    %r12d,%esi
    5f38:	e8 f3 cd ff ff       	call   2d30 <_Z8writeBMPPKcjRKSt6vectorIhSaIhEE>
    5f3d:	4d 85 f6             	test   %r14,%r14
    5f40:	74 0e                	je     5f50 <main+0x2800>
    5f42:	4d 29 f5             	sub    %r14,%r13
    5f45:	4c 89 f7             	mov    %r14,%rdi
    5f48:	4c 89 ee             	mov    %r13,%rsi
    5f4b:	e8 c0 c1 ff ff       	call   2110 <_ZdlPvm@plt>
    5f50:	48 8b 3d 61 50 00 00 	mov    0x5061(%rip),%rdi        # afb8 <_ZSt4cout@GLIBCXX_3.4>
    5f57:	48 8d 35 8a 34 00 00 	lea    0x348a(%rip),%rsi        # 93e8 <_IO_stdin_used+0x3e8>
    5f5e:	ba 3a 00 00 00       	mov    $0x3a,%edx
    5f63:	e8 c8 c1 ff ff       	call   2130 <_ZSt16__ostream_insertIcSt11char_traitsIcEERSt13basic_ostreamIT_T0_ES6_PKS3_l@plt>
    5f68:	8b 44 24 74          	mov    0x74(%rsp),%eax
    5f6c:	48 85 c0             	test   %rax,%rax
    5f6f:	0f 84 c4 02 00 00    	je     6239 <main+0x2ae9>
    5f75:	48 8d 48 ff          	lea    -0x1(%rax),%rcx
    5f79:	89 c2                	mov    %eax,%edx
    5f7b:	83 e2 f0             	and    $0xfffffff0,%edx
    5f7e:	48 89 54 24 18       	mov    %rdx,0x18(%rsp)
    5f83:	89 c2                	mov    %eax,%edx
    5f85:	83 e2 fc             	and    $0xfffffffc,%edx
    5f88:	89 c7                	mov    %eax,%edi
    5f8a:	83 e7 03             	and    $0x3,%edi
    5f8d:	48 89 54 24 20       	mov    %rdx,0x20(%rsp)
    5f92:	48 f7 da             	neg    %rdx
    5f95:	48 89 54 24 10       	mov    %rdx,0x10(%rsp)
    5f9a:	45 31 c9             	xor    %r9d,%r9d
    5f9d:	45 31 d2             	xor    %r10d,%r10d
    5fa0:	45 31 db             	xor    %r11d,%r11d
    5fa3:	eb 1d                	jmp    5fc2 <main+0x2872>
    5fa5:	48 8b 54 24 08       	mov    0x8(%rsp),%rdx
    5faa:	66 0f 1f 44 00 00    	nopw   0x0(%rax,%rax,1)
    5fb0:	41 ff c2             	inc    %r10d
    5fb3:	49 01 c1             	add    %rax,%r9
    5fb6:	41 39 c2             	cmp    %eax,%r10d
    5fb9:	49 89 d7             	mov    %rdx,%r15
    5fbc:	0f 84 70 02 00 00    	je     6232 <main+0x2ae2>
    5fc2:	83 f8 03             	cmp    $0x3,%eax
    5fc5:	76 22                	jbe    5fe9 <main+0x2899>
    5fc7:	48 89 ce             	mov    %rcx,%rsi
    5fca:	48 c1 ee 20          	shr    $0x20,%rsi
    5fce:	40 0f 95 c6          	setne  %sil
    5fd2:	41 89 c0             	mov    %eax,%r8d
    5fd5:	45 0f af c2          	imul   %r10d,%r8d
    5fd9:	41 01 c8             	add    %ecx,%r8d
    5fdc:	41 0f 92 c0          	setb   %r8b
    5fe0:	41 08 f0             	or     %sil,%r8b
    5fe3:	0f 84 f7 00 00 00    	je     60e0 <main+0x2990>
    5fe9:	45 31 ff             	xor    %r15d,%r15d
    5fec:	48 85 ff             	test   %rdi,%rdi
    5fef:	74 3f                	je     6030 <main+0x28e0>
    5ff1:	49 89 fc             	mov    %rdi,%r12
    5ff4:	4d 89 fe             	mov    %r15,%r14
    5ff7:	48 8b 54 24 08       	mov    0x8(%rsp),%rdx
    5ffc:	0f 1f 40 00          	nopl   0x0(%rax)
    6000:	47 8d 2c 31          	lea    (%r9,%r14,1),%r13d
    6004:	42 8b 34 ab          	mov    (%rbx,%r13,4),%esi
    6008:	46 8b 2c aa          	mov    (%rdx,%r13,4),%r13d
    600c:	41 89 f0             	mov    %esi,%r8d
    600f:	45 29 e8             	sub    %r13d,%r8d
    6012:	41 29 f5             	sub    %esi,%r13d
    6015:	45 0f 4c e8          	cmovl  %r8d,%r13d
    6019:	4d 01 eb             	add    %r13,%r11
    601c:	49 ff c6             	inc    %r14
    601f:	49 ff cc             	dec    %r12
    6022:	75 dc                	jne    6000 <main+0x28b0>
    6024:	49 29 c7             	sub    %rax,%r15
    6027:	49 83 ff fc          	cmp    $0xfffffffffffffffc,%r15
    602b:	76 23                	jbe    6050 <main+0x2900>
    602d:	eb 81                	jmp    5fb0 <main+0x2860>
    602f:	90                   	nop
    6030:	4d 89 fe             	mov    %r15,%r14
    6033:	48 8b 54 24 08       	mov    0x8(%rsp),%rdx
    6038:	49 29 c7             	sub    %rax,%r15
    603b:	49 83 ff fc          	cmp    $0xfffffffffffffffc,%r15
    603f:	0f 87 6b ff ff ff    	ja     5fb0 <main+0x2860>
    6045:	66 66 2e 0f 1f 84 00 	data16 cs nopw 0x0(%rax,%rax,1)
    604c:	00 00 00 00 
    6050:	43 8d 34 31          	lea    (%r9,%r14,1),%esi
    6054:	44 8b 04 b3          	mov    (%rbx,%rsi,4),%r8d
    6058:	44 8b 3c b2          	mov    (%rdx,%rsi,4),%r15d
    605c:	44 89 c6             	mov    %r8d,%esi
    605f:	44 29 fe             	sub    %r15d,%esi
    6062:	45 29 c7             	sub    %r8d,%r15d
    6065:	44 0f 4c fe          	cmovl  %esi,%r15d
    6069:	4d 01 df             	add    %r11,%r15
    606c:	43 8d 34 31          	lea    (%r9,%r14,1),%esi
    6070:	ff c6                	inc    %esi
    6072:	44 8b 04 b3          	mov    (%rbx,%rsi,4),%r8d
    6076:	8b 34 b2             	mov    (%rdx,%rsi,4),%esi
    6079:	45 89 c3             	mov    %r8d,%r11d
    607c:	41 29 f3             	sub    %esi,%r11d
    607f:	44 29 c6             	sub    %r8d,%esi
    6082:	41 0f 4c f3          	cmovl  %r11d,%esi
    6086:	47 8d 44 31 02       	lea    0x2(%r9,%r14,1),%r8d
    608b:	46 8b 1c 83          	mov    (%rbx,%r8,4),%r11d
    608f:	46 8b 04 82          	mov    (%rdx,%r8,4),%r8d
    6093:	45 89 dc             	mov    %r11d,%r12d
    6096:	45 29 c4             	sub    %r8d,%r12d
    6099:	45 29 d8             	sub    %r11d,%r8d
    609c:	45 0f 4c c4          	cmovl  %r12d,%r8d
    60a0:	49 01 f0             	add    %rsi,%r8
    60a3:	4d 01 f8             	add    %r15,%r8
    60a6:	43 8d 34 31          	lea    (%r9,%r14,1),%esi
    60aa:	83 c6 03             	add    $0x3,%esi
    60ad:	44 8b 3c b3          	mov    (%rbx,%rsi,4),%r15d
    60b1:	44 8b 1c b2          	mov    (%rdx,%rsi,4),%r11d
    60b5:	44 89 fe             	mov    %r15d,%esi
    60b8:	44 29 de             	sub    %r11d,%esi
    60bb:	45 29 fb             	sub    %r15d,%r11d
    60be:	44 0f 4c de          	cmovl  %esi,%r11d
    60c2:	4d 01 c3             	add    %r8,%r11
    60c5:	49 83 c6 04          	add    $0x4,%r14
    60c9:	4c 39 f0             	cmp    %r14,%rax
    60cc:	75 82                	jne    6050 <main+0x2900>
    60ce:	e9 dd fe ff ff       	jmp    5fb0 <main+0x2860>
    60d3:	66 66 66 66 2e 0f 1f 	data16 data16 data16 cs nopw 0x0(%rax,%rax,1)
    60da:	84 00 00 00 00 00 
    60e0:	83 f8 10             	cmp    $0x10,%eax
    60e3:	73 0b                	jae    60f0 <main+0x29a0>
    60e5:	45 31 f6             	xor    %r14d,%r14d
    60e8:	4c 89 fa             	mov    %r15,%rdx
    60eb:	e9 d6 00 00 00       	jmp    61c6 <main+0x2a76>
    60f0:	c4 c1 f9 6e c3       	vmovq  %r11,%xmm0
    60f5:	c5 f0 57 c9          	vxorps %xmm1,%xmm1,%xmm1
    60f9:	45 89 cb             	mov    %r9d,%r11d
    60fc:	48 8b 54 24 18       	mov    0x18(%rsp),%rdx
    6101:	49 89 d6             	mov    %rdx,%r14
    6104:	c5 e8 57 d2          	vxorps %xmm2,%xmm2,%xmm2
    6108:	c5 e0 57 db          	vxorps %xmm3,%xmm3,%xmm3
    610c:	0f 1f 40 00          	nopl   0x0(%rax)
    6110:	44 89 de             	mov    %r11d,%esi
    6113:	c5 fa 6f 24 b3       	vmovdqu (%rbx,%rsi,4),%xmm4
    6118:	c5 fa 6f 6c b3 10    	vmovdqu 0x10(%rbx,%rsi,4),%xmm5
    611e:	c5 fa 6f 74 b3 20    	vmovdqu 0x20(%rbx,%rsi,4),%xmm6
    6124:	c5 fa 6f 7c b3 30    	vmovdqu 0x30(%rbx,%rsi,4),%xmm7
    612a:	c4 c1 59 fa 24 b7    	vpsubd (%r15,%rsi,4),%xmm4,%xmm4
    6130:	c4 c1 51 fa 6c b7 10 	vpsubd 0x10(%r15,%rsi,4),%xmm5,%xmm5
    6137:	c4 c1 49 fa 74 b7 20 	vpsubd 0x20(%r15,%rsi,4),%xmm6,%xmm6
    613e:	c4 c1 41 fa 7c b7 30 	vpsubd 0x30(%r15,%rsi,4),%xmm7,%xmm7
    6145:	c4 e2 79 1e e4       	vpabsd %xmm4,%xmm4
    614a:	c4 e2 79 1e ed       	vpabsd %xmm5,%xmm5
    614f:	c4 e2 79 1e f6       	vpabsd %xmm6,%xmm6
    6154:	c4 e2 79 1e ff       	vpabsd %xmm7,%xmm7
    6159:	c4 e2 7d 35 e4       	vpmovzxdq %xmm4,%ymm4
    615e:	c5 fd d4 c4          	vpaddq %ymm4,%ymm0,%ymm0
    6162:	c4 e2 7d 35 e5       	vpmovzxdq %xmm5,%ymm4
    6167:	c5 f5 d4 cc          	vpaddq %ymm4,%ymm1,%ymm1
    616b:	c4 e2 7d 35 e6       	vpmovzxdq %xmm6,%ymm4
    6170:	c5 ed d4 d4          	vpaddq %ymm4,%ymm2,%ymm2
    6174:	c4 e2 7d 35 e7       	vpmovzxdq %xmm7,%ymm4
    6179:	c5 e5 d4 dc          	vpaddq %ymm4,%ymm3,%ymm3
    617d:	41 83 c3 10          	add    $0x10,%r11d
    6181:	49 83 c6 f0          	add    $0xfffffffffffffff0,%r14
    6185:	75 89                	jne    6110 <main+0x29c0>
    6187:	c5 f5 d4 c0          	vpaddq %ymm0,%ymm1,%ymm0
    618b:	c5 ed d4 c0          	vpaddq %ymm0,%ymm2,%ymm0
    618f:	c5 e5 d4 c0          	vpaddq %ymm0,%ymm3,%ymm0
    6193:	c4 e3 7d 39 c1 01    	vextracti128 $0x1,%ymm0,%xmm1
    6199:	c5 f9 d4 c1          	vpaddq %xmm1,%xmm0,%xmm0
    619d:	c5 f9 70 c8 ee       	vpshufd $0xee,%xmm0,%xmm1
    61a2:	c5 f9 d4 c1          	vpaddq %xmm1,%xmm0,%xmm0
    61a6:	c4 c1 f9 7e c3       	vmovq  %xmm0,%r11
    61ab:	39 c2                	cmp    %eax,%edx
    61ad:	0f 84 f2 fd ff ff    	je     5fa5 <main+0x2855>
    61b3:	49 89 d7             	mov    %rdx,%r15
    61b6:	49 89 d6             	mov    %rdx,%r14
    61b9:	a8 0c                	test   $0xc,%al
    61bb:	48 8b 54 24 08       	mov    0x8(%rsp),%rdx
    61c0:	0f 84 26 fe ff ff    	je     5fec <main+0x289c>
    61c6:	c4 c1 f9 6e c3       	vmovq  %r11,%xmm0
    61cb:	48 8b 74 24 10       	mov    0x10(%rsp),%rsi
    61d0:	4e 8d 1c 36          	lea    (%rsi,%r14,1),%r11
    61d4:	45 01 ce             	add    %r9d,%r14d
    61d7:	66 0f 1f 84 00 00 00 	nopw   0x0(%rax,%rax,1)
    61de:	00 00 
    61e0:	44 89 f6             	mov    %r14d,%esi
    61e3:	c5 fa 6f 0c b3       	vmovdqu (%rbx,%rsi,4),%xmm1
    61e8:	c5 f1 fa 0c b2       	vpsubd (%rdx,%rsi,4),%xmm1,%xmm1
    61ed:	c4 e2 79 1e c9       	vpabsd %xmm1,%xmm1
    61f2:	c4 e2 7d 35 c9       	vpmovzxdq %xmm1,%ymm1
    61f7:	c5 fd d4 c1          	vpaddq %ymm1,%ymm0,%ymm0
    61fb:	41 83 c6 04          	add    $0x4,%r14d
    61ff:	49 83 c3 04          	add    $0x4,%r11
    6203:	75 db                	jne    61e0 <main+0x2a90>
    6205:	c4 e3 7d 39 c1 01    	vextracti128 $0x1,%ymm0,%xmm1
    620b:	c5 f9 d4 c1          	vpaddq %xmm1,%xmm0,%xmm0
    620f:	c5 f9 70 c8 ee       	vpshufd $0xee,%xmm0,%xmm1
    6214:	c5 f9 d4 c1          	vpaddq %xmm1,%xmm0,%xmm0
    6218:	c4 c1 f9 7e c3       	vmovq  %xmm0,%r11
    621d:	48 8b 74 24 20       	mov    0x20(%rsp),%rsi
    6222:	49 89 f7             	mov    %rsi,%r15
    6225:	39 c6                	cmp    %eax,%esi
    6227:	0f 84 83 fd ff ff    	je     5fb0 <main+0x2860>
    622d:	e9 ba fd ff ff       	jmp    5fec <main+0x289c>
    6232:	c4 c1 bb 2a c3       	vcvtsi2sd %r11,%xmm8,%xmm0
    6237:	eb 04                	jmp    623d <main+0x2aed>
    6239:	c5 f9 57 c0          	vxorpd %xmm0,%xmm0,%xmm0
    623d:	0f af e8             	imul   %eax,%ebp
    6240:	0f af e8             	imul   %eax,%ebp
    6243:	62 f1 3f 08 7b cd    	vcvtusi2sd %ebp,%xmm8,%xmm1
    6249:	c5 fb 5e c1          	vdivsd %xmm1,%xmm0,%xmm0
    624d:	48 8b 3d 64 4d 00 00 	mov    0x4d64(%rip),%rdi        # afb8 <_ZSt4cout@GLIBCXX_3.4>
    6254:	c5 f8 77             	vzeroupper
    6257:	e8 64 bf ff ff       	call   21c0 <_ZNSo9_M_insertIdEERSoT_@plt>
    625c:	49 89 c6             	mov    %rax,%r14
    625f:	48 8b 00             	mov    (%rax),%rax
    6262:	48 8b 40 e8          	mov    -0x18(%rax),%rax
    6266:	4d 8b a4 06 f0 00 00 	mov    0xf0(%r14,%rax,1),%r12
    626d:	00 
    626e:	4d 85 e4             	test   %r12,%r12
    6271:	0f 84 64 1c 00 00    	je     7edb <main+0x478b>
    6277:	41 80 7c 24 38 00    	cmpb   $0x0,0x38(%r12)
    627d:	74 08                	je     6287 <main+0x2b37>
    627f:	41 0f b6 44 24 43    	movzbl 0x43(%r12),%eax
    6285:	eb 17                	jmp    629e <main+0x2b4e>
    6287:	4c 89 e7             	mov    %r12,%rdi
    628a:	e8 b1 be ff ff       	call   2140 <_ZNKSt5ctypeIcE13_M_widen_initEv@plt>
    628f:	49 8b 04 24          	mov    (%r12),%rax
    6293:	4c 89 e7             	mov    %r12,%rdi
    6296:	be 0a 00 00 00       	mov    $0xa,%esi
    629b:	ff 50 30             	call   *0x30(%rax)
    629e:	0f be f0             	movsbl %al,%esi
    62a1:	4c 89 f7             	mov    %r14,%rdi
    62a4:	e8 87 bd ff ff       	call   2030 <_ZNSo3putEc@plt>
    62a9:	48 89 c7             	mov    %rax,%rdi
    62ac:	e8 0f be ff ff       	call   20c0 <_ZNSo5flushEv@plt>
    62b1:	8b 8c 24 84 00 00 00 	mov    0x84(%rsp),%ecx
    62b8:	89 c8                	mov    %ecx,%eax
    62ba:	83 e0 fd             	and    $0xfffffffd,%eax
    62bd:	83 f8 04             	cmp    $0x4,%eax
    62c0:	0f 85 e6 0d 00 00    	jne    70ac <main+0x395c>
    62c6:	44 8b 7c 24 74       	mov    0x74(%rsp),%r15d
    62cb:	4c 89 fa             	mov    %r15,%rdx
    62ce:	49 0f af d7          	imul   %r15,%rdx
    62d2:	48 c1 e2 02          	shl    $0x2,%rdx
    62d6:	48 89 df             	mov    %rbx,%rdi
    62d9:	31 f6                	xor    %esi,%esi
    62db:	e8 c0 bd ff ff       	call   20a0 <memset@plt>
    62e0:	48 8b 05 d1 4c 00 00 	mov    0x4cd1(%rip),%rax        # afb8 <_ZSt4cout@GLIBCXX_3.4>
    62e7:	48 8b 08             	mov    (%rax),%rcx
    62ea:	48 8b 49 e8          	mov    -0x18(%rcx),%rcx
    62ee:	4c 8b b4 08 f0 00 00 	mov    0xf0(%rax,%rcx,1),%r14
    62f5:	00 
    62f6:	4d 85 f6             	test   %r14,%r14
    62f9:	0f 84 dc 1b 00 00    	je     7edb <main+0x478b>
    62ff:	41 80 7e 38 00       	cmpb   $0x0,0x38(%r14)
    6304:	74 07                	je     630d <main+0x2bbd>
    6306:	41 0f b6 46 43       	movzbl 0x43(%r14),%eax
    630b:	eb 16                	jmp    6323 <main+0x2bd3>
    630d:	4c 89 f7             	mov    %r14,%rdi
    6310:	e8 2b be ff ff       	call   2140 <_ZNKSt5ctypeIcE13_M_widen_initEv@plt>
    6315:	49 8b 06             	mov    (%r14),%rax
    6318:	4c 89 f7             	mov    %r14,%rdi
    631b:	be 0a 00 00 00       	mov    $0xa,%esi
    6320:	ff 50 30             	call   *0x30(%rax)
    6323:	0f be f0             	movsbl %al,%esi
    6326:	48 8b 3d 8b 4c 00 00 	mov    0x4c8b(%rip),%rdi        # afb8 <_ZSt4cout@GLIBCXX_3.4>
    632d:	e8 fe bc ff ff       	call   2030 <_ZNSo3putEc@plt>
    6332:	48 89 c7             	mov    %rax,%rdi
    6335:	e8 86 bd ff ff       	call   20c0 <_ZNSo5flushEv@plt>
    633a:	49 89 c6             	mov    %rax,%r14
    633d:	48 8d 35 15 30 00 00 	lea    0x3015(%rip),%rsi        # 9359 <_IO_stdin_used+0x359>
    6344:	ba 08 00 00 00       	mov    $0x8,%edx
    6349:	48 89 c7             	mov    %rax,%rdi
    634c:	e8 df bd ff ff       	call   2130 <_ZSt16__ostream_insertIcSt11char_traitsIcEERSt13basic_ostreamIT_T0_ES6_PKS3_l@plt>
    6351:	48 8d 35 13 31 00 00 	lea    0x3113(%rip),%rsi        # 946b <_IO_stdin_used+0x46b>
    6358:	ba 2b 00 00 00       	mov    $0x2b,%edx
    635d:	4c 89 f7             	mov    %r14,%rdi
    6360:	e8 cb bd ff ff       	call   2130 <_ZSt16__ostream_insertIcSt11char_traitsIcEERSt13basic_ostreamIT_T0_ES6_PKS3_l@plt>
    6365:	48 8d 35 0c 30 00 00 	lea    0x300c(%rip),%rsi        # 9378 <_IO_stdin_used+0x378>
    636c:	ba 05 00 00 00       	mov    $0x5,%edx
    6371:	4c 89 f7             	mov    %r14,%rdi
    6374:	e8 b7 bd ff ff       	call   2130 <_ZSt16__ostream_insertIcSt11char_traitsIcEERSt13basic_ostreamIT_T0_ES6_PKS3_l@plt>
    6379:	bf 50 00 00 00       	mov    $0x50,%edi
    637e:	e8 7d bd ff ff       	call   2100 <_Znwm@plt>
    6383:	49 89 c6             	mov    %rax,%r14
    6386:	c5 f8 57 c0          	vxorps %xmm0,%xmm0,%xmm0
    638a:	c5 fc 11 40 30       	vmovups %ymm0,0x30(%rax)
    638f:	c5 fc 11 40 20       	vmovups %ymm0,0x20(%rax)
    6394:	c5 fc 11 00          	vmovups %ymm0,(%rax)
    6398:	c5 f8 77             	vzeroupper
    639b:	e8 a0 bc ff ff       	call   2040 <_ZNSt6chrono3_V212system_clock3nowEv@plt>
    63a0:	49 89 c4             	mov    %rax,%r12
    63a3:	e8 98 bc ff ff       	call   2040 <_ZNSt6chrono3_V212system_clock3nowEv@plt>
    63a8:	4c 29 e0             	sub    %r12,%rax
    63ab:	62 f1 9f 08 7b c0    	vcvtusi2sd %rax,%xmm12,%xmm0
    63b1:	c4 c1 7b 11 06       	vmovsd %xmm0,(%r14)
    63b6:	e8 85 bc ff ff       	call   2040 <_ZNSt6chrono3_V212system_clock3nowEv@plt>
    63bb:	49 89 c4             	mov    %rax,%r12
    63be:	e8 7d bc ff ff       	call   2040 <_ZNSt6chrono3_V212system_clock3nowEv@plt>
    63c3:	4c 29 e0             	sub    %r12,%rax
    63c6:	62 f1 9f 08 7b c0    	vcvtusi2sd %rax,%xmm12,%xmm0
    63cc:	c4 c1 7b 11 46 08    	vmovsd %xmm0,0x8(%r14)
    63d2:	e8 69 bc ff ff       	call   2040 <_ZNSt6chrono3_V212system_clock3nowEv@plt>
    63d7:	49 89 c4             	mov    %rax,%r12
    63da:	e8 61 bc ff ff       	call   2040 <_ZNSt6chrono3_V212system_clock3nowEv@plt>
    63df:	4c 29 e0             	sub    %r12,%rax
    63e2:	62 f1 9f 08 7b c0    	vcvtusi2sd %rax,%xmm12,%xmm0
    63e8:	c4 c1 7b 11 46 10    	vmovsd %xmm0,0x10(%r14)
    63ee:	e8 4d bc ff ff       	call   2040 <_ZNSt6chrono3_V212system_clock3nowEv@plt>
    63f3:	49 89 c4             	mov    %rax,%r12
    63f6:	e8 45 bc ff ff       	call   2040 <_ZNSt6chrono3_V212system_clock3nowEv@plt>
    63fb:	4c 29 e0             	sub    %r12,%rax
    63fe:	62 f1 9f 08 7b c0    	vcvtusi2sd %rax,%xmm12,%xmm0
    6404:	c4 c1 7b 11 46 18    	vmovsd %xmm0,0x18(%r14)
    640a:	e8 31 bc ff ff       	call   2040 <_ZNSt6chrono3_V212system_clock3nowEv@plt>
    640f:	49 89 c4             	mov    %rax,%r12
    6412:	e8 29 bc ff ff       	call   2040 <_ZNSt6chrono3_V212system_clock3nowEv@plt>
    6417:	4c 29 e0             	sub    %r12,%rax
    641a:	62 f1 9f 08 7b c0    	vcvtusi2sd %rax,%xmm12,%xmm0
    6420:	c4 c1 7b 11 46 20    	vmovsd %xmm0,0x20(%r14)
    6426:	e8 15 bc ff ff       	call   2040 <_ZNSt6chrono3_V212system_clock3nowEv@plt>
    642b:	49 89 c4             	mov    %rax,%r12
    642e:	e8 0d bc ff ff       	call   2040 <_ZNSt6chrono3_V212system_clock3nowEv@plt>
    6433:	4c 29 e0             	sub    %r12,%rax
    6436:	62 f1 9f 08 7b c0    	vcvtusi2sd %rax,%xmm12,%xmm0
    643c:	c4 c1 7b 11 46 28    	vmovsd %xmm0,0x28(%r14)
    6442:	e8 f9 bb ff ff       	call   2040 <_ZNSt6chrono3_V212system_clock3nowEv@plt>
    6447:	49 89 c4             	mov    %rax,%r12
    644a:	e8 f1 bb ff ff       	call   2040 <_ZNSt6chrono3_V212system_clock3nowEv@plt>
    644f:	4c 29 e0             	sub    %r12,%rax
    6452:	62 f1 ef 08 7b c0    	vcvtusi2sd %rax,%xmm2,%xmm0
    6458:	c4 c1 7b 11 46 30    	vmovsd %xmm0,0x30(%r14)
    645e:	e8 dd bb ff ff       	call   2040 <_ZNSt6chrono3_V212system_clock3nowEv@plt>
    6463:	49 89 c4             	mov    %rax,%r12
    6466:	e8 d5 bb ff ff       	call   2040 <_ZNSt6chrono3_V212system_clock3nowEv@plt>
    646b:	4c 29 e0             	sub    %r12,%rax
    646e:	62 f1 ef 08 7b c0    	vcvtusi2sd %rax,%xmm2,%xmm0
    6474:	c4 c1 7b 11 46 38    	vmovsd %xmm0,0x38(%r14)
    647a:	e8 c1 bb ff ff       	call   2040 <_ZNSt6chrono3_V212system_clock3nowEv@plt>
    647f:	49 89 c4             	mov    %rax,%r12
    6482:	e8 b9 bb ff ff       	call   2040 <_ZNSt6chrono3_V212system_clock3nowEv@plt>
    6487:	4c 29 e0             	sub    %r12,%rax
    648a:	62 f1 f7 08 7b c0    	vcvtusi2sd %rax,%xmm1,%xmm0
    6490:	c4 c1 7b 11 46 40    	vmovsd %xmm0,0x40(%r14)
    6496:	e8 a5 bb ff ff       	call   2040 <_ZNSt6chrono3_V212system_clock3nowEv@plt>
    649b:	49 89 c4             	mov    %rax,%r12
    649e:	e8 9d bb ff ff       	call   2040 <_ZNSt6chrono3_V212system_clock3nowEv@plt>
    64a3:	4c 29 e0             	sub    %r12,%rax
    64a6:	62 f1 f7 08 7b c0    	vcvtusi2sd %rax,%xmm1,%xmm0
    64ac:	c4 c1 7b 11 46 48    	vmovsd %xmm0,0x48(%r14)
    64b2:	4d 89 f4             	mov    %r14,%r12
    64b5:	49 83 c4 50          	add    $0x50,%r12
    64b9:	ba 06 00 00 00       	mov    $0x6,%edx
    64be:	4c 89 f7             	mov    %r14,%rdi
    64c1:	4c 89 e6             	mov    %r12,%rsi
    64c4:	e8 f7 1b 00 00       	call   80c0 <_ZSt16__introsort_loopIN9__gnu_cxx17__normal_iteratorIPdSt6vectorIdSaIdEEEElNS0_5__ops15_Iter_less_iterEEvT_S9_T0_T1_>
    64c9:	4c 89 f7             	mov    %r14,%rdi
    64cc:	4c 89 e6             	mov    %r12,%rsi
    64cf:	e8 8c 1e 00 00       	call   8360 <_ZSt22__final_insertion_sortIN9__gnu_cxx17__normal_iteratorIPdSt6vectorIdSaIdEEEENS0_5__ops15_Iter_less_iterEEvT_S9_T0_>
    64d4:	48 8d bc 24 b0 00 00 	lea    0xb0(%rsp),%rdi
    64db:	00 
    64dc:	e8 ef bb ff ff       	call   20d0 <_ZNSt7__cxx1118basic_stringstreamIcSt11char_traitsIcESaIcEEC1Ev@plt>
    64e1:	4c 89 7c 24 28       	mov    %r15,0x28(%rsp)
    64e6:	48 8d bc 24 c0 00 00 	lea    0xc0(%rsp),%rdi
    64ed:	00 
    64ee:	48 8b 84 24 c0 00 00 	mov    0xc0(%rsp),%rax
    64f5:	00 
    64f6:	48 8b 48 e8          	mov    -0x18(%rax),%rcx
    64fa:	ba fb fe ff ff       	mov    $0xfffffefb,%edx
    64ff:	23 94 0c d8 00 00 00 	and    0xd8(%rsp,%rcx,1),%edx
    6506:	83 ca 04             	or     $0x4,%edx
    6509:	89 94 0c d8 00 00 00 	mov    %edx,0xd8(%rsp,%rcx,1)
    6510:	48 8b 48 e8          	mov    -0x18(%rax),%rcx
    6514:	48 c7 84 0c d0 00 00 	movq   $0x6,0xd0(%rsp,%rcx,1)
    651b:	00 06 00 00 00 
    6520:	48 8b 40 e8          	mov    -0x18(%rax),%rax
    6524:	48 c7 84 04 c8 00 00 	movq   $0x2,0xc8(%rsp,%rax,1)
    652b:	00 02 00 00 00 
    6530:	c4 c1 7b 10 06       	vmovsd (%r14),%xmm0
    6535:	c5 fb 59 05 1b 2d 00 	vmulsd 0x2d1b(%rip),%xmm0,%xmm0        # 9258 <_IO_stdin_used+0x258>
    653c:	00 
    653d:	e8 7e bc ff ff       	call   21c0 <_ZNSo9_M_insertIdEERSoT_@plt>
    6542:	48 8b 3d 6f 4a 00 00 	mov    0x4a6f(%rip),%rdi        # afb8 <_ZSt4cout@GLIBCXX_3.4>
    6549:	48 8d 35 2e 2e 00 00 	lea    0x2e2e(%rip),%rsi        # 937e <_IO_stdin_used+0x37e>
    6550:	ba 0b 00 00 00       	mov    $0xb,%edx
    6555:	e8 d6 bb ff ff       	call   2130 <_ZSt16__ostream_insertIcSt11char_traitsIcEERSt13basic_ostreamIT_T0_ES6_PKS3_l@plt>
    655a:	4c 8d 6c 24 40       	lea    0x40(%rsp),%r13
    655f:	4c 89 6c 24 30       	mov    %r13,0x30(%rsp)
    6564:	48 c7 44 24 38 00 00 	movq   $0x0,0x38(%rsp)
    656b:	00 00 
    656d:	c6 44 24 40 00       	movb   $0x0,0x40(%rsp)
    6572:	4c 8b 84 24 e0 00 00 	mov    0xe0(%rsp),%r8
    6579:	00 
    657a:	48 8b 84 24 f0 00 00 	mov    0xf0(%rsp),%rax
    6581:	00 
    6582:	48 85 c0             	test   %rax,%rax
    6585:	0f 94 c1             	sete   %cl
    6588:	4c 39 c0             	cmp    %r8,%rax
    658b:	4c 0f 47 c0          	cmova  %rax,%r8
    658f:	4d 85 c0             	test   %r8,%r8
    6592:	0f 94 c0             	sete   %al
    6595:	08 c8                	or     %cl,%al
    6597:	74 14                	je     65ad <main+0x2e5d>
    6599:	48 8d b4 24 10 01 00 	lea    0x110(%rsp),%rsi
    65a0:	00 
    65a1:	48 8d 7c 24 30       	lea    0x30(%rsp),%rdi
    65a6:	e8 c5 24 00 00       	call   8a70 <_ZNSt7__cxx1112basic_stringIcSt11char_traitsIcESaIcEE9_M_assignERKS4_>
    65ab:	eb 19                	jmp    65c6 <main+0x2e76>
    65ad:	48 8b 8c 24 e8 00 00 	mov    0xe8(%rsp),%rcx
    65b4:	00 
    65b5:	49 29 c8             	sub    %rcx,%r8
    65b8:	48 8d 7c 24 30       	lea    0x30(%rsp),%rdi
    65bd:	31 f6                	xor    %esi,%esi
    65bf:	31 d2                	xor    %edx,%edx
    65c1:	e8 da 21 00 00       	call   87a0 <_ZNSt7__cxx1112basic_stringIcSt11char_traitsIcESaIcEE10_M_replaceEmmPKcm>
    65c6:	48 8b 74 24 30       	mov    0x30(%rsp),%rsi
    65cb:	48 8b 54 24 38       	mov    0x38(%rsp),%rdx
    65d0:	48 8b 3d e1 49 00 00 	mov    0x49e1(%rip),%rdi        # afb8 <_ZSt4cout@GLIBCXX_3.4>
    65d7:	e8 54 bb ff ff       	call   2130 <_ZSt16__ostream_insertIcSt11char_traitsIcEERSt13basic_ostreamIT_T0_ES6_PKS3_l@plt>
    65dc:	49 89 c4             	mov    %rax,%r12
    65df:	48 8d 35 a4 2d 00 00 	lea    0x2da4(%rip),%rsi        # 938a <_IO_stdin_used+0x38a>
    65e6:	ba 03 00 00 00       	mov    $0x3,%edx
    65eb:	48 89 c7             	mov    %rax,%rdi
    65ee:	e8 3d bb ff ff       	call   2130 <_ZSt16__ostream_insertIcSt11char_traitsIcEERSt13basic_ostreamIT_T0_ES6_PKS3_l@plt>
    65f3:	49 8b 04 24          	mov    (%r12),%rax
    65f7:	48 8b 40 e8          	mov    -0x18(%rax),%rax
    65fb:	49 8b ac 04 f0 00 00 	mov    0xf0(%r12,%rax,1),%rbp
    6602:	00 
    6603:	48 85 ed             	test   %rbp,%rbp
    6606:	0f 84 e3 18 00 00    	je     7eef <main+0x479f>
    660c:	80 7d 38 00          	cmpb   $0x0,0x38(%rbp)
    6610:	74 06                	je     6618 <main+0x2ec8>
    6612:	0f b6 45 43          	movzbl 0x43(%rbp),%eax
    6616:	eb 17                	jmp    662f <main+0x2edf>
    6618:	48 89 ef             	mov    %rbp,%rdi
    661b:	e8 20 bb ff ff       	call   2140 <_ZNKSt5ctypeIcE13_M_widen_initEv@plt>
    6620:	48 8b 45 00          	mov    0x0(%rbp),%rax
    6624:	48 89 ef             	mov    %rbp,%rdi
    6627:	be 0a 00 00 00       	mov    $0xa,%esi
    662c:	ff 50 30             	call   *0x30(%rax)
    662f:	0f be f0             	movsbl %al,%esi
    6632:	4c 89 e7             	mov    %r12,%rdi
    6635:	e8 f6 b9 ff ff       	call   2030 <_ZNSo3putEc@plt>
    663a:	48 89 c7             	mov    %rax,%rdi
    663d:	e8 7e ba ff ff       	call   20c0 <_ZNSo5flushEv@plt>
    6642:	48 8b 7c 24 30       	mov    0x30(%rsp),%rdi
    6647:	4c 39 ef             	cmp    %r13,%rdi
    664a:	74 0d                	je     6659 <main+0x2f09>
    664c:	48 8b 74 24 40       	mov    0x40(%rsp),%rsi
    6651:	48 ff c6             	inc    %rsi
    6654:	e8 b7 ba ff ff       	call   2110 <_ZdlPvm@plt>
    6659:	4c 8b 3d 38 49 00 00 	mov    0x4938(%rip),%r15        # af98 <_ZTTNSt7__cxx1118basic_stringstreamIcSt11char_traitsIcESaIcEEE@GLIBCXX_3.4.21>
    6660:	49 8b 07             	mov    (%r15),%rax
    6663:	49 8b 4f 40          	mov    0x40(%r15),%rcx
    6667:	48 89 84 24 b0 00 00 	mov    %rax,0xb0(%rsp)
    666e:	00 
    666f:	48 8b 40 e8          	mov    -0x18(%rax),%rax
    6673:	48 89 8c 04 b0 00 00 	mov    %rcx,0xb0(%rsp,%rax,1)
    667a:	00 
    667b:	49 8b 47 48          	mov    0x48(%r15),%rax
    667f:	48 89 84 24 c0 00 00 	mov    %rax,0xc0(%rsp)
    6686:	00 
    6687:	48 8b 05 52 49 00 00 	mov    0x4952(%rip),%rax        # afe0 <_ZTVNSt7__cxx1115basic_stringbufIcSt11char_traitsIcESaIcEEE@GLIBCXX_3.4.21>
    668e:	48 83 c0 10          	add    $0x10,%rax
    6692:	48 89 84 24 c8 00 00 	mov    %rax,0xc8(%rsp)
    6699:	00 
    669a:	48 8b bc 24 10 01 00 	mov    0x110(%rsp),%rdi
    66a1:	00 
    66a2:	48 8d 84 24 20 01 00 	lea    0x120(%rsp),%rax
    66a9:	00 
    66aa:	48 39 c7             	cmp    %rax,%rdi
    66ad:	4c 8b 6c 24 28       	mov    0x28(%rsp),%r13
    66b2:	74 10                	je     66c4 <main+0x2f74>
    66b4:	48 8b b4 24 20 01 00 	mov    0x120(%rsp),%rsi
    66bb:	00 
    66bc:	48 ff c6             	inc    %rsi
    66bf:	e8 4c ba ff ff       	call   2110 <_ZdlPvm@plt>
