
/tmp/tmpp14h26ee/out:     file format elf64-x86-64


Disassembly of section .init:

0000000000002000 <_init>:
    2000:	f3 0f 1e fa          	endbr64
    2004:	48 83 ec 08          	sub    $0x8,%rsp
    2008:	48 8b 05 b9 af 00 00 	mov    0xafb9(%rip),%rax        # cfc8 <__gmon_start__@Base>
    200f:	48 85 c0             	test   %rax,%rax
    2012:	74 02                	je     2016 <_init+0x16>
    2014:	ff d0                	call   *%rax
    2016:	48 83 c4 08          	add    $0x8,%rsp
    201a:	c3                   	ret

Disassembly of section .plt:

0000000000002020 <_ZNSo3putEc@plt-0x10>:
    2020:	ff 35 ca af 00 00    	push   0xafca(%rip)        # cff0 <_GLOBAL_OFFSET_TABLE_+0x8>
    2026:	ff 25 cc af 00 00    	jmp    *0xafcc(%rip)        # cff8 <_GLOBAL_OFFSET_TABLE_+0x10>
    202c:	0f 1f 40 00          	nopl   0x0(%rax)

0000000000002030 <_ZNSo3putEc@plt>:
    2030:	ff 25 ca af 00 00    	jmp    *0xafca(%rip)        # d000 <_ZNSo3putEc@GLIBCXX_3.4>
    2036:	68 00 00 00 00       	push   $0x0
    203b:	e9 e0 ff ff ff       	jmp    2020 <_init+0x20>

0000000000002040 <_ZNSt6chrono3_V212system_clock3nowEv@plt>:
    2040:	ff 25 c2 af 00 00    	jmp    *0xafc2(%rip)        # d008 <_ZNSt6chrono3_V212system_clock3nowEv@GLIBCXX_3.4.19>
    2046:	68 01 00 00 00       	push   $0x1
    204b:	e9 d0 ff ff ff       	jmp    2020 <_init+0x20>

0000000000002050 <_ZNSt8ios_baseD2Ev@plt>:
    2050:	ff 25 ba af 00 00    	jmp    *0xafba(%rip)        # d010 <_ZNSt8ios_baseD2Ev@GLIBCXX_3.4>
    2056:	68 02 00 00 00       	push   $0x2
    205b:	e9 c0 ff ff ff       	jmp    2020 <_init+0x20>

0000000000002060 <_ZSt17__throw_bad_allocv@plt>:
    2060:	ff 25 b2 af 00 00    	jmp    *0xafb2(%rip)        # d018 <_ZSt17__throw_bad_allocv@GLIBCXX_3.4>
    2066:	68 03 00 00 00       	push   $0x3
    206b:	e9 b0 ff ff ff       	jmp    2020 <_init+0x20>

0000000000002070 <strlen@plt>:
    2070:	ff 25 aa af 00 00    	jmp    *0xafaa(%rip)        # d020 <strlen@GLIBC_2.2.5>
    2076:	68 04 00 00 00       	push   $0x4
    207b:	e9 a0 ff ff ff       	jmp    2020 <_init+0x20>

0000000000002080 <_ZSt4endlIcSt11char_traitsIcEERSt13basic_ostreamIT_T0_ES6_@plt>:
    2080:	ff 25 a2 af 00 00    	jmp    *0xafa2(%rip)        # d028 <_ZSt4endlIcSt11char_traitsIcEERSt13basic_ostreamIT_T0_ES6_@GLIBCXX_3.4>
    2086:	68 05 00 00 00       	push   $0x5
    208b:	e9 90 ff ff ff       	jmp    2020 <_init+0x20>

0000000000002090 <_ZSt20__throw_length_errorPKc@plt>:
    2090:	ff 25 9a af 00 00    	jmp    *0xaf9a(%rip)        # d030 <_ZSt20__throw_length_errorPKc@GLIBCXX_3.4>
    2096:	68 06 00 00 00       	push   $0x6
    209b:	e9 80 ff ff ff       	jmp    2020 <_init+0x20>

00000000000020a0 <memset@plt>:
    20a0:	ff 25 92 af 00 00    	jmp    *0xaf92(%rip)        # d038 <memset@GLIBC_2.2.5>
    20a6:	68 07 00 00 00       	push   $0x7
    20ab:	e9 70 ff ff ff       	jmp    2020 <_init+0x20>

00000000000020b0 <_ZNSo9_M_insertImEERSoT_@plt>:
    20b0:	ff 25 8a af 00 00    	jmp    *0xaf8a(%rip)        # d040 <_ZNSo9_M_insertImEERSoT_@GLIBCXX_3.4.9>
    20b6:	68 08 00 00 00       	push   $0x8
    20bb:	e9 60 ff ff ff       	jmp    2020 <_init+0x20>

00000000000020c0 <_ZNSo5flushEv@plt>:
    20c0:	ff 25 82 af 00 00    	jmp    *0xaf82(%rip)        # d048 <_ZNSo5flushEv@GLIBCXX_3.4>
    20c6:	68 09 00 00 00       	push   $0x9
    20cb:	e9 50 ff ff ff       	jmp    2020 <_init+0x20>

00000000000020d0 <_ZNSt7__cxx1118basic_stringstreamIcSt11char_traitsIcESaIcEEC1Ev@plt>:
    20d0:	ff 25 7a af 00 00    	jmp    *0xaf7a(%rip)        # d050 <_ZNSt7__cxx1118basic_stringstreamIcSt11char_traitsIcESaIcEEC1Ev@GLIBCXX_3.4.26>
    20d6:	68 0a 00 00 00       	push   $0xa
    20db:	e9 40 ff ff ff       	jmp    2020 <_init+0x20>

00000000000020e0 <_ZNSt7__cxx1118basic_stringstreamIcSt11char_traitsIcESaIcEED1Ev@plt>:
    20e0:	ff 25 72 af 00 00    	jmp    *0xaf72(%rip)        # d058 <_ZNSt7__cxx1118basic_stringstreamIcSt11char_traitsIcESaIcEED1Ev@GLIBCXX_3.4.21>
    20e6:	68 0b 00 00 00       	push   $0xb
    20eb:	e9 30 ff ff ff       	jmp    2020 <_init+0x20>

00000000000020f0 <memcpy@plt>:
    20f0:	ff 25 6a af 00 00    	jmp    *0xaf6a(%rip)        # d060 <memcpy@GLIBC_2.14>
    20f6:	68 0c 00 00 00       	push   $0xc
    20fb:	e9 20 ff ff ff       	jmp    2020 <_init+0x20>

0000000000002100 <pthread_join@plt>:
    2100:	ff 25 62 af 00 00    	jmp    *0xaf62(%rip)        # d068 <pthread_join@GLIBC_2.34>
    2106:	68 0d 00 00 00       	push   $0xd
    210b:	e9 10 ff ff ff       	jmp    2020 <_init+0x20>

0000000000002110 <_Znwm@plt>:
    2110:	ff 25 5a af 00 00    	jmp    *0xaf5a(%rip)        # d070 <_Znwm@GLIBCXX_3.4>
    2116:	68 0e 00 00 00       	push   $0xe
    211b:	e9 00 ff ff ff       	jmp    2020 <_init+0x20>

0000000000002120 <_ZdlPvm@plt>:
    2120:	ff 25 52 af 00 00    	jmp    *0xaf52(%rip)        # d078 <_ZdlPvm@CXXABI_1.3.9>
    2126:	68 0f 00 00 00       	push   $0xf
    212b:	e9 f0 fe ff ff       	jmp    2020 <_init+0x20>

0000000000002130 <_ZNSt14basic_ofstreamIcSt11char_traitsIcEEC1EPKcSt13_Ios_Openmode@plt>:
    2130:	ff 25 4a af 00 00    	jmp    *0xaf4a(%rip)        # d080 <_ZNSt14basic_ofstreamIcSt11char_traitsIcEEC1EPKcSt13_Ios_Openmode@GLIBCXX_3.4>
    2136:	68 10 00 00 00       	push   $0x10
    213b:	e9 e0 fe ff ff       	jmp    2020 <_init+0x20>

0000000000002140 <_ZSt16__ostream_insertIcSt11char_traitsIcEERSt13basic_ostreamIT_T0_ES6_PKS3_l@plt>:
    2140:	ff 25 42 af 00 00    	jmp    *0xaf42(%rip)        # d088 <_ZSt16__ostream_insertIcSt11char_traitsIcEERSt13basic_ostreamIT_T0_ES6_PKS3_l@GLIBCXX_3.4.9>
    2146:	68 11 00 00 00       	push   $0x11
    214b:	e9 d0 fe ff ff       	jmp    2020 <_init+0x20>

0000000000002150 <_ZNKSt5ctypeIcE13_M_widen_initEv@plt>:
    2150:	ff 25 3a af 00 00    	jmp    *0xaf3a(%rip)        # d090 <_ZNKSt5ctypeIcE13_M_widen_initEv@GLIBCXX_3.4.11>
    2156:	68 12 00 00 00       	push   $0x12
    215b:	e9 c0 fe ff ff       	jmp    2020 <_init+0x20>

0000000000002160 <_ZSt16__throw_bad_castv@plt>:
    2160:	ff 25 32 af 00 00    	jmp    *0xaf32(%rip)        # d098 <_ZSt16__throw_bad_castv@GLIBCXX_3.4>
    2166:	68 13 00 00 00       	push   $0x13
    216b:	e9 b0 fe ff ff       	jmp    2020 <_init+0x20>

0000000000002170 <log2f@plt>:
    2170:	ff 25 2a af 00 00    	jmp    *0xaf2a(%rip)        # d0a0 <log2f@GLIBC_2.27>
    2176:	68 14 00 00 00       	push   $0x14
    217b:	e9 a0 fe ff ff       	jmp    2020 <_init+0x20>

0000000000002180 <_ZNSo5writeEPKcl@plt>:
    2180:	ff 25 22 af 00 00    	jmp    *0xaf22(%rip)        # d0a8 <_ZNSo5writeEPKcl@GLIBCXX_3.4>
    2186:	68 15 00 00 00       	push   $0x15
    218b:	e9 90 fe ff ff       	jmp    2020 <_init+0x20>

0000000000002190 <_ZNSt7__cxx1112basic_stringIcSt11char_traitsIcESaIcEE15_M_replace_coldEPcmPKcmm@plt>:
    2190:	ff 25 1a af 00 00    	jmp    *0xaf1a(%rip)        # d0b0 <_ZNSt7__cxx1112basic_stringIcSt11char_traitsIcESaIcEE15_M_replace_coldEPcmPKcmm@GLIBCXX_3.4.31>
    2196:	68 16 00 00 00       	push   $0x16
    219b:	e9 80 fe ff ff       	jmp    2020 <_init+0x20>

00000000000021a0 <strcmp@plt>:
    21a0:	ff 25 12 af 00 00    	jmp    *0xaf12(%rip)        # d0b8 <strcmp@GLIBC_2.2.5>
    21a6:	68 17 00 00 00       	push   $0x17
    21ab:	e9 70 fe ff ff       	jmp    2020 <_init+0x20>

00000000000021b0 <_ZNSt6localeD1Ev@plt>:
    21b0:	ff 25 0a af 00 00    	jmp    *0xaf0a(%rip)        # d0c0 <_ZNSt6localeD1Ev@GLIBCXX_3.4>
    21b6:	68 18 00 00 00       	push   $0x18
    21bb:	e9 60 fe ff ff       	jmp    2020 <_init+0x20>

00000000000021c0 <_ZNSt14basic_ofstreamIcSt11char_traitsIcEED1Ev@plt>:
    21c0:	ff 25 02 af 00 00    	jmp    *0xaf02(%rip)        # d0c8 <_ZNSt14basic_ofstreamIcSt11char_traitsIcEED1Ev@GLIBCXX_3.4>
    21c6:	68 19 00 00 00       	push   $0x19
    21cb:	e9 50 fe ff ff       	jmp    2020 <_init+0x20>

00000000000021d0 <_ZNSo9_M_insertIdEERSoT_@plt>:
    21d0:	ff 25 fa ae 00 00    	jmp    *0xaefa(%rip)        # d0d0 <_ZNSo9_M_insertIdEERSoT_@GLIBCXX_3.4.9>
    21d6:	68 1a 00 00 00       	push   $0x1a
    21db:	e9 40 fe ff ff       	jmp    2020 <_init+0x20>

00000000000021e0 <memmove@plt>:
    21e0:	ff 25 f2 ae 00 00    	jmp    *0xaef2(%rip)        # d0d8 <memmove@GLIBC_2.2.5>
    21e6:	68 1b 00 00 00       	push   $0x1b
    21eb:	e9 30 fe ff ff       	jmp    2020 <_init+0x20>

00000000000021f0 <_ZNSt9basic_iosIcSt11char_traitsIcEE5clearESt12_Ios_Iostate@plt>:
    21f0:	ff 25 ea ae 00 00    	jmp    *0xaeea(%rip)        # d0e0 <_ZNSt9basic_iosIcSt11char_traitsIcEE5clearESt12_Ios_Iostate@GLIBCXX_3.4>
    21f6:	68 1c 00 00 00       	push   $0x1c
    21fb:	e9 20 fe ff ff       	jmp    2020 <_init+0x20>

0000000000002200 <_Unwind_Resume@plt>:
    2200:	ff 25 e2 ae 00 00    	jmp    *0xaee2(%rip)        # d0e8 <_Unwind_Resume@GCC_3.0>
    2206:	68 1d 00 00 00       	push   $0x1d
    220b:	e9 10 fe ff ff       	jmp    2020 <_init+0x20>

0000000000002210 <pthread_create@plt>:
    2210:	ff 25 da ae 00 00    	jmp    *0xaeda(%rip)        # d0f0 <pthread_create@GLIBC_2.34>
    2216:	68 1e 00 00 00       	push   $0x1e
    221b:	e9 00 fe ff ff       	jmp    2020 <_init+0x20>

0000000000002220 <__isoc23_strtol@plt>:
    2220:	ff 25 d2 ae 00 00    	jmp    *0xaed2(%rip)        # d0f8 <__isoc23_strtol@GLIBC_2.38>
    2226:	68 1f 00 00 00       	push   $0x1f
    222b:	e9 f0 fd ff ff       	jmp    2020 <_init+0x20>

Disassembly of section .plt.got:

0000000000002230 <__cxa_finalize@plt>:
    2230:	ff 25 6a ad 00 00    	jmp    *0xad6a(%rip)        # cfa0 <__cxa_finalize@GLIBC_2.2.5>
    2236:	66 90                	xchg   %ax,%ax

Disassembly of section .text:

0000000000002240 <set_fast_math>:
    2240:	f3 0f 1e fa          	endbr64
    2244:	55                   	push   %rbp
    2245:	48 89 e5             	mov    %rsp,%rbp
    2248:	0f ae 5d fc          	stmxcsr -0x4(%rbp)
    224c:	81 4d fc 40 80 00 00 	orl    $0x8040,-0x4(%rbp)
    2253:	0f ae 55 fc          	ldmxcsr -0x4(%rbp)
    2257:	5d                   	pop    %rbp
    2258:	c3                   	ret
    2259:	0f 1f 80 00 00 00 00 	nopl   0x0(%rax)

0000000000002260 <_start>:
    2260:	f3 0f 1e fa          	endbr64
    2264:	31 ed                	xor    %ebp,%ebp
    2266:	49 89 d1             	mov    %rdx,%r9
    2269:	5e                   	pop    %rsi
    226a:	48 89 e2             	mov    %rsp,%rdx
    226d:	48 83 e4 f0          	and    $0xfffffffffffffff0,%rsp
    2271:	50                   	push   %rax
    2272:	54                   	push   %rsp
    2273:	45 31 c0             	xor    %r8d,%r8d
    2276:	31 c9                	xor    %ecx,%ecx
    2278:	48 8d 3d 21 1e 00 00 	lea    0x1e21(%rip),%rdi        # 40a0 <main>
    227f:	ff 15 2b ad 00 00    	call   *0xad2b(%rip)        # cfb0 <__libc_start_main@GLIBC_2.34>
    2285:	f4                   	hlt
    2286:	66 2e 0f 1f 84 00 00 	cs nopw 0x0(%rax,%rax,1)
    228d:	00 00 00 

0000000000002290 <deregister_tm_clones>:
    2290:	48 8d 3d 81 ae 00 00 	lea    0xae81(%rip),%rdi        # d118 <__TMC_END__>
    2297:	48 8d 05 7a ae 00 00 	lea    0xae7a(%rip),%rax        # d118 <__TMC_END__>
    229e:	48 39 f8             	cmp    %rdi,%rax
    22a1:	74 15                	je     22b8 <deregister_tm_clones+0x28>
    22a3:	48 8b 05 16 ad 00 00 	mov    0xad16(%rip),%rax        # cfc0 <_ITM_deregisterTMCloneTable@Base>
    22aa:	48 85 c0             	test   %rax,%rax
    22ad:	74 09                	je     22b8 <deregister_tm_clones+0x28>
    22af:	ff e0                	jmp    *%rax
    22b1:	0f 1f 80 00 00 00 00 	nopl   0x0(%rax)
    22b8:	c3                   	ret
    22b9:	0f 1f 80 00 00 00 00 	nopl   0x0(%rax)

00000000000022c0 <register_tm_clones>:
    22c0:	48 8d 3d 51 ae 00 00 	lea    0xae51(%rip),%rdi        # d118 <__TMC_END__>
    22c7:	48 8d 35 4a ae 00 00 	lea    0xae4a(%rip),%rsi        # d118 <__TMC_END__>
    22ce:	48 29 fe             	sub    %rdi,%rsi
    22d1:	48 89 f0             	mov    %rsi,%rax
    22d4:	48 c1 ee 3f          	shr    $0x3f,%rsi
    22d8:	48 c1 f8 03          	sar    $0x3,%rax
    22dc:	48 01 c6             	add    %rax,%rsi
    22df:	48 d1 fe             	sar    $1,%rsi
    22e2:	74 14                	je     22f8 <register_tm_clones+0x38>
    22e4:	48 8b 05 e5 ac 00 00 	mov    0xace5(%rip),%rax        # cfd0 <_ITM_registerTMCloneTable@Base>
    22eb:	48 85 c0             	test   %rax,%rax
    22ee:	74 08                	je     22f8 <register_tm_clones+0x38>
    22f0:	ff e0                	jmp    *%rax
    22f2:	66 0f 1f 44 00 00    	nopw   0x0(%rax,%rax,1)
    22f8:	c3                   	ret
    22f9:	0f 1f 80 00 00 00 00 	nopl   0x0(%rax)

0000000000002300 <__do_global_dtors_aux>:
    2300:	f3 0f 1e fa          	endbr64
    2304:	80 3d 0d ae 00 00 00 	cmpb   $0x0,0xae0d(%rip)        # d118 <__TMC_END__>
    230b:	75 2b                	jne    2338 <__do_global_dtors_aux+0x38>
    230d:	55                   	push   %rbp
    230e:	48 83 3d 8a ac 00 00 	cmpq   $0x0,0xac8a(%rip)        # cfa0 <__cxa_finalize@GLIBC_2.2.5>
    2315:	00 
    2316:	48 89 e5             	mov    %rsp,%rbp
    2319:	74 0c                	je     2327 <__do_global_dtors_aux+0x27>
    231b:	48 8b 3d e6 ad 00 00 	mov    0xade6(%rip),%rdi        # d108 <__dso_handle>
    2322:	e8 09 ff ff ff       	call   2230 <__cxa_finalize@plt>
    2327:	e8 64 ff ff ff       	call   2290 <deregister_tm_clones>
    232c:	c6 05 e5 ad 00 00 01 	movb   $0x1,0xade5(%rip)        # d118 <__TMC_END__>
    2333:	5d                   	pop    %rbp
    2334:	c3                   	ret
    2335:	0f 1f 00             	nopl   (%rax)
    2338:	c3                   	ret
    2339:	0f 1f 80 00 00 00 00 	nopl   0x0(%rax)

0000000000002340 <frame_dummy>:
    2340:	f3 0f 1e fa          	endbr64
    2344:	e9 77 ff ff ff       	jmp    22c0 <register_tm_clones>
    2349:	0f 1f 80 00 00 00 00 	nopl   0x0(%rax)

0000000000002350 <_Z21mandelbrot_cpu_scalarjjPj>:
    2350:	53                   	push   %rbx
    2351:	85 ff                	test   %edi,%edi
    2353:	0f 84 d5 01 00 00    	je     252e <_Z21mandelbrot_cpu_scalarjjPj+0x1de>
    2359:	89 f8                	mov    %edi,%eax
    235b:	85 f6                	test   %esi,%esi
    235d:	0f 84 cd 01 00 00    	je     2530 <_Z21mandelbrot_cpu_scalarjjPj+0x1e0>
    2363:	62 f1 7e 08 7b c7    	vcvtusi2ss %edi,%xmm0,%xmm0
    2369:	c5 fa 10 0d 93 8c 00 	vmovss 0x8c93(%rip),%xmm1        # b004 <_IO_stdin_used+0x4>
    2370:	00 
    2371:	c5 f2 5e c0          	vdivss %xmm0,%xmm1,%xmm0
    2375:	89 c1                	mov    %eax,%ecx
    2377:	83 e1 fe             	and    $0xfffffffe,%ecx
    237a:	45 31 c0             	xor    %r8d,%r8d
    237d:	c5 fa 10 0d 83 8c 00 	vmovss 0x8c83(%rip),%xmm1        # b008 <_IO_stdin_used+0x8>
    2384:	00 
    2385:	c5 fa 10 15 7f 8c 00 	vmovss 0x8c7f(%rip),%xmm2        # b00c <_IO_stdin_used+0xc>
    238c:	00 
    238d:	c5 fa 10 1d 7b 8c 00 	vmovss 0x8c7b(%rip),%xmm3        # b010 <_IO_stdin_used+0x10>
    2394:	00 
    2395:	c5 fa 10 25 77 8c 00 	vmovss 0x8c77(%rip),%xmm4        # b014 <_IO_stdin_used+0x14>
    239c:	00 
    239d:	eb 11                	jmp    23b0 <_Z21mandelbrot_cpu_scalarjjPj+0x60>
    239f:	90                   	nop
    23a0:	47 89 1c 91          	mov    %r11d,(%r9,%r10,4)
    23a4:	49 ff c0             	inc    %r8
    23a7:	49 39 c0             	cmp    %rax,%r8
    23aa:	0f 84 7e 01 00 00    	je     252e <_Z21mandelbrot_cpu_scalarjjPj+0x1de>
    23b0:	c4 c1 9a 2a e8       	vcvtsi2ss %r8,%xmm12,%xmm5
    23b5:	4d 89 c1             	mov    %r8,%r9
    23b8:	4c 0f af c8          	imul   %rax,%r9
    23bc:	c5 d2 59 e9          	vmulss %xmm1,%xmm5,%xmm5
    23c0:	c4 e2 79 a9 ea       	vfmadd213ss %xmm2,%xmm0,%xmm5
    23c5:	4e 8d 0c 8a          	lea    (%rdx,%r9,4),%r9
    23c9:	45 31 d2             	xor    %r10d,%r10d
    23cc:	83 ff 01             	cmp    $0x1,%edi
    23cf:	0f 85 78 00 00 00    	jne    244d <_Z21mandelbrot_cpu_scalarjjPj+0xfd>
    23d5:	a8 01                	test   $0x1,%al
    23d7:	74 cb                	je     23a4 <_Z21mandelbrot_cpu_scalarjjPj+0x54>
    23d9:	c4 c1 9a 2a f2       	vcvtsi2ss %r10,%xmm12,%xmm6
    23de:	c5 ca 59 f1          	vmulss %xmm1,%xmm6,%xmm6
    23e2:	c4 e2 79 a9 f3       	vfmadd213ss %xmm3,%xmm0,%xmm6
    23e7:	45 31 db             	xor    %r11d,%r11d
    23ea:	c4 41 30 57 c9       	vxorps %xmm9,%xmm9,%xmm9
    23ef:	c4 41 28 57 d2       	vxorps %xmm10,%xmm10,%xmm10
    23f4:	c5 c0 57 ff          	vxorps %xmm7,%xmm7,%xmm7
    23f8:	c4 41 38 57 c0       	vxorps %xmm8,%xmm8,%xmm8
    23fd:	0f 1f 00             	nopl   (%rax)
    2400:	c4 41 2a 5c c9       	vsubss %xmm9,%xmm10,%xmm9
    2405:	c5 ba 5c ff          	vsubss %xmm7,%xmm8,%xmm7
    2409:	c5 4a 58 d7          	vaddss %xmm7,%xmm6,%xmm10
    240d:	c5 32 58 dd          	vaddss %xmm5,%xmm9,%xmm11
    2411:	c4 41 2a 59 c2       	vmulss %xmm10,%xmm10,%xmm8
    2416:	c4 c1 22 59 fb       	vmulss %xmm11,%xmm11,%xmm7
    241b:	41 ff c3             	inc    %r11d
    241e:	c5 3a 58 cf          	vaddss %xmm7,%xmm8,%xmm9
    2422:	c5 78 2e cc          	vucomiss %xmm4,%xmm9
    2426:	0f 87 74 ff ff ff    	ja     23a0 <_Z21mandelbrot_cpu_scalarjjPj+0x50>
    242c:	c4 41 22 58 d2       	vaddss %xmm10,%xmm11,%xmm10
    2431:	c4 41 2a 59 d2       	vmulss %xmm10,%xmm10,%xmm10
    2436:	41 39 f3             	cmp    %esi,%r11d
    2439:	72 c5                	jb     2400 <_Z21mandelbrot_cpu_scalarjjPj+0xb0>
    243b:	e9 60 ff ff ff       	jmp    23a0 <_Z21mandelbrot_cpu_scalarjjPj+0x50>
    2440:	43 89 1c 99          	mov    %ebx,(%r9,%r11,4)
    2444:	49 83 c2 02          	add    $0x2,%r10
    2448:	49 39 ca             	cmp    %rcx,%r10
    244b:	74 88                	je     23d5 <_Z21mandelbrot_cpu_scalarjjPj+0x85>
    244d:	c4 c1 9a 2a f2       	vcvtsi2ss %r10,%xmm12,%xmm6
    2452:	c5 ca 59 f1          	vmulss %xmm1,%xmm6,%xmm6
    2456:	c4 e2 79 a9 f3       	vfmadd213ss %xmm3,%xmm0,%xmm6
    245b:	45 31 db             	xor    %r11d,%r11d
    245e:	c4 41 30 57 c9       	vxorps %xmm9,%xmm9,%xmm9
    2463:	c4 41 28 57 d2       	vxorps %xmm10,%xmm10,%xmm10
    2468:	c5 c0 57 ff          	vxorps %xmm7,%xmm7,%xmm7
    246c:	c4 41 38 57 c0       	vxorps %xmm8,%xmm8,%xmm8
    2471:	66 66 66 66 66 66 2e 	data16 data16 data16 data16 data16 cs nopw 0x0(%rax,%rax,1)
    2478:	0f 1f 84 00 00 00 00 
    247f:	00 
    2480:	c4 41 2a 5c c9       	vsubss %xmm9,%xmm10,%xmm9
    2485:	c5 ba 5c ff          	vsubss %xmm7,%xmm8,%xmm7
    2489:	c5 4a 58 d7          	vaddss %xmm7,%xmm6,%xmm10
    248d:	c5 32 58 dd          	vaddss %xmm5,%xmm9,%xmm11
    2491:	c4 41 2a 59 c2       	vmulss %xmm10,%xmm10,%xmm8
    2496:	c4 c1 22 59 fb       	vmulss %xmm11,%xmm11,%xmm7
    249b:	41 ff c3             	inc    %r11d
    249e:	c5 3a 58 cf          	vaddss %xmm7,%xmm8,%xmm9
    24a2:	c5 78 2e cc          	vucomiss %xmm4,%xmm9
    24a6:	77 0f                	ja     24b7 <_Z21mandelbrot_cpu_scalarjjPj+0x167>
    24a8:	c4 41 22 58 d2       	vaddss %xmm10,%xmm11,%xmm10
    24ad:	c4 41 2a 59 d2       	vmulss %xmm10,%xmm10,%xmm10
    24b2:	41 39 f3             	cmp    %esi,%r11d
    24b5:	72 c9                	jb     2480 <_Z21mandelbrot_cpu_scalarjjPj+0x130>
    24b7:	47 89 1c 91          	mov    %r11d,(%r9,%r10,4)
    24bb:	4d 89 d3             	mov    %r10,%r11
    24be:	49 83 cb 01          	or     $0x1,%r11
    24c2:	c4 c1 9a 2a f3       	vcvtsi2ss %r11,%xmm12,%xmm6
    24c7:	c5 ca 59 f1          	vmulss %xmm1,%xmm6,%xmm6
    24cb:	c4 e2 79 a9 f3       	vfmadd213ss %xmm3,%xmm0,%xmm6
    24d0:	31 db                	xor    %ebx,%ebx
    24d2:	c4 41 30 57 c9       	vxorps %xmm9,%xmm9,%xmm9
    24d7:	c4 41 28 57 d2       	vxorps %xmm10,%xmm10,%xmm10
    24dc:	c5 c0 57 ff          	vxorps %xmm7,%xmm7,%xmm7
    24e0:	c4 41 38 57 c0       	vxorps %xmm8,%xmm8,%xmm8
    24e5:	66 66 2e 0f 1f 84 00 	data16 cs nopw 0x0(%rax,%rax,1)
    24ec:	00 00 00 00 
    24f0:	c4 41 2a 5c c9       	vsubss %xmm9,%xmm10,%xmm9
    24f5:	c5 ba 5c ff          	vsubss %xmm7,%xmm8,%xmm7
    24f9:	c5 4a 58 d7          	vaddss %xmm7,%xmm6,%xmm10
    24fd:	c5 32 58 dd          	vaddss %xmm5,%xmm9,%xmm11
    2501:	c4 41 2a 59 c2       	vmulss %xmm10,%xmm10,%xmm8
    2506:	c4 c1 22 59 fb       	vmulss %xmm11,%xmm11,%xmm7
    250b:	ff c3                	inc    %ebx
    250d:	c5 3a 58 cf          	vaddss %xmm7,%xmm8,%xmm9
    2511:	c5 78 2e cc          	vucomiss %xmm4,%xmm9
    2515:	0f 87 25 ff ff ff    	ja     2440 <_Z21mandelbrot_cpu_scalarjjPj+0xf0>
    251b:	c4 41 22 58 d2       	vaddss %xmm10,%xmm11,%xmm10
    2520:	c4 41 2a 59 d2       	vmulss %xmm10,%xmm10,%xmm10
    2525:	39 f3                	cmp    %esi,%ebx
    2527:	72 c7                	jb     24f0 <_Z21mandelbrot_cpu_scalarjjPj+0x1a0>
    2529:	e9 12 ff ff ff       	jmp    2440 <_Z21mandelbrot_cpu_scalarjjPj+0xf0>
    252e:	5b                   	pop    %rbx
    252f:	c3                   	ret
    2530:	48 0f af c0          	imul   %rax,%rax
    2534:	48 c1 e0 02          	shl    $0x2,%rax
    2538:	48 89 d7             	mov    %rdx,%rdi
    253b:	31 f6                	xor    %esi,%esi
    253d:	48 89 c2             	mov    %rax,%rdx
    2540:	5b                   	pop    %rbx
    2541:	e9 5a fb ff ff       	jmp    20a0 <memset@plt>
    2546:	66 2e 0f 1f 84 00 00 	cs nopw 0x0(%rax,%rax,1)
    254d:	00 00 00 

0000000000002550 <_Z8ceil_divjj>:
    2550:	8d 04 37             	lea    (%rdi,%rsi,1),%eax
    2553:	ff c8                	dec    %eax
    2555:	31 d2                	xor    %edx,%edx
    2557:	f7 f6                	div    %esi
    2559:	c3                   	ret
    255a:	66 0f 1f 44 00 00    	nopw   0x0(%rax,%rax,1)

0000000000002560 <_Z21mandelbrot_cpu_vectorjjPj>:
    2560:	85 ff                	test   %edi,%edi
    2562:	0f 84 7d 01 00 00    	je     26e5 <_Z21mandelbrot_cpu_vectorjjPj+0x185>
    2568:	62 f2 7d 48 7c c6    	vpbroadcastd %esi,%zmm0
    256e:	89 f8                	mov    %edi,%eax
    2570:	62 f1 76 08 7b cf    	vcvtusi2ss %edi,%xmm1,%xmm1
    2576:	c5 fa 10 15 86 8a 00 	vmovss 0x8a86(%rip),%xmm2        # b004 <_IO_stdin_used+0x4>
    257d:	00 
    257e:	c5 ea 5e c9          	vdivss %xmm1,%xmm2,%xmm1
    2582:	c5 f2 59 15 7e 8a 00 	vmulss 0x8a7e(%rip),%xmm1,%xmm2        # b008 <_IO_stdin_used+0x8>
    2589:	00 
    258a:	62 f2 7d 48 18 d2    	vbroadcastss %xmm2,%zmm2
    2590:	31 c9                	xor    %ecx,%ecx
    2592:	c5 fa 10 1d 6e 8a 00 	vmovss 0x8a6e(%rip),%xmm3        # b008 <_IO_stdin_used+0x8>
    2599:	00 
    259a:	c5 fa 10 25 6a 8a 00 	vmovss 0x8a6a(%rip),%xmm4        # b00c <_IO_stdin_used+0xc>
    25a1:	00 
    25a2:	62 f2 7d 48 22 2d e4 	vpmovsxbq 0x8de4(%rip),%zmm5        # b390 <_IO_stdin_used+0x390>
    25a9:	8d 00 00 
    25ac:	c4 e2 7d 22 35 63 8a 	vpmovsxbq 0x8a63(%rip),%ymm6        # b018 <_IO_stdin_used+0x18>
    25b3:	00 00 
    25b5:	c4 e2 79 22 3d c2 8a 	vpmovsxbq 0x8ac2(%rip),%xmm7        # b080 <_IO_stdin_used+0x80>
    25bc:	00 00 
    25be:	62 72 7d 48 18 05 48 	vbroadcastss 0x8a48(%rip),%zmm8        # b010 <_IO_stdin_used+0x10>
    25c5:	8a 00 00 
    25c8:	62 72 7d 48 18 0d 42 	vbroadcastss 0x8a42(%rip),%zmm9        # b014 <_IO_stdin_used+0x14>
    25cf:	8a 00 00 
    25d2:	66 66 66 66 66 2e 0f 	data16 data16 data16 data16 cs nopw 0x0(%rax,%rax,1)
    25d9:	1f 84 00 00 00 00 00 
    25e0:	62 71 ee 00 2a d1    	vcvtsi2ss %rcx,%xmm18,%xmm10
    25e6:	c5 2a 59 d3          	vmulss %xmm3,%xmm10,%xmm10
    25ea:	c4 62 71 a9 d4       	vfmadd213ss %xmm4,%xmm1,%xmm10
    25ef:	62 52 7d 48 18 d2    	vbroadcastss %xmm10,%zmm10
    25f5:	48 89 ce             	mov    %rcx,%rsi
    25f8:	48 0f af f0          	imul   %rax,%rsi
    25fc:	48 8d 34 b2          	lea    (%rdx,%rsi,4),%rsi
    2600:	31 ff                	xor    %edi,%edi
    2602:	66 66 66 66 66 2e 0f 	data16 data16 data16 data16 cs nopw 0x0(%rax,%rax,1)
    2609:	1f 84 00 00 00 00 00 
    2610:	62 72 fd 48 7c df    	vpbroadcastq %rdi,%zmm11
    2616:	62 71 a5 48 eb e5    	vporq  %zmm5,%zmm11,%zmm12
    261c:	c5 25 eb ee          	vpor   %ymm6,%ymm11,%ymm13
    2620:	c5 21 eb f7          	vpor   %xmm7,%xmm11,%xmm14
    2624:	49 89 f8             	mov    %rdi,%r8
    2627:	49 83 c8 01          	or     $0x1,%r8
    262b:	c4 41 f9 6e f8       	vmovq  %r8,%xmm15
    2630:	c4 41 21 6c df       	vpunpcklqdq %xmm15,%xmm11,%xmm11
    2635:	62 53 a5 48 3a dd 01 	vinserti64x4 $0x1,%ymm13,%zmm11,%zmm11
    263c:	62 53 25 48 38 de 01 	vinserti32x4 $0x1,%xmm14,%zmm11,%zmm11
    2643:	62 51 ff 48 7a db    	vcvtuqq2ps %zmm11,%ymm11
    2649:	62 51 ff 48 7a e4    	vcvtuqq2ps %zmm12,%ymm12
    264f:	62 53 a5 48 1a dc 01 	vinsertf64x4 $0x1,%ymm12,%zmm11,%zmm11
    2656:	62 52 6d 48 a8 d8    	vfmadd213ps %zmm8,%zmm2,%zmm11
    265c:	c4 41 18 57 e4       	vxorps %xmm12,%xmm12,%xmm12
    2661:	c4 41 11 ef ed       	vpxor  %xmm13,%xmm13,%xmm13
    2666:	c4 41 09 ef f6       	vpxor  %xmm14,%xmm14,%xmm14
    266b:	c4 41 01 ef ff       	vpxor  %xmm15,%xmm15,%xmm15
    2670:	62 c1 14 48 58 c7    	vaddps %zmm15,%zmm13,%zmm16
    2676:	62 d1 7d 48 66 cc    	vpcmpgtd %zmm12,%zmm0,%k1
    267c:	62 d1 7c 41 c2 c9 02 	vcmpleps %zmm9,%zmm16,%k1{%k1}
    2683:	62 c1 14 48 5c cf    	vsubps %zmm15,%zmm13,%zmm17
    2689:	62 a1 24 48 58 c9    	vaddps %zmm17,%zmm11,%zmm17
    268f:	62 a1 0c 48 5c c0    	vsubps %zmm16,%zmm14,%zmm16
    2695:	62 c1 7c 40 58 c2    	vaddps %zmm10,%zmm16,%zmm16
    269b:	62 31 74 41 59 e9    	vmulps %zmm17,%zmm17,%zmm13{%k1}
    26a1:	62 31 7c 41 59 f8    	vmulps %zmm16,%zmm16,%zmm15{%k1}
    26a7:	62 a1 7c 40 58 c1    	vaddps %zmm17,%zmm16,%zmm16
    26ad:	62 31 7c 41 59 f0    	vmulps %zmm16,%zmm16,%zmm14{%k1}
    26b3:	62 e2 7e 48 38 c1    	vpmovm2d %k1,%zmm16
    26b9:	62 31 1d 48 fa e0    	vpsubd %zmm16,%zmm12,%zmm12
    26bf:	c5 f8 98 c9          	kortestw %k1,%k1
    26c3:	75 ab                	jne    2670 <_Z21mandelbrot_cpu_vectorjjPj+0x110>
    26c5:	62 71 fe 48 7f 24 be 	vmovdqu64 %zmm12,(%rsi,%rdi,4)
    26cc:	48 83 c7 10          	add    $0x10,%rdi
    26d0:	48 39 c7             	cmp    %rax,%rdi
    26d3:	0f 82 37 ff ff ff    	jb     2610 <_Z21mandelbrot_cpu_vectorjjPj+0xb0>
    26d9:	48 ff c1             	inc    %rcx
    26dc:	48 39 c1             	cmp    %rax,%rcx
    26df:	0f 85 fb fe ff ff    	jne    25e0 <_Z21mandelbrot_cpu_vectorjjPj+0x80>
    26e5:	c5 f8 77             	vzeroupper
    26e8:	c3                   	ret
    26e9:	0f 1f 80 00 00 00 00 	nopl   0x0(%rax)

00000000000026f0 <_Z25mandelbrot_cpu_vector_ilpjjPj>:
    26f0:	85 ff                	test   %edi,%edi
    26f2:	0f 84 86 03 00 00    	je     2a7e <_Z25mandelbrot_cpu_vector_ilpjjPj+0x38e>
    26f8:	53                   	push   %rbx
    26f9:	62 f2 7d 48 7c c6    	vpbroadcastd %esi,%zmm0
    26ff:	89 f8                	mov    %edi,%eax
    2701:	62 f1 76 08 7b cf    	vcvtusi2ss %edi,%xmm1,%xmm1
    2707:	c5 fa 10 15 f5 88 00 	vmovss 0x88f5(%rip),%xmm2        # b004 <_IO_stdin_used+0x4>
    270e:	00 
    270f:	c5 ea 5e c9          	vdivss %xmm1,%xmm2,%xmm1
    2713:	c5 fa 11 4c 24 fc    	vmovss %xmm1,-0x4(%rsp)
    2719:	c5 f2 59 0d e7 88 00 	vmulss 0x88e7(%rip),%xmm1,%xmm1        # b008 <_IO_stdin_used+0x8>
    2720:	00 
    2721:	62 f2 7d 48 18 d1    	vbroadcastss %xmm1,%zmm2
    2727:	48 8d 0c 85 00 00 00 	lea    0x0(,%rax,4),%rcx
    272e:	00 
    272f:	48 8d 70 ff          	lea    -0x1(%rax),%rsi
    2733:	48 c1 ee 06          	shr    $0x6,%rsi
    2737:	31 ff                	xor    %edi,%edi
    2739:	62 72 7d 48 22 0d 55 	vpmovsxbq 0x8c55(%rip),%zmm9        # b398 <_IO_stdin_used+0x398>
    2740:	8c 00 00 
    2743:	62 72 7d 48 22 15 53 	vpmovsxbq 0x8c53(%rip),%zmm10        # b3a0 <_IO_stdin_used+0x3a0>
    274a:	8c 00 00 
    274d:	62 72 7d 48 22 1d 51 	vpmovsxbq 0x8c51(%rip),%zmm11        # b3a8 <_IO_stdin_used+0x3a8>
    2754:	8c 00 00 
    2757:	62 72 7d 48 22 25 4f 	vpmovsxbq 0x8c4f(%rip),%zmm12        # b3b0 <_IO_stdin_used+0x3b0>
    275e:	8c 00 00 
    2761:	62 72 7d 48 22 2d 4d 	vpmovsxbq 0x8c4d(%rip),%zmm13        # b3b8 <_IO_stdin_used+0x3b8>
    2768:	8c 00 00 
    276b:	62 72 7d 48 18 35 9b 	vbroadcastss 0x889b(%rip),%zmm14        # b010 <_IO_stdin_used+0x10>
    2772:	88 00 00 
    2775:	62 72 7d 48 18 3d 95 	vbroadcastss 0x8895(%rip),%zmm15        # b014 <_IO_stdin_used+0x14>
    277c:	88 00 00 
    277f:	90                   	nop
    2780:	49 89 c8             	mov    %rcx,%r8
    2783:	4c 0f af c7          	imul   %rdi,%r8
    2787:	62 a1 7d 00 ef c0    	vpxord %xmm16,%xmm16,%xmm16
    278d:	62 f1 fe 00 2a cf    	vcvtsi2ss %rdi,%xmm16,%xmm1
    2793:	c5 f2 59 0d 6d 88 00 	vmulss 0x886d(%rip),%xmm1,%xmm1        # b008 <_IO_stdin_used+0x8>
    279a:	00 
    279b:	c5 fa 10 1d 69 88 00 	vmovss 0x8869(%rip),%xmm3        # b00c <_IO_stdin_used+0xc>
    27a2:	00 
    27a3:	c4 e2 61 99 4c 24 fc 	vfmadd132ss -0x4(%rsp),%xmm3,%xmm1
    27aa:	62 e2 7d 48 18 c1    	vbroadcastss %xmm1,%zmm16
    27b0:	49 01 d0             	add    %rdx,%r8
    27b3:	45 31 c9             	xor    %r9d,%r9d
    27b6:	45 31 d2             	xor    %r10d,%r10d
    27b9:	0f 1f 80 00 00 00 00 	nopl   0x0(%rax)
    27c0:	4d 89 cb             	mov    %r9,%r11
    27c3:	49 c1 e3 08          	shl    $0x8,%r11
    27c7:	62 d2 fd 48 7c ca    	vpbroadcastq %r10,%zmm1
    27cd:	62 f1 f5 48 eb 1d e9 	vporq  0x88e9(%rip),%zmm1,%zmm3        # b0c0 <_IO_stdin_used+0xc0>
    27d4:	88 00 00 
    27d7:	c5 f5 eb 25 81 8b 00 	vpor   0x8b81(%rip),%ymm1,%ymm4        # b360 <_IO_stdin_used+0x360>
    27de:	00 
    27df:	c5 f1 eb 2d 99 8b 00 	vpor   0x8b99(%rip),%xmm1,%xmm5        # b380 <_IO_stdin_used+0x380>
    27e6:	00 
    27e7:	4c 89 d3             	mov    %r10,%rbx
    27ea:	48 83 cb 01          	or     $0x1,%rbx
    27ee:	c4 e1 f9 6e f3       	vmovq  %rbx,%xmm6
    27f3:	c5 f1 6c f6          	vpunpcklqdq %xmm6,%xmm1,%xmm6
    27f7:	62 f3 cd 48 3a e4 01 	vinserti64x4 $0x1,%ymm4,%zmm6,%zmm4
    27fe:	62 f3 5d 48 38 e5 01 	vinserti32x4 $0x1,%xmm5,%zmm4,%zmm4
    2805:	62 f1 ff 48 7a e4    	vcvtuqq2ps %zmm4,%ymm4
    280b:	62 f1 ff 48 7a db    	vcvtuqq2ps %zmm3,%ymm3
    2811:	62 f1 f5 48 eb 2d e5 	vporq  0x88e5(%rip),%zmm1,%zmm5        # b100 <_IO_stdin_used+0x100>
    2818:	88 00 00 
    281b:	62 d1 f5 48 eb f1    	vporq  %zmm9,%zmm1,%zmm6
    2821:	62 f1 fc 48 5b f6    	vcvtqq2ps %zmm6,%ymm6
    2827:	62 f1 fc 48 5b ed    	vcvtqq2ps %zmm5,%ymm5
    282d:	62 e3 dd 48 1a cb 01 	vinsertf64x4 $0x1,%ymm3,%zmm4,%zmm17
    2834:	62 e3 cd 48 1a d5 01 	vinsertf64x4 $0x1,%ymm5,%zmm6,%zmm18
    283b:	62 d1 f5 48 eb da    	vporq  %zmm10,%zmm1,%zmm3
    2841:	62 d1 f5 48 eb e3    	vporq  %zmm11,%zmm1,%zmm4
    2847:	62 f1 fc 48 5b e4    	vcvtqq2ps %zmm4,%ymm4
    284d:	62 f1 fc 48 5b db    	vcvtqq2ps %zmm3,%ymm3
    2853:	62 e3 dd 48 1a db 01 	vinsertf64x4 $0x1,%ymm3,%zmm4,%zmm19
    285a:	62 d1 f5 48 eb dd    	vporq  %zmm13,%zmm1,%zmm3
    2860:	62 f1 fc 48 5b db    	vcvtqq2ps %zmm3,%ymm3
    2866:	62 d1 f5 48 eb cc    	vporq  %zmm12,%zmm1,%zmm1
    286c:	62 f1 fc 48 5b c9    	vcvtqq2ps %zmm1,%ymm1
    2872:	62 e3 e5 48 1a e1 01 	vinsertf64x4 $0x1,%ymm1,%zmm3,%zmm20
    2879:	62 c2 6d 48 a8 ce    	vfmadd213ps %zmm14,%zmm2,%zmm17
    287f:	62 c2 6d 48 a8 d6    	vfmadd213ps %zmm14,%zmm2,%zmm18
    2885:	62 c2 6d 48 a8 de    	vfmadd213ps %zmm14,%zmm2,%zmm19
    288b:	62 c2 6d 48 a8 e6    	vfmadd213ps %zmm14,%zmm2,%zmm20
    2891:	62 a1 55 00 ef ed    	vpxord %xmm21,%xmm21,%xmm21
    2897:	62 a1 4c 00 57 f6    	vxorps %xmm22,%xmm22,%xmm22
    289d:	62 a1 44 00 57 ff    	vxorps %xmm23,%xmm23,%xmm23
    28a3:	62 01 3c 00 57 c0    	vxorps %xmm24,%xmm24,%xmm24
    28a9:	62 01 34 00 57 c9    	vxorps %xmm25,%xmm25,%xmm25
    28af:	62 01 2c 00 57 d2    	vxorps %xmm26,%xmm26,%xmm26
    28b5:	62 01 24 00 57 db    	vxorps %xmm27,%xmm27,%xmm27
    28bb:	62 01 1c 00 57 e4    	vxorps %xmm28,%xmm28,%xmm28
    28c1:	62 01 14 00 57 ed    	vxorps %xmm29,%xmm29,%xmm29
    28c7:	62 01 0c 00 57 f6    	vxorps %xmm30,%xmm30,%xmm30
    28cd:	62 01 04 00 57 ff    	vxorps %xmm31,%xmm31,%xmm31
    28d3:	c5 d8 57 e4          	vxorps %xmm4,%xmm4,%xmm4
    28d7:	c5 f0 57 c9          	vxorps %xmm1,%xmm1,%xmm1
    28db:	c5 e0 57 db          	vxorps %xmm3,%xmm3,%xmm3
    28df:	c5 d0 57 ed          	vxorps %xmm5,%xmm5,%xmm5
    28e3:	c5 c8 57 f6          	vxorps %xmm6,%xmm6,%xmm6
    28e7:	66 0f 1f 84 00 00 00 	nopw   0x0(%rax,%rax,1)
    28ee:	00 00 
    28f0:	62 91 14 40 58 f9    	vaddps %zmm25,%zmm29,%zmm7
    28f6:	62 f1 7d 48 66 ce    	vpcmpgtd %zmm6,%zmm0,%k1
    28fc:	62 d1 44 49 c2 cf 02 	vcmpleps %zmm15,%zmm7,%k1{%k1}
    2903:	62 11 34 40 5c c5    	vsubps %zmm29,%zmm25,%zmm8
    2909:	62 51 74 40 58 c0    	vaddps %zmm8,%zmm17,%zmm8
    290f:	62 f1 74 48 5c ff    	vsubps %zmm7,%zmm1,%zmm7
    2915:	62 b1 44 48 58 f8    	vaddps %zmm16,%zmm7,%zmm7
    291b:	62 41 3c 49 59 c8    	vmulps %zmm8,%zmm8,%zmm25{%k1}
    2921:	62 61 44 49 59 ef    	vmulps %zmm7,%zmm7,%zmm29{%k1}
    2927:	62 d1 44 48 58 f8    	vaddps %zmm8,%zmm7,%zmm7
    292d:	62 f1 44 49 59 cf    	vmulps %zmm7,%zmm7,%zmm1{%k1}
    2933:	62 f2 7e 48 38 f9    	vpmovm2d %k1,%zmm7
    2939:	62 f1 4d 48 fa f7    	vpsubd %zmm7,%zmm6,%zmm6
    293f:	62 91 1c 40 58 f8    	vaddps %zmm24,%zmm28,%zmm7
    2945:	62 f1 7d 48 66 d5    	vpcmpgtd %zmm5,%zmm0,%k2
    294b:	62 d1 44 4a c2 d7 02 	vcmpleps %zmm15,%zmm7,%k2{%k2}
    2952:	62 11 3c 40 5c c4    	vsubps %zmm28,%zmm24,%zmm8
    2958:	62 51 6c 40 58 c0    	vaddps %zmm8,%zmm18,%zmm8
    295e:	62 f1 5c 48 5c ff    	vsubps %zmm7,%zmm4,%zmm7
    2964:	62 b1 44 48 58 f8    	vaddps %zmm16,%zmm7,%zmm7
    296a:	62 41 3c 4a 59 c0    	vmulps %zmm8,%zmm8,%zmm24{%k2}
    2970:	62 61 44 4a 59 e7    	vmulps %zmm7,%zmm7,%zmm28{%k2}
    2976:	62 d1 44 48 58 f8    	vaddps %zmm8,%zmm7,%zmm7
    297c:	62 f1 44 4a 59 e7    	vmulps %zmm7,%zmm7,%zmm4{%k2}
    2982:	62 f2 7e 48 38 fa    	vpmovm2d %k2,%zmm7
    2988:	62 f1 55 48 fa ef    	vpsubd %zmm7,%zmm5,%zmm5
    298e:	62 b1 24 40 58 ff    	vaddps %zmm23,%zmm27,%zmm7
    2994:	62 f1 7d 48 66 db    	vpcmpgtd %zmm3,%zmm0,%k3
    299a:	62 d1 44 4b c2 df 02 	vcmpleps %zmm15,%zmm7,%k3{%k3}
    29a1:	62 11 44 40 5c c3    	vsubps %zmm27,%zmm23,%zmm8
    29a7:	62 51 64 40 58 c0    	vaddps %zmm8,%zmm19,%zmm8
    29ad:	62 f1 04 40 5c ff    	vsubps %zmm7,%zmm31,%zmm7
    29b3:	62 b1 44 48 58 f8    	vaddps %zmm16,%zmm7,%zmm7
    29b9:	62 c1 3c 4b 59 f8    	vmulps %zmm8,%zmm8,%zmm23{%k3}
    29bf:	62 61 44 4b 59 df    	vmulps %zmm7,%zmm7,%zmm27{%k3}
    29c5:	62 d1 44 48 58 f8    	vaddps %zmm8,%zmm7,%zmm7
    29cb:	62 61 44 4b 59 ff    	vmulps %zmm7,%zmm7,%zmm31{%k3}
    29d1:	62 f2 7e 48 38 fb    	vpmovm2d %k3,%zmm7
    29d7:	62 f1 65 48 fa df    	vpsubd %zmm7,%zmm3,%zmm3
    29dd:	62 b1 2c 40 58 fe    	vaddps %zmm22,%zmm26,%zmm7
    29e3:	62 b1 7d 48 66 e5    	vpcmpgtd %zmm21,%zmm0,%k4
    29e9:	62 d1 44 4c c2 e7 02 	vcmpleps %zmm15,%zmm7,%k4{%k4}
    29f0:	62 11 4c 40 5c c2    	vsubps %zmm26,%zmm22,%zmm8
    29f6:	62 51 5c 40 58 c0    	vaddps %zmm8,%zmm20,%zmm8
    29fc:	62 f1 0c 40 5c ff    	vsubps %zmm7,%zmm30,%zmm7
    2a02:	62 b1 44 48 58 f8    	vaddps %zmm16,%zmm7,%zmm7
    2a08:	62 c1 3c 4c 59 f0    	vmulps %zmm8,%zmm8,%zmm22{%k4}
    2a0e:	62 61 44 4c 59 d7    	vmulps %zmm7,%zmm7,%zmm26{%k4}
    2a14:	62 d1 44 48 58 f8    	vaddps %zmm8,%zmm7,%zmm7
    2a1a:	62 61 44 4c 59 f7    	vmulps %zmm7,%zmm7,%zmm30{%k4}
    2a20:	62 f2 7e 48 38 fc    	vpmovm2d %k4,%zmm7
    2a26:	62 e1 55 40 fa ef    	vpsubd %zmm7,%zmm21,%zmm21
    2a2c:	c5 ec 45 c1          	korw   %k1,%k2,%k0
    2a30:	c5 e4 45 c0          	korw   %k0,%k3,%k0
    2a34:	c5 f8 98 e0          	kortestw %k0,%k4
    2a38:	0f 85 b2 fe ff ff    	jne    28f0 <_Z25mandelbrot_cpu_vector_ilpjjPj+0x200>
    2a3e:	62 91 fe 48 7f 34 18 	vmovdqu64 %zmm6,(%r8,%r11,1)
    2a45:	62 91 fe 48 7f 6c 18 	vmovdqu64 %zmm5,0x40(%r8,%r11,1)
    2a4c:	01 
    2a4d:	62 91 fe 48 7f 5c 18 	vmovdqu64 %zmm3,0x80(%r8,%r11,1)
    2a54:	02 
    2a55:	62 81 fe 48 7f 6c 18 	vmovdqu64 %zmm21,0xc0(%r8,%r11,1)
    2a5c:	03 
    2a5d:	49 83 c2 40          	add    $0x40,%r10
    2a61:	4d 8d 59 01          	lea    0x1(%r9),%r11
    2a65:	49 39 f1             	cmp    %rsi,%r9
    2a68:	4d 89 d9             	mov    %r11,%r9
    2a6b:	0f 85 4f fd ff ff    	jne    27c0 <_Z25mandelbrot_cpu_vector_ilpjjPj+0xd0>
    2a71:	48 ff c7             	inc    %rdi
    2a74:	48 39 c7             	cmp    %rax,%rdi
    2a77:	0f 85 03 fd ff ff    	jne    2780 <_Z25mandelbrot_cpu_vector_ilpjjPj+0x90>
    2a7d:	5b                   	pop    %rbx
    2a7e:	c5 f8 77             	vzeroupper
    2a81:	c3                   	ret
    2a82:	66 66 66 66 66 2e 0f 	data16 data16 data16 data16 cs nopw 0x0(%rax,%rax,1)
    2a89:	1f 84 00 00 00 00 00 

0000000000002a90 <_Z11thread_funcPv>:
    2a90:	8b 07                	mov    (%rdi),%eax
    2a92:	8b 4f 04             	mov    0x4(%rdi),%ecx
    2a95:	39 c8                	cmp    %ecx,%eax
    2a97:	0f 83 78 01 00 00    	jae    2c15 <_Z11thread_funcPv+0x185>
    2a9d:	62 f2 7d 48 18 47 02 	vbroadcastss 0x8(%rdi),%zmm0
    2aa4:	48 8b 57 10          	mov    0x10(%rdi),%rdx
    2aa8:	62 f1 76 08 7b c9    	vcvtusi2ss %ecx,%xmm1,%xmm1
    2aae:	8b 77 18             	mov    0x18(%rdi),%esi
    2ab1:	c5 fa 10 15 4b 85 00 	vmovss 0x854b(%rip),%xmm2        # b004 <_IO_stdin_used+0x4>
    2ab8:	00 
    2ab9:	c5 ea 5e c9          	vdivss %xmm1,%xmm2,%xmm1
    2abd:	c5 f2 59 15 43 85 00 	vmulss 0x8543(%rip),%xmm1,%xmm2        # b008 <_IO_stdin_used+0x8>
    2ac4:	00 
    2ac5:	62 f2 7d 48 18 d2    	vbroadcastss %xmm2,%zmm2
    2acb:	c5 fa 10 1d 35 85 00 	vmovss 0x8535(%rip),%xmm3        # b008 <_IO_stdin_used+0x8>
    2ad2:	00 
    2ad3:	c5 fa 10 25 31 85 00 	vmovss 0x8531(%rip),%xmm4        # b00c <_IO_stdin_used+0xc>
    2ada:	00 
    2adb:	62 f2 7d 48 22 2d ab 	vpmovsxbq 0x88ab(%rip),%zmm5        # b390 <_IO_stdin_used+0x390>
    2ae2:	88 00 00 
    2ae5:	c4 e2 7d 22 35 2a 85 	vpmovsxbq 0x852a(%rip),%ymm6        # b018 <_IO_stdin_used+0x18>
    2aec:	00 00 
    2aee:	c4 e2 79 22 3d c9 87 	vpmovsxbq 0x87c9(%rip),%xmm7        # b2c0 <_IO_stdin_used+0x2c0>
    2af5:	00 00 
    2af7:	62 72 7d 48 18 05 0f 	vbroadcastss 0x850f(%rip),%zmm8        # b010 <_IO_stdin_used+0x10>
    2afe:	85 00 00 
    2b01:	62 72 7d 48 18 0d 09 	vbroadcastss 0x8509(%rip),%zmm9        # b014 <_IO_stdin_used+0x14>
    2b08:	85 00 00 
    2b0b:	0f 1f 44 00 00       	nopl   0x0(%rax,%rax,1)
    2b10:	62 71 ee 00 2a d0    	vcvtsi2ss %rax,%xmm18,%xmm10
    2b16:	c5 2a 59 d3          	vmulss %xmm3,%xmm10,%xmm10
    2b1a:	c4 62 71 a9 d4       	vfmadd213ss %xmm4,%xmm1,%xmm10
    2b1f:	62 52 7d 48 18 d2    	vbroadcastss %xmm10,%zmm10
    2b25:	48 89 c7             	mov    %rax,%rdi
    2b28:	48 0f af f9          	imul   %rcx,%rdi
    2b2c:	48 8d 3c ba          	lea    (%rdx,%rdi,4),%rdi
    2b30:	45 31 c0             	xor    %r8d,%r8d
    2b33:	66 66 66 66 2e 0f 1f 	data16 data16 data16 cs nopw 0x0(%rax,%rax,1)
    2b3a:	84 00 00 00 00 00 
    2b40:	62 52 fd 48 7c d8    	vpbroadcastq %r8,%zmm11
    2b46:	62 71 a5 48 eb e5    	vporq  %zmm5,%zmm11,%zmm12
    2b4c:	c5 25 eb ee          	vpor   %ymm6,%ymm11,%ymm13
    2b50:	c5 21 eb f7          	vpor   %xmm7,%xmm11,%xmm14
    2b54:	4d 89 c1             	mov    %r8,%r9
    2b57:	49 83 c9 01          	or     $0x1,%r9
    2b5b:	c4 41 f9 6e f9       	vmovq  %r9,%xmm15
    2b60:	c4 41 21 6c df       	vpunpcklqdq %xmm15,%xmm11,%xmm11
    2b65:	62 53 a5 48 3a dd 01 	vinserti64x4 $0x1,%ymm13,%zmm11,%zmm11
    2b6c:	62 53 25 48 38 de 01 	vinserti32x4 $0x1,%xmm14,%zmm11,%zmm11
    2b73:	62 51 ff 48 7a db    	vcvtuqq2ps %zmm11,%ymm11
    2b79:	62 51 ff 48 7a e4    	vcvtuqq2ps %zmm12,%ymm12
    2b7f:	62 53 a5 48 1a dc 01 	vinsertf64x4 $0x1,%ymm12,%zmm11,%zmm11
    2b86:	62 52 6d 48 a8 d8    	vfmadd213ps %zmm8,%zmm2,%zmm11
    2b8c:	c4 41 18 57 e4       	vxorps %xmm12,%xmm12,%xmm12
    2b91:	c4 41 11 ef ed       	vpxor  %xmm13,%xmm13,%xmm13
    2b96:	c4 41 09 ef f6       	vpxor  %xmm14,%xmm14,%xmm14
    2b9b:	c4 41 01 ef ff       	vpxor  %xmm15,%xmm15,%xmm15
    2ba0:	62 c1 14 48 58 c7    	vaddps %zmm15,%zmm13,%zmm16
    2ba6:	62 d1 7d 48 66 cc    	vpcmpgtd %zmm12,%zmm0,%k1
    2bac:	62 d1 7c 41 c2 c9 02 	vcmpleps %zmm9,%zmm16,%k1{%k1}
    2bb3:	62 c1 14 48 5c cf    	vsubps %zmm15,%zmm13,%zmm17
    2bb9:	62 a1 24 48 58 c9    	vaddps %zmm17,%zmm11,%zmm17
    2bbf:	62 a1 0c 48 5c c0    	vsubps %zmm16,%zmm14,%zmm16
    2bc5:	62 c1 7c 40 58 c2    	vaddps %zmm10,%zmm16,%zmm16
    2bcb:	62 31 74 41 59 e9    	vmulps %zmm17,%zmm17,%zmm13{%k1}
    2bd1:	62 31 7c 41 59 f8    	vmulps %zmm16,%zmm16,%zmm15{%k1}
    2bd7:	62 a1 7c 40 58 c1    	vaddps %zmm17,%zmm16,%zmm16
    2bdd:	62 31 7c 41 59 f0    	vmulps %zmm16,%zmm16,%zmm14{%k1}
    2be3:	62 e2 7e 48 38 c1    	vpmovm2d %k1,%zmm16
    2be9:	62 31 1d 48 fa e0    	vpsubd %zmm16,%zmm12,%zmm12
    2bef:	c5 f8 98 c9          	kortestw %k1,%k1
    2bf3:	75 ab                	jne    2ba0 <_Z11thread_funcPv+0x110>
    2bf5:	62 31 fe 48 7f 24 87 	vmovdqu64 %zmm12,(%rdi,%r8,4)
    2bfc:	49 83 c0 10          	add    $0x10,%r8
    2c00:	49 39 c8             	cmp    %rcx,%r8
    2c03:	0f 82 37 ff ff ff    	jb     2b40 <_Z11thread_funcPv+0xb0>
    2c09:	48 01 f0             	add    %rsi,%rax
    2c0c:	48 39 c8             	cmp    %rcx,%rax
    2c0f:	0f 82 fb fe ff ff    	jb     2b10 <_Z11thread_funcPv+0x80>
    2c15:	31 c0                	xor    %eax,%eax
    2c17:	c5 f8 77             	vzeroupper
    2c1a:	c3                   	ret
    2c1b:	0f 1f 44 00 00       	nopl   0x0(%rax,%rax,1)

0000000000002c20 <_Z31mandelbrot_cpu_vector_multicorejjPj>:
    2c20:	55                   	push   %rbp
    2c21:	41 57                	push   %r15
    2c23:	41 56                	push   %r14
    2c25:	53                   	push   %rbx
    2c26:	48 81 ec 48 01 00 00 	sub    $0x148,%rsp
    2c2d:	48 89 d3             	mov    %rdx,%rbx
    2c30:	89 f5                	mov    %esi,%ebp
    2c32:	41 89 fe             	mov    %edi,%r14d
    2c35:	c7 44 24 58 08 00 00 	movl   $0x8,0x58(%rsp)
    2c3c:	00 
    2c3d:	c7 44 24 78 08 00 00 	movl   $0x8,0x78(%rsp)
    2c44:	00 
    2c45:	c7 84 24 98 00 00 00 	movl   $0x8,0x98(%rsp)
    2c4c:	08 00 00 00 
    2c50:	c7 84 24 b8 00 00 00 	movl   $0x8,0xb8(%rsp)
    2c57:	08 00 00 00 
    2c5b:	c7 84 24 d8 00 00 00 	movl   $0x8,0xd8(%rsp)
    2c62:	08 00 00 00 
    2c66:	c7 84 24 f8 00 00 00 	movl   $0x8,0xf8(%rsp)
    2c6d:	08 00 00 00 
    2c71:	c7 84 24 18 01 00 00 	movl   $0x8,0x118(%rsp)
    2c78:	08 00 00 00 
    2c7c:	c7 84 24 38 01 00 00 	movl   $0x8,0x138(%rsp)
    2c83:	08 00 00 00 
    2c87:	c7 44 24 40 00 00 00 	movl   $0x0,0x40(%rsp)
    2c8e:	00 
    2c8f:	89 7c 24 44          	mov    %edi,0x44(%rsp)
    2c93:	89 74 24 48          	mov    %esi,0x48(%rsp)
    2c97:	48 89 54 24 50       	mov    %rdx,0x50(%rsp)
    2c9c:	4c 8d 3d ed fd ff ff 	lea    -0x213(%rip),%r15        # 2a90 <_Z11thread_funcPv>
    2ca3:	48 89 e7             	mov    %rsp,%rdi
    2ca6:	48 8d 4c 24 40       	lea    0x40(%rsp),%rcx
    2cab:	31 f6                	xor    %esi,%esi
    2cad:	4c 89 fa             	mov    %r15,%rdx
    2cb0:	e8 5b f5 ff ff       	call   2210 <pthread_create@plt>
    2cb5:	48 8d 4c 24 60       	lea    0x60(%rsp),%rcx
    2cba:	c7 44 24 60 01 00 00 	movl   $0x1,0x60(%rsp)
    2cc1:	00 
    2cc2:	44 89 74 24 64       	mov    %r14d,0x64(%rsp)
    2cc7:	89 6c 24 68          	mov    %ebp,0x68(%rsp)
    2ccb:	48 89 5c 24 70       	mov    %rbx,0x70(%rsp)
    2cd0:	48 8d 7c 24 08       	lea    0x8(%rsp),%rdi
    2cd5:	31 f6                	xor    %esi,%esi
    2cd7:	4c 89 fa             	mov    %r15,%rdx
    2cda:	e8 31 f5 ff ff       	call   2210 <pthread_create@plt>
    2cdf:	48 8d 8c 24 80 00 00 	lea    0x80(%rsp),%rcx
    2ce6:	00 
    2ce7:	c7 84 24 80 00 00 00 	movl   $0x2,0x80(%rsp)
    2cee:	02 00 00 00 
    2cf2:	44 89 b4 24 84 00 00 	mov    %r14d,0x84(%rsp)
    2cf9:	00 
    2cfa:	89 ac 24 88 00 00 00 	mov    %ebp,0x88(%rsp)
    2d01:	48 89 9c 24 90 00 00 	mov    %rbx,0x90(%rsp)
    2d08:	00 
    2d09:	48 8d 7c 24 10       	lea    0x10(%rsp),%rdi
    2d0e:	31 f6                	xor    %esi,%esi
    2d10:	4c 89 fa             	mov    %r15,%rdx
    2d13:	e8 f8 f4 ff ff       	call   2210 <pthread_create@plt>
    2d18:	48 8d 8c 24 a0 00 00 	lea    0xa0(%rsp),%rcx
    2d1f:	00 
    2d20:	c7 84 24 a0 00 00 00 	movl   $0x3,0xa0(%rsp)
    2d27:	03 00 00 00 
    2d2b:	44 89 b4 24 a4 00 00 	mov    %r14d,0xa4(%rsp)
    2d32:	00 
    2d33:	89 ac 24 a8 00 00 00 	mov    %ebp,0xa8(%rsp)
    2d3a:	48 89 9c 24 b0 00 00 	mov    %rbx,0xb0(%rsp)
    2d41:	00 
    2d42:	48 8d 7c 24 18       	lea    0x18(%rsp),%rdi
    2d47:	31 f6                	xor    %esi,%esi
    2d49:	4c 89 fa             	mov    %r15,%rdx
    2d4c:	e8 bf f4 ff ff       	call   2210 <pthread_create@plt>
    2d51:	48 8d 8c 24 c0 00 00 	lea    0xc0(%rsp),%rcx
    2d58:	00 
    2d59:	c7 84 24 c0 00 00 00 	movl   $0x4,0xc0(%rsp)
    2d60:	04 00 00 00 
    2d64:	44 89 b4 24 c4 00 00 	mov    %r14d,0xc4(%rsp)
    2d6b:	00 
    2d6c:	89 ac 24 c8 00 00 00 	mov    %ebp,0xc8(%rsp)
    2d73:	48 89 9c 24 d0 00 00 	mov    %rbx,0xd0(%rsp)
    2d7a:	00 
    2d7b:	48 8d 7c 24 20       	lea    0x20(%rsp),%rdi
    2d80:	31 f6                	xor    %esi,%esi
    2d82:	4c 89 fa             	mov    %r15,%rdx
    2d85:	e8 86 f4 ff ff       	call   2210 <pthread_create@plt>
    2d8a:	48 8d 8c 24 e0 00 00 	lea    0xe0(%rsp),%rcx
    2d91:	00 
    2d92:	c7 84 24 e0 00 00 00 	movl   $0x5,0xe0(%rsp)
    2d99:	05 00 00 00 
    2d9d:	44 89 b4 24 e4 00 00 	mov    %r14d,0xe4(%rsp)
    2da4:	00 
    2da5:	89 ac 24 e8 00 00 00 	mov    %ebp,0xe8(%rsp)
    2dac:	48 89 9c 24 f0 00 00 	mov    %rbx,0xf0(%rsp)
    2db3:	00 
    2db4:	48 8d 7c 24 28       	lea    0x28(%rsp),%rdi
    2db9:	31 f6                	xor    %esi,%esi
    2dbb:	4c 89 fa             	mov    %r15,%rdx
    2dbe:	e8 4d f4 ff ff       	call   2210 <pthread_create@plt>
    2dc3:	48 8d 8c 24 00 01 00 	lea    0x100(%rsp),%rcx
    2dca:	00 
    2dcb:	c7 84 24 00 01 00 00 	movl   $0x6,0x100(%rsp)
    2dd2:	06 00 00 00 
    2dd6:	44 89 b4 24 04 01 00 	mov    %r14d,0x104(%rsp)
    2ddd:	00 
    2dde:	89 ac 24 08 01 00 00 	mov    %ebp,0x108(%rsp)
    2de5:	48 89 9c 24 10 01 00 	mov    %rbx,0x110(%rsp)
    2dec:	00 
    2ded:	48 8d 7c 24 30       	lea    0x30(%rsp),%rdi
    2df2:	31 f6                	xor    %esi,%esi
    2df4:	4c 89 fa             	mov    %r15,%rdx
    2df7:	e8 14 f4 ff ff       	call   2210 <pthread_create@plt>
    2dfc:	48 8d 8c 24 20 01 00 	lea    0x120(%rsp),%rcx
    2e03:	00 
    2e04:	c7 84 24 20 01 00 00 	movl   $0x7,0x120(%rsp)
    2e0b:	07 00 00 00 
    2e0f:	44 89 b4 24 24 01 00 	mov    %r14d,0x124(%rsp)
    2e16:	00 
    2e17:	89 ac 24 28 01 00 00 	mov    %ebp,0x128(%rsp)
    2e1e:	48 89 9c 24 30 01 00 	mov    %rbx,0x130(%rsp)
    2e25:	00 
    2e26:	48 8d 7c 24 38       	lea    0x38(%rsp),%rdi
    2e2b:	31 f6                	xor    %esi,%esi
    2e2d:	4c 89 fa             	mov    %r15,%rdx
    2e30:	e8 db f3 ff ff       	call   2210 <pthread_create@plt>
    2e35:	48 8b 3c 24          	mov    (%rsp),%rdi
    2e39:	31 f6                	xor    %esi,%esi
    2e3b:	e8 c0 f2 ff ff       	call   2100 <pthread_join@plt>
    2e40:	48 8b 7c 24 08       	mov    0x8(%rsp),%rdi
    2e45:	31 f6                	xor    %esi,%esi
    2e47:	e8 b4 f2 ff ff       	call   2100 <pthread_join@plt>
    2e4c:	48 8b 7c 24 10       	mov    0x10(%rsp),%rdi
    2e51:	31 f6                	xor    %esi,%esi
    2e53:	e8 a8 f2 ff ff       	call   2100 <pthread_join@plt>
    2e58:	48 8b 7c 24 18       	mov    0x18(%rsp),%rdi
    2e5d:	31 f6                	xor    %esi,%esi
    2e5f:	e8 9c f2 ff ff       	call   2100 <pthread_join@plt>
    2e64:	48 8b 7c 24 20       	mov    0x20(%rsp),%rdi
    2e69:	31 f6                	xor    %esi,%esi
    2e6b:	e8 90 f2 ff ff       	call   2100 <pthread_join@plt>
    2e70:	48 8b 7c 24 28       	mov    0x28(%rsp),%rdi
    2e75:	31 f6                	xor    %esi,%esi
    2e77:	e8 84 f2 ff ff       	call   2100 <pthread_join@plt>
    2e7c:	48 8b 7c 24 30       	mov    0x30(%rsp),%rdi
    2e81:	31 f6                	xor    %esi,%esi
    2e83:	e8 78 f2 ff ff       	call   2100 <pthread_join@plt>
    2e88:	48 8b 7c 24 38       	mov    0x38(%rsp),%rdi
    2e8d:	31 f6                	xor    %esi,%esi
    2e8f:	e8 6c f2 ff ff       	call   2100 <pthread_join@plt>
    2e94:	48 81 c4 48 01 00 00 	add    $0x148,%rsp
    2e9b:	5b                   	pop    %rbx
    2e9c:	41 5e                	pop    %r14
    2e9e:	41 5f                	pop    %r15
    2ea0:	5d                   	pop    %rbp
    2ea1:	c3                   	ret
    2ea2:	66 66 66 66 66 2e 0f 	data16 data16 data16 data16 cs nopw 0x0(%rax,%rax,1)
    2ea9:	1f 84 00 00 00 00 00 

0000000000002eb0 <_Z43mandelbrot_cpu_vector_multicore_multithreadjjPj>:
    2eb0:	55                   	push   %rbp
    2eb1:	41 57                	push   %r15
    2eb3:	41 56                	push   %r14
    2eb5:	53                   	push   %rbx
    2eb6:	48 81 ec 08 05 00 00 	sub    $0x508,%rsp
    2ebd:	48 89 d3             	mov    %rdx,%rbx
    2ec0:	89 f5                	mov    %esi,%ebp
    2ec2:	41 89 fe             	mov    %edi,%r14d
    2ec5:	c7 44 24 18 20 00 00 	movl   $0x20,0x18(%rsp)
    2ecc:	00 
    2ecd:	c7 44 24 38 20 00 00 	movl   $0x20,0x38(%rsp)
    2ed4:	00 
    2ed5:	c7 44 24 58 20 00 00 	movl   $0x20,0x58(%rsp)
    2edc:	00 
    2edd:	c7 44 24 78 20 00 00 	movl   $0x20,0x78(%rsp)
    2ee4:	00 
    2ee5:	c7 84 24 98 00 00 00 	movl   $0x20,0x98(%rsp)
    2eec:	20 00 00 00 
    2ef0:	c7 84 24 b8 00 00 00 	movl   $0x20,0xb8(%rsp)
    2ef7:	20 00 00 00 
    2efb:	c7 84 24 d8 00 00 00 	movl   $0x20,0xd8(%rsp)
    2f02:	20 00 00 00 
    2f06:	c7 84 24 f8 00 00 00 	movl   $0x20,0xf8(%rsp)
    2f0d:	20 00 00 00 
    2f11:	c7 84 24 18 01 00 00 	movl   $0x20,0x118(%rsp)
    2f18:	20 00 00 00 
    2f1c:	c7 84 24 38 01 00 00 	movl   $0x20,0x138(%rsp)
    2f23:	20 00 00 00 
    2f27:	c7 84 24 58 01 00 00 	movl   $0x20,0x158(%rsp)
    2f2e:	20 00 00 00 
    2f32:	c7 84 24 78 01 00 00 	movl   $0x20,0x178(%rsp)
    2f39:	20 00 00 00 
    2f3d:	c7 84 24 98 01 00 00 	movl   $0x20,0x198(%rsp)
    2f44:	20 00 00 00 
    2f48:	c7 84 24 b8 01 00 00 	movl   $0x20,0x1b8(%rsp)
    2f4f:	20 00 00 00 
    2f53:	c7 84 24 d8 01 00 00 	movl   $0x20,0x1d8(%rsp)
    2f5a:	20 00 00 00 
    2f5e:	c7 84 24 f8 01 00 00 	movl   $0x20,0x1f8(%rsp)
    2f65:	20 00 00 00 
    2f69:	c7 84 24 18 02 00 00 	movl   $0x20,0x218(%rsp)
    2f70:	20 00 00 00 
    2f74:	c7 84 24 38 02 00 00 	movl   $0x20,0x238(%rsp)
    2f7b:	20 00 00 00 
    2f7f:	c7 84 24 58 02 00 00 	movl   $0x20,0x258(%rsp)
    2f86:	20 00 00 00 
    2f8a:	c7 84 24 78 02 00 00 	movl   $0x20,0x278(%rsp)
    2f91:	20 00 00 00 
    2f95:	c7 84 24 98 02 00 00 	movl   $0x20,0x298(%rsp)
    2f9c:	20 00 00 00 
    2fa0:	c7 84 24 b8 02 00 00 	movl   $0x20,0x2b8(%rsp)
    2fa7:	20 00 00 00 
    2fab:	c7 84 24 d8 02 00 00 	movl   $0x20,0x2d8(%rsp)
    2fb2:	20 00 00 00 
    2fb6:	c7 84 24 f8 02 00 00 	movl   $0x20,0x2f8(%rsp)
    2fbd:	20 00 00 00 
    2fc1:	c7 84 24 18 03 00 00 	movl   $0x20,0x318(%rsp)
    2fc8:	20 00 00 00 
    2fcc:	c7 84 24 38 03 00 00 	movl   $0x20,0x338(%rsp)
    2fd3:	20 00 00 00 
    2fd7:	c7 84 24 58 03 00 00 	movl   $0x20,0x358(%rsp)
    2fde:	20 00 00 00 
    2fe2:	c7 84 24 78 03 00 00 	movl   $0x20,0x378(%rsp)
    2fe9:	20 00 00 00 
    2fed:	c7 84 24 98 03 00 00 	movl   $0x20,0x398(%rsp)
    2ff4:	20 00 00 00 
    2ff8:	c7 84 24 b8 03 00 00 	movl   $0x20,0x3b8(%rsp)
    2fff:	20 00 00 00 
    3003:	c7 84 24 d8 03 00 00 	movl   $0x20,0x3d8(%rsp)
    300a:	20 00 00 00 
    300e:	c7 84 24 f8 03 00 00 	movl   $0x20,0x3f8(%rsp)
    3015:	20 00 00 00 
    3019:	c7 04 24 00 00 00 00 	movl   $0x0,(%rsp)
    3020:	89 7c 24 04          	mov    %edi,0x4(%rsp)
    3024:	89 74 24 08          	mov    %esi,0x8(%rsp)
    3028:	48 89 54 24 10       	mov    %rdx,0x10(%rsp)
    302d:	4c 8d 3d 5c fa ff ff 	lea    -0x5a4(%rip),%r15        # 2a90 <_Z11thread_funcPv>
    3034:	48 8d bc 24 00 04 00 	lea    0x400(%rsp),%rdi
    303b:	00 
    303c:	48 89 e1             	mov    %rsp,%rcx
    303f:	31 f6                	xor    %esi,%esi
    3041:	4c 89 fa             	mov    %r15,%rdx
    3044:	e8 c7 f1 ff ff       	call   2210 <pthread_create@plt>
    3049:	48 8d 4c 24 20       	lea    0x20(%rsp),%rcx
    304e:	c7 44 24 20 01 00 00 	movl   $0x1,0x20(%rsp)
    3055:	00 
    3056:	44 89 74 24 24       	mov    %r14d,0x24(%rsp)
    305b:	89 6c 24 28          	mov    %ebp,0x28(%rsp)
    305f:	48 89 5c 24 30       	mov    %rbx,0x30(%rsp)
    3064:	48 8d bc 24 08 04 00 	lea    0x408(%rsp),%rdi
    306b:	00 
    306c:	31 f6                	xor    %esi,%esi
    306e:	4c 89 fa             	mov    %r15,%rdx
    3071:	e8 9a f1 ff ff       	call   2210 <pthread_create@plt>
    3076:	48 8d 4c 24 40       	lea    0x40(%rsp),%rcx
    307b:	c7 44 24 40 02 00 00 	movl   $0x2,0x40(%rsp)
    3082:	00 
    3083:	44 89 74 24 44       	mov    %r14d,0x44(%rsp)
    3088:	89 6c 24 48          	mov    %ebp,0x48(%rsp)
    308c:	48 89 5c 24 50       	mov    %rbx,0x50(%rsp)
    3091:	48 8d bc 24 10 04 00 	lea    0x410(%rsp),%rdi
    3098:	00 
    3099:	31 f6                	xor    %esi,%esi
    309b:	4c 89 fa             	mov    %r15,%rdx
    309e:	e8 6d f1 ff ff       	call   2210 <pthread_create@plt>
    30a3:	48 8d 4c 24 60       	lea    0x60(%rsp),%rcx
    30a8:	c7 44 24 60 03 00 00 	movl   $0x3,0x60(%rsp)
    30af:	00 
    30b0:	44 89 74 24 64       	mov    %r14d,0x64(%rsp)
    30b5:	89 6c 24 68          	mov    %ebp,0x68(%rsp)
    30b9:	48 89 5c 24 70       	mov    %rbx,0x70(%rsp)
    30be:	48 8d bc 24 18 04 00 	lea    0x418(%rsp),%rdi
    30c5:	00 
    30c6:	31 f6                	xor    %esi,%esi
    30c8:	4c 89 fa             	mov    %r15,%rdx
    30cb:	e8 40 f1 ff ff       	call   2210 <pthread_create@plt>
    30d0:	48 8d 8c 24 80 00 00 	lea    0x80(%rsp),%rcx
    30d7:	00 
    30d8:	c7 84 24 80 00 00 00 	movl   $0x4,0x80(%rsp)
    30df:	04 00 00 00 
    30e3:	44 89 b4 24 84 00 00 	mov    %r14d,0x84(%rsp)
    30ea:	00 
    30eb:	89 ac 24 88 00 00 00 	mov    %ebp,0x88(%rsp)
    30f2:	48 89 9c 24 90 00 00 	mov    %rbx,0x90(%rsp)
    30f9:	00 
    30fa:	48 8d bc 24 20 04 00 	lea    0x420(%rsp),%rdi
    3101:	00 
    3102:	31 f6                	xor    %esi,%esi
    3104:	4c 89 fa             	mov    %r15,%rdx
    3107:	e8 04 f1 ff ff       	call   2210 <pthread_create@plt>
    310c:	48 8d 8c 24 a0 00 00 	lea    0xa0(%rsp),%rcx
    3113:	00 
    3114:	c7 84 24 a0 00 00 00 	movl   $0x5,0xa0(%rsp)
    311b:	05 00 00 00 
    311f:	44 89 b4 24 a4 00 00 	mov    %r14d,0xa4(%rsp)
    3126:	00 
    3127:	89 ac 24 a8 00 00 00 	mov    %ebp,0xa8(%rsp)
    312e:	48 89 9c 24 b0 00 00 	mov    %rbx,0xb0(%rsp)
    3135:	00 
    3136:	48 8d bc 24 28 04 00 	lea    0x428(%rsp),%rdi
    313d:	00 
    313e:	31 f6                	xor    %esi,%esi
    3140:	4c 89 fa             	mov    %r15,%rdx
    3143:	e8 c8 f0 ff ff       	call   2210 <pthread_create@plt>
    3148:	48 8d 8c 24 c0 00 00 	lea    0xc0(%rsp),%rcx
    314f:	00 
    3150:	c7 84 24 c0 00 00 00 	movl   $0x6,0xc0(%rsp)
    3157:	06 00 00 00 
    315b:	44 89 b4 24 c4 00 00 	mov    %r14d,0xc4(%rsp)
    3162:	00 
    3163:	89 ac 24 c8 00 00 00 	mov    %ebp,0xc8(%rsp)
    316a:	48 89 9c 24 d0 00 00 	mov    %rbx,0xd0(%rsp)
    3171:	00 
    3172:	48 8d bc 24 30 04 00 	lea    0x430(%rsp),%rdi
    3179:	00 
    317a:	31 f6                	xor    %esi,%esi
    317c:	4c 89 fa             	mov    %r15,%rdx
    317f:	e8 8c f0 ff ff       	call   2210 <pthread_create@plt>
    3184:	48 8d 8c 24 e0 00 00 	lea    0xe0(%rsp),%rcx
    318b:	00 
    318c:	c7 84 24 e0 00 00 00 	movl   $0x7,0xe0(%rsp)
    3193:	07 00 00 00 
    3197:	44 89 b4 24 e4 00 00 	mov    %r14d,0xe4(%rsp)
    319e:	00 
    319f:	89 ac 24 e8 00 00 00 	mov    %ebp,0xe8(%rsp)
    31a6:	48 89 9c 24 f0 00 00 	mov    %rbx,0xf0(%rsp)
    31ad:	00 
    31ae:	48 8d bc 24 38 04 00 	lea    0x438(%rsp),%rdi
    31b5:	00 
    31b6:	31 f6                	xor    %esi,%esi
    31b8:	4c 89 fa             	mov    %r15,%rdx
    31bb:	e8 50 f0 ff ff       	call   2210 <pthread_create@plt>
    31c0:	48 8b bc 24 00 04 00 	mov    0x400(%rsp),%rdi
    31c7:	00 
    31c8:	31 f6                	xor    %esi,%esi
    31ca:	e8 31 ef ff ff       	call   2100 <pthread_join@plt>
    31cf:	48 8b bc 24 08 04 00 	mov    0x408(%rsp),%rdi
    31d6:	00 
    31d7:	31 f6                	xor    %esi,%esi
    31d9:	e8 22 ef ff ff       	call   2100 <pthread_join@plt>
    31de:	48 8b bc 24 10 04 00 	mov    0x410(%rsp),%rdi
    31e5:	00 
    31e6:	31 f6                	xor    %esi,%esi
    31e8:	e8 13 ef ff ff       	call   2100 <pthread_join@plt>
    31ed:	48 8b bc 24 18 04 00 	mov    0x418(%rsp),%rdi
    31f4:	00 
    31f5:	31 f6                	xor    %esi,%esi
    31f7:	e8 04 ef ff ff       	call   2100 <pthread_join@plt>
    31fc:	48 8b bc 24 20 04 00 	mov    0x420(%rsp),%rdi
    3203:	00 
    3204:	31 f6                	xor    %esi,%esi
    3206:	e8 f5 ee ff ff       	call   2100 <pthread_join@plt>
    320b:	48 8b bc 24 28 04 00 	mov    0x428(%rsp),%rdi
    3212:	00 
    3213:	31 f6                	xor    %esi,%esi
    3215:	e8 e6 ee ff ff       	call   2100 <pthread_join@plt>
    321a:	48 8b bc 24 30 04 00 	mov    0x430(%rsp),%rdi
    3221:	00 
    3222:	31 f6                	xor    %esi,%esi
    3224:	e8 d7 ee ff ff       	call   2100 <pthread_join@plt>
    3229:	48 8b bc 24 38 04 00 	mov    0x438(%rsp),%rdi
    3230:	00 
    3231:	31 f6                	xor    %esi,%esi
    3233:	e8 c8 ee ff ff       	call   2100 <pthread_join@plt>
    3238:	48 81 c4 08 05 00 00 	add    $0x508,%rsp
    323f:	5b                   	pop    %rbx
    3240:	41 5e                	pop    %r14
    3242:	41 5f                	pop    %r15
    3244:	5d                   	pop    %rbp
    3245:	c3                   	ret
    3246:	66 2e 0f 1f 84 00 00 	cs nopw 0x0(%rax,%rax,1)
    324d:	00 00 00 

0000000000003250 <_Z47mandelbrot_cpu_vector_multicore_multithread_ilpjjPj>:
    3250:	c3                   	ret
    3251:	66 66 66 66 66 66 2e 	data16 data16 data16 data16 data16 cs nopw 0x0(%rax,%rax,1)
    3258:	0f 1f 84 00 00 00 00 
    325f:	00 

0000000000003260 <_Z20ParseArgsAndMakeSpeciPPcPjS1_P14MandelbrotImpl>:
    3260:	55                   	push   %rbp
    3261:	41 57                	push   %r15
    3263:	41 56                	push   %r14
    3265:	41 55                	push   %r13
    3267:	41 54                	push   %r12
    3269:	53                   	push   %rbx
    326a:	48 83 ec 18          	sub    $0x18,%rsp
    326e:	48 89 4c 24 08       	mov    %rcx,0x8(%rsp)
    3273:	48 89 54 24 10       	mov    %rdx,0x10(%rsp)
    3278:	83 ff 02             	cmp    $0x2,%edi
    327b:	0f 8c e1 01 00 00    	jl     3462 <_Z20ParseArgsAndMakeSpeciPPcPjS1_P14MandelbrotImpl+0x202>
    3281:	4d 89 c4             	mov    %r8,%r12
    3284:	49 89 f7             	mov    %rsi,%r15
    3287:	89 fd                	mov    %edi,%ebp
    3289:	bb 01 00 00 00       	mov    $0x1,%ebx
    328e:	41 be 02 00 00 00    	mov    $0x2,%r14d
    3294:	eb 27                	jmp    32bd <_Z20ParseArgsAndMakeSpeciPPcPjS1_P14MandelbrotImpl+0x5d>
    3296:	66 2e 0f 1f 84 00 00 	cs nopw 0x0(%rax,%rax,1)
    329d:	00 00 00 
    32a0:	41 c7 04 24 00 00 00 	movl   $0x0,(%r12)
    32a7:	00 
    32a8:	ff c3                	inc    %ebx
    32aa:	41 8d 46 02          	lea    0x2(%r14),%eax
    32ae:	41 ff c6             	inc    %r14d
    32b1:	41 39 ee             	cmp    %ebp,%r14d
    32b4:	41 89 c6             	mov    %eax,%r14d
    32b7:	0f 8d a5 01 00 00    	jge    3462 <_Z20ParseArgsAndMakeSpeciPPcPjS1_P14MandelbrotImpl+0x202>
    32bd:	41 8d 46 ff          	lea    -0x1(%r14),%eax
    32c1:	4c 63 e8             	movslq %eax,%r13
    32c4:	4b 8b 04 ef          	mov    (%r15,%r13,8),%rax
    32c8:	80 38 2d             	cmpb   $0x2d,(%rax)
    32cb:	0f 85 3f 02 00 00    	jne    3510 <_Z20ParseArgsAndMakeSpeciPPcPjS1_P14MandelbrotImpl+0x2b0>
    32d1:	80 78 01 72          	cmpb   $0x72,0x1(%rax)
    32d5:	75 0a                	jne    32e1 <_Z20ParseArgsAndMakeSpeciPPcPjS1_P14MandelbrotImpl+0x81>
    32d7:	80 78 02 00          	cmpb   $0x0,0x2(%rax)
    32db:	0f 84 e4 00 00 00    	je     33c5 <_Z20ParseArgsAndMakeSpeciPPcPjS1_P14MandelbrotImpl+0x165>
    32e1:	80 78 01 62          	cmpb   $0x62,0x1(%rax)
    32e5:	75 0a                	jne    32f1 <_Z20ParseArgsAndMakeSpeciPPcPjS1_P14MandelbrotImpl+0x91>
    32e7:	80 78 02 00          	cmpb   $0x0,0x2(%rax)
    32eb:	0f 84 06 01 00 00    	je     33f7 <_Z20ParseArgsAndMakeSpeciPPcPjS1_P14MandelbrotImpl+0x197>
    32f1:	80 78 01 69          	cmpb   $0x69,0x1(%rax)
    32f5:	0f 85 15 02 00 00    	jne    3510 <_Z20ParseArgsAndMakeSpeciPPcPjS1_P14MandelbrotImpl+0x2b0>
    32fb:	80 78 02 00          	cmpb   $0x0,0x2(%rax)
    32ff:	0f 85 0b 02 00 00    	jne    3510 <_Z20ParseArgsAndMakeSpeciPPcPjS1_P14MandelbrotImpl+0x2b0>
    3305:	41 39 ee             	cmp    %ebp,%r14d
    3308:	0f 8d 89 02 00 00    	jge    3597 <_Z20ParseArgsAndMakeSpeciPPcPjS1_P14MandelbrotImpl+0x337>
    330e:	ff c3                	inc    %ebx
    3310:	49 63 c6             	movslq %r14d,%rax
    3313:	4d 8b 2c c7          	mov    (%r15,%rax,8),%r13
    3317:	4c 89 ef             	mov    %r13,%rdi
    331a:	48 8d 35 b1 81 00 00 	lea    0x81b1(%rip),%rsi        # b4d2 <_IO_stdin_used+0x4d2>
    3321:	e8 7a ee ff ff       	call   21a0 <strcmp@plt>
    3326:	85 c0                	test   %eax,%eax
    3328:	0f 84 72 ff ff ff    	je     32a0 <_Z20ParseArgsAndMakeSpeciPPcPjS1_P14MandelbrotImpl+0x40>
    332e:	4c 89 ef             	mov    %r13,%rdi
    3331:	48 8d 35 e4 81 00 00 	lea    0x81e4(%rip),%rsi        # b51c <_IO_stdin_used+0x51c>
    3338:	e8 63 ee ff ff       	call   21a0 <strcmp@plt>
    333d:	85 c0                	test   %eax,%eax
    333f:	0f 84 dc 00 00 00    	je     3421 <_Z20ParseArgsAndMakeSpeciPPcPjS1_P14MandelbrotImpl+0x1c1>
    3345:	4c 89 ef             	mov    %r13,%rdi
    3348:	48 8d 35 3c 82 00 00 	lea    0x823c(%rip),%rsi        # b58b <_IO_stdin_used+0x58b>
    334f:	e8 4c ee ff ff       	call   21a0 <strcmp@plt>
    3354:	85 c0                	test   %eax,%eax
    3356:	0f 84 d2 00 00 00    	je     342e <_Z20ParseArgsAndMakeSpeciPPcPjS1_P14MandelbrotImpl+0x1ce>
    335c:	4c 89 ef             	mov    %r13,%rdi
    335f:	48 8d 35 61 82 00 00 	lea    0x8261(%rip),%rsi        # b5c7 <_IO_stdin_used+0x5c7>
    3366:	e8 35 ee ff ff       	call   21a0 <strcmp@plt>
    336b:	85 c0                	test   %eax,%eax
    336d:	0f 84 c8 00 00 00    	je     343b <_Z20ParseArgsAndMakeSpeciPPcPjS1_P14MandelbrotImpl+0x1db>
    3373:	4c 89 ef             	mov    %r13,%rdi
    3376:	48 8d 35 92 82 00 00 	lea    0x8292(%rip),%rsi        # b60f <_IO_stdin_used+0x60f>
    337d:	e8 1e ee ff ff       	call   21a0 <strcmp@plt>
    3382:	85 c0                	test   %eax,%eax
    3384:	0f 84 be 00 00 00    	je     3448 <_Z20ParseArgsAndMakeSpeciPPcPjS1_P14MandelbrotImpl+0x1e8>
    338a:	4c 89 ef             	mov    %r13,%rdi
    338d:	48 8d 35 db 82 00 00 	lea    0x82db(%rip),%rsi        # b66f <_IO_stdin_used+0x66f>
    3394:	e8 07 ee ff ff       	call   21a0 <strcmp@plt>
    3399:	85 c0                	test   %eax,%eax
    339b:	0f 84 b4 00 00 00    	je     3455 <_Z20ParseArgsAndMakeSpeciPPcPjS1_P14MandelbrotImpl+0x1f5>
    33a1:	4c 89 ef             	mov    %r13,%rdi
    33a4:	48 8d 35 8b 80 00 00 	lea    0x808b(%rip),%rsi        # b436 <_IO_stdin_used+0x436>
    33ab:	e8 f0 ed ff ff       	call   21a0 <strcmp@plt>
    33b0:	85 c0                	test   %eax,%eax
    33b2:	0f 85 90 02 00 00    	jne    3648 <_Z20ParseArgsAndMakeSpeciPPcPjS1_P14MandelbrotImpl+0x3e8>
    33b8:	41 c7 04 24 06 00 00 	movl   $0x6,(%r12)
    33bf:	00 
    33c0:	e9 e3 fe ff ff       	jmp    32a8 <_Z20ParseArgsAndMakeSpeciPPcPjS1_P14MandelbrotImpl+0x48>
    33c5:	41 39 ee             	cmp    %ebp,%r14d
    33c8:	0f 8d d9 01 00 00    	jge    35a7 <_Z20ParseArgsAndMakeSpeciPPcPjS1_P14MandelbrotImpl+0x347>
    33ce:	49 63 c6             	movslq %r14d,%rax
    33d1:	49 8b 3c c7          	mov    (%r15,%rax,8),%rdi
    33d5:	31 f6                	xor    %esi,%esi
    33d7:	ba 0a 00 00 00       	mov    $0xa,%edx
    33dc:	e8 3f ee ff ff       	call   2220 <__isoc23_strtol@plt>
    33e1:	48 8b 4c 24 10       	mov    0x10(%rsp),%rcx
    33e6:	89 01                	mov    %eax,(%rcx)
    33e8:	a8 1f                	test   $0x1f,%al
    33ea:	0f 85 c7 01 00 00    	jne    35b7 <_Z20ParseArgsAndMakeSpeciPPcPjS1_P14MandelbrotImpl+0x357>
    33f0:	ff c3                	inc    %ebx
    33f2:	e9 b1 fe ff ff       	jmp    32a8 <_Z20ParseArgsAndMakeSpeciPPcPjS1_P14MandelbrotImpl+0x48>
    33f7:	41 39 ee             	cmp    %ebp,%r14d
    33fa:	0f 8d cc 01 00 00    	jge    35cc <_Z20ParseArgsAndMakeSpeciPPcPjS1_P14MandelbrotImpl+0x36c>
    3400:	ff c3                	inc    %ebx
    3402:	49 63 c6             	movslq %r14d,%rax
    3405:	49 8b 3c c7          	mov    (%r15,%rax,8),%rdi
    3409:	31 f6                	xor    %esi,%esi
    340b:	ba 0a 00 00 00       	mov    $0xa,%edx
    3410:	e8 0b ee ff ff       	call   2220 <__isoc23_strtol@plt>
    3415:	48 8b 4c 24 08       	mov    0x8(%rsp),%rcx
    341a:	89 01                	mov    %eax,(%rcx)
    341c:	e9 87 fe ff ff       	jmp    32a8 <_Z20ParseArgsAndMakeSpeciPPcPjS1_P14MandelbrotImpl+0x48>
    3421:	41 c7 04 24 01 00 00 	movl   $0x1,(%r12)
    3428:	00 
    3429:	e9 7a fe ff ff       	jmp    32a8 <_Z20ParseArgsAndMakeSpeciPPcPjS1_P14MandelbrotImpl+0x48>
    342e:	41 c7 04 24 02 00 00 	movl   $0x2,(%r12)
    3435:	00 
    3436:	e9 6d fe ff ff       	jmp    32a8 <_Z20ParseArgsAndMakeSpeciPPcPjS1_P14MandelbrotImpl+0x48>
    343b:	41 c7 04 24 03 00 00 	movl   $0x3,(%r12)
    3442:	00 
    3443:	e9 60 fe ff ff       	jmp    32a8 <_Z20ParseArgsAndMakeSpeciPPcPjS1_P14MandelbrotImpl+0x48>
    3448:	41 c7 04 24 04 00 00 	movl   $0x4,(%r12)
    344f:	00 
    3450:	e9 53 fe ff ff       	jmp    32a8 <_Z20ParseArgsAndMakeSpeciPPcPjS1_P14MandelbrotImpl+0x48>
    3455:	41 c7 04 24 05 00 00 	movl   $0x5,(%r12)
    345c:	00 
    345d:	e9 46 fe ff ff       	jmp    32a8 <_Z20ParseArgsAndMakeSpeciPPcPjS1_P14MandelbrotImpl+0x48>
    3462:	4c 8b 3d 4f 9b 00 00 	mov    0x9b4f(%rip),%r15        # cfb8 <_ZSt4cout@GLIBCXX_3.4>
    3469:	48 8d 35 18 80 00 00 	lea    0x8018(%rip),%rsi        # b488 <_IO_stdin_used+0x488>
    3470:	ba 18 00 00 00       	mov    $0x18,%edx
    3475:	4c 89 ff             	mov    %r15,%rdi
    3478:	e8 c3 ec ff ff       	call   2140 <_ZSt16__ostream_insertIcSt11char_traitsIcEERSt13basic_ostreamIT_T0_ES6_PKS3_l@plt>
    347d:	48 8b 5c 24 10       	mov    0x10(%rsp),%rbx
    3482:	8b 33                	mov    (%rbx),%esi
    3484:	4c 89 ff             	mov    %r15,%rdi
    3487:	e8 24 ec ff ff       	call   20b0 <_ZNSo9_M_insertImEERSoT_@plt>
    348c:	49 89 c7             	mov    %rax,%r15
    348f:	48 8d 35 0b 80 00 00 	lea    0x800b(%rip),%rsi        # b4a1 <_IO_stdin_used+0x4a1>
    3496:	ba 01 00 00 00       	mov    $0x1,%edx
    349b:	48 89 c7             	mov    %rax,%rdi
    349e:	e8 9d ec ff ff       	call   2140 <_ZSt16__ostream_insertIcSt11char_traitsIcEERSt13basic_ostreamIT_T0_ES6_PKS3_l@plt>
    34a3:	8b 33                	mov    (%rbx),%esi
    34a5:	4c 89 ff             	mov    %r15,%rdi
    34a8:	e8 03 ec ff ff       	call   20b0 <_ZNSo9_M_insertImEERSoT_@plt>
    34ad:	49 89 c6             	mov    %rax,%r14
    34b0:	48 8d 35 ec 7f 00 00 	lea    0x7fec(%rip),%rsi        # b4a3 <_IO_stdin_used+0x4a3>
    34b7:	ba 05 00 00 00       	mov    $0x5,%edx
    34bc:	48 89 c7             	mov    %rax,%rdi
    34bf:	e8 7c ec ff ff       	call   2140 <_ZSt16__ostream_insertIcSt11char_traitsIcEERSt13basic_ostreamIT_T0_ES6_PKS3_l@plt>
    34c4:	48 8b 44 24 08       	mov    0x8(%rsp),%rax
    34c9:	8b 30                	mov    (%rax),%esi
    34cb:	4c 89 f7             	mov    %r14,%rdi
    34ce:	e8 dd eb ff ff       	call   20b0 <_ZNSo9_M_insertImEERSoT_@plt>
    34d3:	48 89 c3             	mov    %rax,%rbx
    34d6:	48 8d 35 cc 7f 00 00 	lea    0x7fcc(%rip),%rsi        # b4a9 <_IO_stdin_used+0x4a9>
    34dd:	ba 10 00 00 00       	mov    $0x10,%edx
    34e2:	48 89 c7             	mov    %rax,%rdi
    34e5:	e8 56 ec ff ff       	call   2140 <_ZSt16__ostream_insertIcSt11char_traitsIcEERSt13basic_ostreamIT_T0_ES6_PKS3_l@plt>
    34ea:	48 8b 03             	mov    (%rbx),%rax
    34ed:	48 8b 40 e8          	mov    -0x18(%rax),%rax
    34f1:	4c 8b b4 03 f0 00 00 	mov    0xf0(%rbx,%rax,1),%r14
    34f8:	00 
    34f9:	4d 85 f6             	test   %r14,%r14
    34fc:	0f 84 6b 01 00 00    	je     366d <_Z20ParseArgsAndMakeSpeciPPcPjS1_P14MandelbrotImpl+0x40d>
    3502:	41 80 7e 38 00       	cmpb   $0x0,0x38(%r14)
    3507:	74 45                	je     354e <_Z20ParseArgsAndMakeSpeciPPcPjS1_P14MandelbrotImpl+0x2ee>
    3509:	41 0f b6 46 43       	movzbl 0x43(%r14),%eax
    350e:	eb 54                	jmp    3564 <_Z20ParseArgsAndMakeSpeciPPcPjS1_P14MandelbrotImpl+0x304>
    3510:	48 8b 1d c1 9a 00 00 	mov    0x9ac1(%rip),%rbx        # cfd8 <_ZSt4cerr@GLIBCXX_3.4>
    3517:	48 8d 35 5b 7f 00 00 	lea    0x7f5b(%rip),%rsi        # b479 <_IO_stdin_used+0x479>
    351e:	ba 0e 00 00 00       	mov    $0xe,%edx
    3523:	48 89 df             	mov    %rbx,%rdi
    3526:	e8 15 ec ff ff       	call   2140 <_ZSt16__ostream_insertIcSt11char_traitsIcEERSt13basic_ostreamIT_T0_ES6_PKS3_l@plt>
    352b:	4f 8b 34 ef          	mov    (%r15,%r13,8),%r14
    352f:	4d 85 f6             	test   %r14,%r14
    3532:	74 4a                	je     357e <_Z20ParseArgsAndMakeSpeciPPcPjS1_P14MandelbrotImpl+0x31e>
    3534:	4c 89 f7             	mov    %r14,%rdi
    3537:	e8 34 eb ff ff       	call   2070 <strlen@plt>
    353c:	48 8b 3d 95 9a 00 00 	mov    0x9a95(%rip),%rdi        # cfd8 <_ZSt4cerr@GLIBCXX_3.4>
    3543:	4c 89 f6             	mov    %r14,%rsi
    3546:	48 89 c2             	mov    %rax,%rdx
    3549:	e9 94 00 00 00       	jmp    35e2 <_Z20ParseArgsAndMakeSpeciPPcPjS1_P14MandelbrotImpl+0x382>
    354e:	4c 89 f7             	mov    %r14,%rdi
    3551:	e8 fa eb ff ff       	call   2150 <_ZNKSt5ctypeIcE13_M_widen_initEv@plt>
    3556:	49 8b 06             	mov    (%r14),%rax
    3559:	4c 89 f7             	mov    %r14,%rdi
    355c:	be 0a 00 00 00       	mov    $0xa,%esi
    3561:	ff 50 30             	call   *0x30(%rax)
    3564:	0f be f0             	movsbl %al,%esi
    3567:	48 89 df             	mov    %rbx,%rdi
    356a:	e8 c1 ea ff ff       	call   2030 <_ZNSo3putEc@plt>
    356f:	48 89 c7             	mov    %rax,%rdi
    3572:	e8 49 eb ff ff       	call   20c0 <_ZNSo5flushEv@plt>
    3577:	31 c0                	xor    %eax,%eax
    3579:	e9 bb 00 00 00       	jmp    3639 <_Z20ParseArgsAndMakeSpeciPPcPjS1_P14MandelbrotImpl+0x3d9>
    357e:	48 8b 03             	mov    (%rbx),%rax
    3581:	48 8b 40 e8          	mov    -0x18(%rax),%rax
    3585:	48 8d 3c 03          	lea    (%rbx,%rax,1),%rdi
    3589:	8b 74 03 20          	mov    0x20(%rbx,%rax,1),%esi
    358d:	83 ce 01             	or     $0x1,%esi
    3590:	e8 5b ec ff ff       	call   21f0 <_ZNSt9basic_iosIcSt11char_traitsIcEE5clearESt12_Ios_Iostate@plt>
    3595:	eb 50                	jmp    35e7 <_Z20ParseArgsAndMakeSpeciPPcPjS1_P14MandelbrotImpl+0x387>
    3597:	48 8b 1d 3a 9a 00 00 	mov    0x9a3a(%rip),%rbx        # cfd8 <_ZSt4cerr@GLIBCXX_3.4>
    359e:	48 8d 35 b3 7e 00 00 	lea    0x7eb3(%rip),%rsi        # b458 <_IO_stdin_used+0x458>
    35a5:	eb 33                	jmp    35da <_Z20ParseArgsAndMakeSpeciPPcPjS1_P14MandelbrotImpl+0x37a>
    35a7:	48 8b 1d 2a 9a 00 00 	mov    0x9a2a(%rip),%rbx        # cfd8 <_ZSt4cerr@GLIBCXX_3.4>
    35ae:	48 8d 35 3f 7e 00 00 	lea    0x7e3f(%rip),%rsi        # b3f4 <_IO_stdin_used+0x3f4>
    35b5:	eb 23                	jmp    35da <_Z20ParseArgsAndMakeSpeciPPcPjS1_P14MandelbrotImpl+0x37a>
    35b7:	48 8b 1d 1a 9a 00 00 	mov    0x9a1a(%rip),%rbx        # cfd8 <_ZSt4cerr@GLIBCXX_3.4>
    35be:	48 8d 35 03 7e 00 00 	lea    0x7e03(%rip),%rsi        # b3c8 <_IO_stdin_used+0x3c8>
    35c5:	ba 2b 00 00 00       	mov    $0x2b,%edx
    35ca:	eb 13                	jmp    35df <_Z20ParseArgsAndMakeSpeciPPcPjS1_P14MandelbrotImpl+0x37f>
    35cc:	48 8b 1d 05 9a 00 00 	mov    0x9a05(%rip),%rbx        # cfd8 <_ZSt4cerr@GLIBCXX_3.4>
    35d3:	48 8d 35 3b 7e 00 00 	lea    0x7e3b(%rip),%rsi        # b415 <_IO_stdin_used+0x415>
    35da:	ba 20 00 00 00       	mov    $0x20,%edx
    35df:	48 89 df             	mov    %rbx,%rdi
    35e2:	e8 59 eb ff ff       	call   2140 <_ZSt16__ostream_insertIcSt11char_traitsIcEERSt13basic_ostreamIT_T0_ES6_PKS3_l@plt>
    35e7:	48 8b 03             	mov    (%rbx),%rax
    35ea:	48 8b 40 e8          	mov    -0x18(%rax),%rax
    35ee:	48 8b 9c 03 f0 00 00 	mov    0xf0(%rbx,%rax,1),%rbx
    35f5:	00 
    35f6:	48 85 db             	test   %rbx,%rbx
    35f9:	74 72                	je     366d <_Z20ParseArgsAndMakeSpeciPPcPjS1_P14MandelbrotImpl+0x40d>
    35fb:	80 7b 38 00          	cmpb   $0x0,0x38(%rbx)
    35ff:	74 06                	je     3607 <_Z20ParseArgsAndMakeSpeciPPcPjS1_P14MandelbrotImpl+0x3a7>
    3601:	0f b6 43 43          	movzbl 0x43(%rbx),%eax
    3605:	eb 16                	jmp    361d <_Z20ParseArgsAndMakeSpeciPPcPjS1_P14MandelbrotImpl+0x3bd>
    3607:	48 89 df             	mov    %rbx,%rdi
    360a:	e8 41 eb ff ff       	call   2150 <_ZNKSt5ctypeIcE13_M_widen_initEv@plt>
    360f:	48 8b 03             	mov    (%rbx),%rax
    3612:	48 89 df             	mov    %rbx,%rdi
    3615:	be 0a 00 00 00       	mov    $0xa,%esi
    361a:	ff 50 30             	call   *0x30(%rax)
    361d:	0f be f0             	movsbl %al,%esi
    3620:	48 8b 3d b1 99 00 00 	mov    0x99b1(%rip),%rdi        # cfd8 <_ZSt4cerr@GLIBCXX_3.4>
    3627:	e8 04 ea ff ff       	call   2030 <_ZNSo3putEc@plt>
    362c:	48 89 c7             	mov    %rax,%rdi
    362f:	e8 8c ea ff ff       	call   20c0 <_ZNSo5flushEv@plt>
    3634:	b8 01 00 00 00       	mov    $0x1,%eax
    3639:	48 83 c4 18          	add    $0x18,%rsp
    363d:	5b                   	pop    %rbx
    363e:	41 5c                	pop    %r12
    3640:	41 5d                	pop    %r13
    3642:	41 5e                	pop    %r14
    3644:	41 5f                	pop    %r15
    3646:	5d                   	pop    %rbp
    3647:	c3                   	ret
    3648:	48 8b 1d 89 99 00 00 	mov    0x9989(%rip),%rbx        # cfd8 <_ZSt4cerr@GLIBCXX_3.4>
    364f:	48 8d 35 e4 7d 00 00 	lea    0x7de4(%rip),%rsi        # b43a <_IO_stdin_used+0x43a>
    3656:	ba 1d 00 00 00       	mov    $0x1d,%edx
    365b:	48 89 df             	mov    %rbx,%rdi
    365e:	e8 dd ea ff ff       	call   2140 <_ZSt16__ostream_insertIcSt11char_traitsIcEERSt13basic_ostreamIT_T0_ES6_PKS3_l@plt>
    3663:	48 89 df             	mov    %rbx,%rdi
    3666:	e8 15 ea ff ff       	call   2080 <_ZSt4endlIcSt11char_traitsIcEERSt13basic_ostreamIT_T0_ES6_@plt>
    366b:	eb c7                	jmp    3634 <_Z20ParseArgsAndMakeSpeciPPcPjS1_P14MandelbrotImpl+0x3d4>
    366d:	e8 ee ea ff ff       	call   2160 <_ZSt16__throw_bad_castv@plt>
    3672:	66 66 66 66 66 2e 0f 	data16 data16 data16 data16 cs nopw 0x0(%rax,%rax,1)
    3679:	1f 84 00 00 00 00 00 

0000000000003680 <_Z8writeBMPPKcjRKSt6vectorIhSaIhEE>:
    3680:	41 56                	push   %r14
    3682:	53                   	push   %rbx
    3683:	48 81 ec 38 02 00 00 	sub    $0x238,%rsp
    368a:	48 89 d3             	mov    %rdx,%rbx
    368d:	48 89 f8             	mov    %rdi,%rax
    3690:	66 c7 44 24 02 42 4d 	movw   $0x4d42,0x2(%rsp)
    3697:	48 c7 44 24 04 00 00 	movq   $0x0,0x4(%rsp)
    369e:	00 00 
    36a0:	48 b9 36 00 00 00 28 	movabs $0x2800000036,%rcx
    36a7:	00 00 00 
    36aa:	48 89 4c 24 0c       	mov    %rcx,0xc(%rsp)
    36af:	c7 44 24 1c 01 00 18 	movl   $0x180001,0x1c(%rsp)
    36b6:	00 
    36b7:	c5 f8 57 c0          	vxorps %xmm0,%xmm0,%xmm0
    36bb:	c5 f8 11 44 24 20    	vmovups %xmm0,0x20(%rsp)
    36c1:	48 c7 44 24 30 00 00 	movq   $0x0,0x30(%rsp)
    36c8:	00 00 
    36ca:	89 74 24 14          	mov    %esi,0x14(%rsp)
    36ce:	89 74 24 18          	mov    %esi,0x18(%rsp)
    36d2:	0f af f6             	imul   %esi,%esi
    36d5:	8d 0c 76             	lea    (%rsi,%rsi,2),%ecx
    36d8:	89 4c 24 24          	mov    %ecx,0x24(%rsp)
    36dc:	8d 0c 76             	lea    (%rsi,%rsi,2),%ecx
    36df:	83 c1 36             	add    $0x36,%ecx
    36e2:	89 4c 24 04          	mov    %ecx,0x4(%rsp)
    36e6:	4c 8d 74 24 38       	lea    0x38(%rsp),%r14
    36eb:	4c 89 f7             	mov    %r14,%rdi
    36ee:	48 89 c6             	mov    %rax,%rsi
    36f1:	ba 04 00 00 00       	mov    $0x4,%edx
    36f6:	e8 35 ea ff ff       	call   2130 <_ZNSt14basic_ofstreamIcSt11char_traitsIcEEC1EPKcSt13_Ios_Openmode@plt>
    36fb:	48 8d 74 24 02       	lea    0x2(%rsp),%rsi
    3700:	ba 36 00 00 00       	mov    $0x36,%edx
    3705:	4c 89 f7             	mov    %r14,%rdi
    3708:	e8 73 ea ff ff       	call   2180 <_ZNSo5writeEPKcl@plt>
    370d:	48 8b 33             	mov    (%rbx),%rsi
    3710:	48 8b 53 08          	mov    0x8(%rbx),%rdx
    3714:	48 29 f2             	sub    %rsi,%rdx
    3717:	48 8d 7c 24 38       	lea    0x38(%rsp),%rdi
    371c:	e8 5f ea ff ff       	call   2180 <_ZNSo5writeEPKcl@plt>
    3721:	48 8d 7c 24 38       	lea    0x38(%rsp),%rdi
    3726:	e8 95 ea ff ff       	call   21c0 <_ZNSt14basic_ofstreamIcSt11char_traitsIcEED1Ev@plt>
    372b:	48 81 c4 38 02 00 00 	add    $0x238,%rsp
    3732:	5b                   	pop    %rbx
    3733:	41 5e                	pop    %r14
    3735:	c3                   	ret
    3736:	48 89 c3             	mov    %rax,%rbx
    3739:	48 8d 7c 24 38       	lea    0x38(%rsp),%rdi
    373e:	e8 7d ea ff ff       	call   21c0 <_ZNSt14basic_ofstreamIcSt11char_traitsIcEED1Ev@plt>
    3743:	48 89 df             	mov    %rbx,%rdi
    3746:	e8 b5 ea ff ff       	call   2200 <_Unwind_Resume@plt>
    374b:	0f 1f 44 00 00       	nopl   0x0(%rax,%rax,1)

0000000000003750 <_Z15iters_to_colorsjjRKSt6vectorIjSaIjEE>:
    3750:	55                   	push   %rbp
    3751:	41 57                	push   %r15
    3753:	41 56                	push   %r14
    3755:	41 55                	push   %r13
    3757:	41 54                	push   %r12
    3759:	53                   	push   %rbx
    375a:	48 83 ec 48          	sub    $0x48,%rsp
    375e:	48 89 4c 24 18       	mov    %rcx,0x18(%rsp)
    3763:	41 89 f7             	mov    %esi,%r15d
    3766:	49 89 fc             	mov    %rdi,%r12
    3769:	41 89 f5             	mov    %esi,%r13d
    376c:	89 54 24 04          	mov    %edx,0x4(%rsp)
    3770:	41 89 d2             	mov    %edx,%r10d
    3773:	85 f6                	test   %esi,%esi
    3775:	4c 89 7c 24 38       	mov    %r15,0x38(%rsp)
    377a:	0f 84 0d 03 00 00    	je     3a8d <_Z15iters_to_colorsjjRKSt6vectorIjSaIjEE+0x33d>
    3780:	48 8b 44 24 18       	mov    0x18(%rsp),%rax
    3785:	48 8b 00             	mov    (%rax),%rax
    3788:	49 8d 4d ff          	lea    -0x1(%r13),%rcx
    378c:	44 89 ea             	mov    %r13d,%edx
    378f:	83 e2 e0             	and    $0xffffffe0,%edx
    3792:	44 89 ee             	mov    %r13d,%esi
    3795:	83 e6 fc             	and    $0xfffffffc,%esi
    3798:	48 89 f7             	mov    %rsi,%rdi
    379b:	48 f7 df             	neg    %rdi
    379e:	45 31 c0             	xor    %r8d,%r8d
    37a1:	45 31 c9             	xor    %r9d,%r9d
    37a4:	44 8b 54 24 04       	mov    0x4(%rsp),%r10d
    37a9:	eb 14                	jmp    37bf <_Z15iters_to_colorsjjRKSt6vectorIjSaIjEE+0x6f>
    37ab:	0f 1f 44 00 00       	nopl   0x0(%rax,%rax,1)
    37b0:	41 ff c1             	inc    %r9d
    37b3:	4d 01 e8             	add    %r13,%r8
    37b6:	45 39 f9             	cmp    %r15d,%r9d
    37b9:	0f 84 ce 02 00 00    	je     3a8d <_Z15iters_to_colorsjjRKSt6vectorIjSaIjEE+0x33d>
    37bf:	41 83 ff 03          	cmp    $0x3,%r15d
    37c3:	76 20                	jbe    37e5 <_Z15iters_to_colorsjjRKSt6vectorIjSaIjEE+0x95>
    37c5:	49 89 cb             	mov    %rcx,%r11
    37c8:	49 c1 eb 20          	shr    $0x20,%r11
    37cc:	41 0f 95 c3          	setne  %r11b
    37d0:	44 89 fb             	mov    %r15d,%ebx
    37d3:	41 0f af d9          	imul   %r9d,%ebx
    37d7:	01 cb                	add    %ecx,%ebx
    37d9:	0f 92 c3             	setb   %bl
    37dc:	44 08 db             	or     %r11b,%bl
    37df:	0f 84 ab 01 00 00    	je     3990 <_Z15iters_to_colorsjjRKSt6vectorIjSaIjEE+0x240>
    37e5:	31 db                	xor    %ebx,%ebx
    37e7:	45 89 ee             	mov    %r13d,%r14d
    37ea:	41 29 de             	sub    %ebx,%r14d
    37ed:	49 89 db             	mov    %rbx,%r11
    37f0:	41 83 e6 07          	and    $0x7,%r14d
    37f4:	74 21                	je     3817 <_Z15iters_to_colorsjjRKSt6vectorIjSaIjEE+0xc7>
    37f6:	66 2e 0f 1f 84 00 00 	cs nopw 0x0(%rax,%rax,1)
    37fd:	00 00 00 
    3800:	47 8d 3c 18          	lea    (%r8,%r11,1),%r15d
    3804:	42 8b 2c b8          	mov    (%rax,%r15,4),%ebp
    3808:	44 39 d5             	cmp    %r10d,%ebp
    380b:	44 0f 42 d5          	cmovb  %ebp,%r10d
    380f:	49 ff c3             	inc    %r11
    3812:	49 ff ce             	dec    %r14
    3815:	75 e9                	jne    3800 <_Z15iters_to_colorsjjRKSt6vectorIjSaIjEE+0xb0>
    3817:	4c 29 eb             	sub    %r13,%rbx
    381a:	48 83 fb f8          	cmp    $0xfffffffffffffff8,%rbx
    381e:	4c 8b 7c 24 38       	mov    0x38(%rsp),%r15
    3823:	76 18                	jbe    383d <_Z15iters_to_colorsjjRKSt6vectorIjSaIjEE+0xed>
    3825:	eb 89                	jmp    37b0 <_Z15iters_to_colorsjjRKSt6vectorIjSaIjEE+0x60>
    3827:	66 0f 1f 84 00 00 00 	nopw   0x0(%rax,%rax,1)
    382e:	00 00 
    3830:	49 83 c3 08          	add    $0x8,%r11
    3834:	4d 39 dd             	cmp    %r11,%r13
    3837:	0f 84 73 ff ff ff    	je     37b0 <_Z15iters_to_colorsjjRKSt6vectorIjSaIjEE+0x60>
    383d:	43 8d 1c 18          	lea    (%r8,%r11,1),%ebx
    3841:	8b 1c 98             	mov    (%rax,%rbx,4),%ebx
    3844:	44 39 d3             	cmp    %r10d,%ebx
    3847:	0f 83 93 00 00 00    	jae    38e0 <_Z15iters_to_colorsjjRKSt6vectorIjSaIjEE+0x190>
    384d:	47 8d 14 18          	lea    (%r8,%r11,1),%r10d
    3851:	41 ff c2             	inc    %r10d
    3854:	46 8b 14 90          	mov    (%rax,%r10,4),%r10d
    3858:	41 39 da             	cmp    %ebx,%r10d
    385b:	0f 83 96 00 00 00    	jae    38f7 <_Z15iters_to_colorsjjRKSt6vectorIjSaIjEE+0x1a7>
    3861:	43 8d 1c 18          	lea    (%r8,%r11,1),%ebx
    3865:	83 c3 02             	add    $0x2,%ebx
    3868:	8b 1c 98             	mov    (%rax,%rbx,4),%ebx
    386b:	44 39 d3             	cmp    %r10d,%ebx
    386e:	0f 83 99 00 00 00    	jae    390d <_Z15iters_to_colorsjjRKSt6vectorIjSaIjEE+0x1bd>
    3874:	47 8d 14 18          	lea    (%r8,%r11,1),%r10d
    3878:	41 83 c2 03          	add    $0x3,%r10d
    387c:	46 8b 14 90          	mov    (%rax,%r10,4),%r10d
    3880:	41 39 da             	cmp    %ebx,%r10d
    3883:	0f 83 9c 00 00 00    	jae    3925 <_Z15iters_to_colorsjjRKSt6vectorIjSaIjEE+0x1d5>
    3889:	43 8d 1c 18          	lea    (%r8,%r11,1),%ebx
    388d:	83 c3 04             	add    $0x4,%ebx
    3890:	8b 1c 98             	mov    (%rax,%rbx,4),%ebx
    3893:	44 39 d3             	cmp    %r10d,%ebx
    3896:	0f 83 9f 00 00 00    	jae    393b <_Z15iters_to_colorsjjRKSt6vectorIjSaIjEE+0x1eb>
    389c:	47 8d 14 18          	lea    (%r8,%r11,1),%r10d
    38a0:	41 83 c2 05          	add    $0x5,%r10d
    38a4:	46 8b 14 90          	mov    (%rax,%r10,4),%r10d
    38a8:	41 39 da             	cmp    %ebx,%r10d
    38ab:	0f 83 a2 00 00 00    	jae    3953 <_Z15iters_to_colorsjjRKSt6vectorIjSaIjEE+0x203>
    38b1:	43 8d 1c 18          	lea    (%r8,%r11,1),%ebx
    38b5:	83 c3 06             	add    $0x6,%ebx
    38b8:	8b 1c 98             	mov    (%rax,%rbx,4),%ebx
    38bb:	44 39 d3             	cmp    %r10d,%ebx
    38be:	0f 83 a5 00 00 00    	jae    3969 <_Z15iters_to_colorsjjRKSt6vectorIjSaIjEE+0x219>
    38c4:	47 8d 14 18          	lea    (%r8,%r11,1),%r10d
    38c8:	41 83 c2 07          	add    $0x7,%r10d
    38cc:	46 8b 14 90          	mov    (%rax,%r10,4),%r10d
    38d0:	41 39 da             	cmp    %ebx,%r10d
    38d3:	0f 82 57 ff ff ff    	jb     3830 <_Z15iters_to_colorsjjRKSt6vectorIjSaIjEE+0xe0>
    38d9:	e9 a3 00 00 00       	jmp    3981 <_Z15iters_to_colorsjjRKSt6vectorIjSaIjEE+0x231>
    38de:	66 90                	xchg   %ax,%ax
    38e0:	44 89 d3             	mov    %r10d,%ebx
    38e3:	47 8d 14 18          	lea    (%r8,%r11,1),%r10d
    38e7:	41 ff c2             	inc    %r10d
    38ea:	46 8b 14 90          	mov    (%rax,%r10,4),%r10d
    38ee:	41 39 da             	cmp    %ebx,%r10d
    38f1:	0f 82 6a ff ff ff    	jb     3861 <_Z15iters_to_colorsjjRKSt6vectorIjSaIjEE+0x111>
    38f7:	41 89 da             	mov    %ebx,%r10d
    38fa:	43 8d 1c 18          	lea    (%r8,%r11,1),%ebx
    38fe:	83 c3 02             	add    $0x2,%ebx
    3901:	8b 1c 98             	mov    (%rax,%rbx,4),%ebx
    3904:	44 39 d3             	cmp    %r10d,%ebx
    3907:	0f 82 67 ff ff ff    	jb     3874 <_Z15iters_to_colorsjjRKSt6vectorIjSaIjEE+0x124>
    390d:	44 89 d3             	mov    %r10d,%ebx
    3910:	47 8d 14 18          	lea    (%r8,%r11,1),%r10d
    3914:	41 83 c2 03          	add    $0x3,%r10d
    3918:	46 8b 14 90          	mov    (%rax,%r10,4),%r10d
    391c:	41 39 da             	cmp    %ebx,%r10d
    391f:	0f 82 64 ff ff ff    	jb     3889 <_Z15iters_to_colorsjjRKSt6vectorIjSaIjEE+0x139>
    3925:	41 89 da             	mov    %ebx,%r10d
    3928:	43 8d 1c 18          	lea    (%r8,%r11,1),%ebx
    392c:	83 c3 04             	add    $0x4,%ebx
    392f:	8b 1c 98             	mov    (%rax,%rbx,4),%ebx
    3932:	44 39 d3             	cmp    %r10d,%ebx
    3935:	0f 82 61 ff ff ff    	jb     389c <_Z15iters_to_colorsjjRKSt6vectorIjSaIjEE+0x14c>
    393b:	44 89 d3             	mov    %r10d,%ebx
    393e:	47 8d 14 18          	lea    (%r8,%r11,1),%r10d
    3942:	41 83 c2 05          	add    $0x5,%r10d
    3946:	46 8b 14 90          	mov    (%rax,%r10,4),%r10d
    394a:	41 39 da             	cmp    %ebx,%r10d
    394d:	0f 82 5e ff ff ff    	jb     38b1 <_Z15iters_to_colorsjjRKSt6vectorIjSaIjEE+0x161>
    3953:	41 89 da             	mov    %ebx,%r10d
    3956:	43 8d 1c 18          	lea    (%r8,%r11,1),%ebx
    395a:	83 c3 06             	add    $0x6,%ebx
    395d:	8b 1c 98             	mov    (%rax,%rbx,4),%ebx
    3960:	44 39 d3             	cmp    %r10d,%ebx
    3963:	0f 82 5b ff ff ff    	jb     38c4 <_Z15iters_to_colorsjjRKSt6vectorIjSaIjEE+0x174>
    3969:	44 89 d3             	mov    %r10d,%ebx
    396c:	47 8d 14 18          	lea    (%r8,%r11,1),%r10d
    3970:	41 83 c2 07          	add    $0x7,%r10d
    3974:	46 8b 14 90          	mov    (%rax,%r10,4),%r10d
    3978:	41 39 da             	cmp    %ebx,%r10d
    397b:	0f 82 af fe ff ff    	jb     3830 <_Z15iters_to_colorsjjRKSt6vectorIjSaIjEE+0xe0>
    3981:	41 89 da             	mov    %ebx,%r10d
    3984:	e9 a7 fe ff ff       	jmp    3830 <_Z15iters_to_colorsjjRKSt6vectorIjSaIjEE+0xe0>
    3989:	0f 1f 80 00 00 00 00 	nopl   0x0(%rax)
    3990:	41 83 ff 20          	cmp    $0x20,%r15d
    3994:	73 08                	jae    399e <_Z15iters_to_colorsjjRKSt6vectorIjSaIjEE+0x24e>
    3996:	45 31 db             	xor    %r11d,%r11d
    3999:	e9 96 00 00 00       	jmp    3a34 <_Z15iters_to_colorsjjRKSt6vectorIjSaIjEE+0x2e4>
    399e:	62 d2 7d 28 7c c2    	vpbroadcastd %r10d,%ymm0
    39a4:	45 89 c2             	mov    %r8d,%r10d
    39a7:	49 89 d3             	mov    %rdx,%r11
    39aa:	c5 fd 6f c8          	vmovdqa %ymm0,%ymm1
    39ae:	c5 fd 6f d0          	vmovdqa %ymm0,%ymm2
    39b2:	c5 fd 6f d8          	vmovdqa %ymm0,%ymm3
    39b6:	66 2e 0f 1f 84 00 00 	cs nopw 0x0(%rax,%rax,1)
    39bd:	00 00 00 
    39c0:	44 89 d3             	mov    %r10d,%ebx
    39c3:	c4 e2 7d 3b 04 98    	vpminud (%rax,%rbx,4),%ymm0,%ymm0
    39c9:	c4 e2 75 3b 4c 98 20 	vpminud 0x20(%rax,%rbx,4),%ymm1,%ymm1
    39d0:	c4 e2 6d 3b 54 98 40 	vpminud 0x40(%rax,%rbx,4),%ymm2,%ymm2
    39d7:	c4 e2 65 3b 5c 98 60 	vpminud 0x60(%rax,%rbx,4),%ymm3,%ymm3
    39de:	41 83 c2 20          	add    $0x20,%r10d
    39e2:	49 83 c3 e0          	add    $0xffffffffffffffe0,%r11
    39e6:	75 d8                	jne    39c0 <_Z15iters_to_colorsjjRKSt6vectorIjSaIjEE+0x270>
    39e8:	c4 e2 7d 3b c1       	vpminud %ymm1,%ymm0,%ymm0
    39ed:	c4 e2 6d 3b cb       	vpminud %ymm3,%ymm2,%ymm1
    39f2:	c4 e2 7d 3b c1       	vpminud %ymm1,%ymm0,%ymm0
    39f7:	c4 e3 7d 39 c1 01    	vextracti128 $0x1,%ymm0,%xmm1
    39fd:	c4 e2 79 3b c1       	vpminud %xmm1,%xmm0,%xmm0
    3a02:	c5 f9 70 c8 ee       	vpshufd $0xee,%xmm0,%xmm1
    3a07:	c4 e2 79 3b c1       	vpminud %xmm1,%xmm0,%xmm0
    3a0c:	c5 f9 70 c8 55       	vpshufd $0x55,%xmm0,%xmm1
    3a11:	c4 e2 79 3b c1       	vpminud %xmm1,%xmm0,%xmm0
    3a16:	c4 c1 79 7e c2       	vmovd  %xmm0,%r10d
    3a1b:	44 39 ea             	cmp    %r13d,%edx
    3a1e:	0f 84 8c fd ff ff    	je     37b0 <_Z15iters_to_colorsjjRKSt6vectorIjSaIjEE+0x60>
    3a24:	48 89 d3             	mov    %rdx,%rbx
    3a27:	49 89 d3             	mov    %rdx,%r11
    3a2a:	41 f6 c5 1c          	test   $0x1c,%r13b
    3a2e:	0f 84 b3 fd ff ff    	je     37e7 <_Z15iters_to_colorsjjRKSt6vectorIjSaIjEE+0x97>
    3a34:	62 d2 7d 08 7c c2    	vpbroadcastd %r10d,%xmm0
    3a3a:	4e 8d 14 1f          	lea    (%rdi,%r11,1),%r10
    3a3e:	45 01 c3             	add    %r8d,%r11d
    3a41:	66 66 66 66 66 66 2e 	data16 data16 data16 data16 data16 cs nopw 0x0(%rax,%rax,1)
    3a48:	0f 1f 84 00 00 00 00 
    3a4f:	00 
    3a50:	44 89 db             	mov    %r11d,%ebx
    3a53:	c4 e2 79 3b 04 98    	vpminud (%rax,%rbx,4),%xmm0,%xmm0
    3a59:	41 83 c3 04          	add    $0x4,%r11d
    3a5d:	49 83 c2 04          	add    $0x4,%r10
    3a61:	75 ed                	jne    3a50 <_Z15iters_to_colorsjjRKSt6vectorIjSaIjEE+0x300>
    3a63:	c5 f9 70 c8 ee       	vpshufd $0xee,%xmm0,%xmm1
    3a68:	c4 e2 79 3b c1       	vpminud %xmm1,%xmm0,%xmm0
    3a6d:	c5 f9 70 c8 55       	vpshufd $0x55,%xmm0,%xmm1
    3a72:	c4 e2 79 3b c1       	vpminud %xmm1,%xmm0,%xmm0
    3a77:	c4 c1 79 7e c2       	vmovd  %xmm0,%r10d
    3a7c:	48 89 f3             	mov    %rsi,%rbx
    3a7f:	44 39 ee             	cmp    %r13d,%esi
    3a82:	0f 84 28 fd ff ff    	je     37b0 <_Z15iters_to_colorsjjRKSt6vectorIjSaIjEE+0x60>
    3a88:	e9 5a fd ff ff       	jmp    37e7 <_Z15iters_to_colorsjjRKSt6vectorIjSaIjEE+0x97>
    3a8d:	4c 89 6c 24 30       	mov    %r13,0x30(%rsp)
    3a92:	62 d1 5e 08 7b c2    	vcvtusi2ss %r10d,%xmm4,%xmm0
    3a98:	c5 fa 11 44 24 08    	vmovss %xmm0,0x8(%rsp)
    3a9e:	c5 f8 77             	vzeroupper
    3aa1:	e8 ca e6 ff ff       	call   2170 <log2f@plt>
    3aa6:	c5 fa 11 44 24 14    	vmovss %xmm0,0x14(%rsp)
    3aac:	62 f1 5e 08 7b 44 24 	vcvtusi2ssl 0x4(%rsp),%xmm4,%xmm0
    3ab3:	01 
    3ab4:	c5 fa 5e 44 24 08    	vdivss 0x8(%rsp),%xmm0,%xmm0
    3aba:	e8 b1 e6 ff ff       	call   2170 <log2f@plt>
    3abf:	44 89 f8             	mov    %r15d,%eax
    3ac2:	0f af c0             	imul   %eax,%eax
    3ac5:	85 c0                	test   %eax,%eax
    3ac7:	74 3b                	je     3b04 <_Z15iters_to_colorsjjRKSt6vectorIjSaIjEE+0x3b4>
    3ac9:	c5 fa 11 44 24 08    	vmovss %xmm0,0x8(%rsp)
    3acf:	8d 2c 40             	lea    (%rax,%rax,2),%ebp
    3ad2:	48 89 ef             	mov    %rbp,%rdi
    3ad5:	e8 36 e6 ff ff       	call   2110 <_Znwm@plt>
    3ada:	49 89 c5             	mov    %rax,%r13
    3add:	49 89 04 24          	mov    %rax,(%r12)
    3ae1:	48 8d 1c 28          	lea    (%rax,%rbp,1),%rbx
    3ae5:	49 89 5c 24 10       	mov    %rbx,0x10(%r12)
    3aea:	c6 00 00             	movb   $0x0,(%rax)
    3aed:	48 89 c7             	mov    %rax,%rdi
    3af0:	48 ff c7             	inc    %rdi
    3af3:	48 ff cd             	dec    %rbp
    3af6:	74 38                	je     3b30 <_Z15iters_to_colorsjjRKSt6vectorIjSaIjEE+0x3e0>
    3af8:	31 f6                	xor    %esi,%esi
    3afa:	48 89 ea             	mov    %rbp,%rdx
    3afd:	e8 9e e5 ff ff       	call   20a0 <memset@plt>
    3b02:	eb 2f                	jmp    3b33 <_Z15iters_to_colorsjjRKSt6vectorIjSaIjEE+0x3e3>
    3b04:	c5 f1 ef c9          	vpxor  %xmm1,%xmm1,%xmm1
    3b08:	c4 c1 7a 7f 0c 24    	vmovdqu %xmm1,(%r12)
    3b0e:	49 c7 44 24 10 00 00 	movq   $0x0,0x10(%r12)
    3b15:	00 00 
    3b17:	45 31 ed             	xor    %r13d,%r13d
    3b1a:	31 db                	xor    %ebx,%ebx
    3b1c:	4c 89 64 24 40       	mov    %r12,0x40(%rsp)
    3b21:	49 89 5c 24 08       	mov    %rbx,0x8(%r12)
    3b26:	45 85 ff             	test   %r15d,%r15d
    3b29:	75 21                	jne    3b4c <_Z15iters_to_colorsjjRKSt6vectorIjSaIjEE+0x3fc>
    3b2b:	e9 fb 01 00 00       	jmp    3d2b <_Z15iters_to_colorsjjRKSt6vectorIjSaIjEE+0x5db>
    3b30:	48 89 fb             	mov    %rdi,%rbx
    3b33:	c5 fa 10 44 24 08    	vmovss 0x8(%rsp),%xmm0
    3b39:	4c 89 64 24 40       	mov    %r12,0x40(%rsp)
    3b3e:	49 89 5c 24 08       	mov    %rbx,0x8(%r12)
    3b43:	45 85 ff             	test   %r15d,%r15d
    3b46:	0f 84 df 01 00 00    	je     3d2b <_Z15iters_to_colorsjjRKSt6vectorIjSaIjEE+0x5db>
    3b4c:	48 8b 44 24 18       	mov    0x18(%rsp),%rax
    3b51:	48 8b 28             	mov    (%rax),%rbp
    3b54:	4c 8b 64 24 30       	mov    0x30(%rsp),%r12
    3b59:	41 83 e4 fe          	and    $0xfffffffe,%r12d
    3b5d:	c5 fa 10 0d 9f 74 00 	vmovss 0x749f(%rip),%xmm1        # b004 <_IO_stdin_used+0x4>
    3b64:	00 
    3b65:	c5 f2 5e c0          	vdivss %xmm0,%xmm1,%xmm0
    3b69:	c5 fa 11 44 24 18    	vmovss %xmm0,0x18(%rsp)
    3b6f:	43 8d 04 7f          	lea    (%r15,%r15,2),%eax
    3b73:	89 44 24 2c          	mov    %eax,0x2c(%rsp)
    3b77:	31 db                	xor    %ebx,%ebx
    3b79:	b8 05 00 00 00       	mov    $0x5,%eax
    3b7e:	b9 01 00 00 00       	mov    $0x1,%ecx
    3b83:	eb 6c                	jmp    3bf1 <_Z15iters_to_colorsjjRKSt6vectorIjSaIjEE+0x4a1>
    3b85:	66 66 2e 0f 1f 84 00 	data16 cs nopw 0x0(%rax,%rax,1)
    3b8c:	00 00 00 00 
    3b90:	62 f1 5e 08 7b c0    	vcvtusi2ss %eax,%xmm4,%xmm0
    3b96:	e8 d5 e5 ff ff       	call   2170 <log2f@plt>
    3b9b:	c5 fa 5c 44 24 14    	vsubss 0x14(%rsp),%xmm0,%xmm0
    3ba1:	c5 fa 59 05 73 74 00 	vmulss 0x7473(%rip),%xmm0,%xmm0        # b01c <_IO_stdin_used+0x1c>
    3ba8:	00 
    3ba9:	c5 fa 59 44 24 18    	vmulss 0x18(%rsp),%xmm0,%xmm0
    3baf:	c5 fa 2c c0          	vcvttss2si %xmm0,%eax
    3bb3:	04 20                	add    $0x20,%al
    3bb5:	b1 20                	mov    $0x20,%cl
    3bb7:	8d 14 5b             	lea    (%rbx,%rbx,2),%edx
    3bba:	41 88 4c 15 00       	mov    %cl,0x0(%r13,%rdx,1)
    3bbf:	8d 14 5b             	lea    (%rbx,%rbx,2),%edx
    3bc2:	ff c2                	inc    %edx
    3bc4:	41 88 44 15 00       	mov    %al,0x0(%r13,%rdx,1)
    3bc9:	8d 44 5b 02          	lea    0x2(%rbx,%rbx,2),%eax
    3bcd:	41 88 4c 05 00       	mov    %cl,0x0(%r13,%rax,1)
    3bd2:	48 8b 5c 24 08       	mov    0x8(%rsp),%rbx
    3bd7:	8b 44 24 28          	mov    0x28(%rsp),%eax
    3bdb:	8b 4c 24 24          	mov    0x24(%rsp),%ecx
    3bdf:	ff c3                	inc    %ebx
    3be1:	03 44 24 2c          	add    0x2c(%rsp),%eax
    3be5:	44 01 f9             	add    %r15d,%ecx
    3be8:	44 39 fb             	cmp    %r15d,%ebx
    3beb:	0f 84 3a 01 00 00    	je     3d2b <_Z15iters_to_colorsjjRKSt6vectorIjSaIjEE+0x5db>
    3bf1:	41 be 00 00 00 00    	mov    $0x0,%r14d
    3bf7:	41 83 ff 01          	cmp    $0x1,%r15d
    3bfb:	48 89 5c 24 08       	mov    %rbx,0x8(%rsp)
    3c00:	89 44 24 28          	mov    %eax,0x28(%rsp)
    3c04:	89 4c 24 24          	mov    %ecx,0x24(%rsp)
    3c08:	0f 84 f4 00 00 00    	je     3d02 <_Z15iters_to_colorsjjRKSt6vectorIjSaIjEE+0x5b2>
    3c0e:	41 89 cf             	mov    %ecx,%r15d
    3c11:	89 c3                	mov    %eax,%ebx
    3c13:	45 31 f6             	xor    %r14d,%r14d
    3c16:	eb 5a                	jmp    3c72 <_Z15iters_to_colorsjjRKSt6vectorIjSaIjEE+0x522>
    3c18:	0f 1f 84 00 00 00 00 	nopl   0x0(%rax,%rax,1)
    3c1f:	00 
    3c20:	62 f1 5e 08 7b c0    	vcvtusi2ss %eax,%xmm4,%xmm0
    3c26:	e8 45 e5 ff ff       	call   2170 <log2f@plt>
    3c2b:	c5 fa 5c 44 24 14    	vsubss 0x14(%rsp),%xmm0,%xmm0
    3c31:	c5 fa 59 05 e3 73 00 	vmulss 0x73e3(%rip),%xmm0,%xmm0        # b01c <_IO_stdin_used+0x1c>
    3c38:	00 
    3c39:	c5 fa 59 44 24 18    	vmulss 0x18(%rsp),%xmm0,%xmm0
    3c3f:	c5 fa 2c c0          	vcvttss2si %xmm0,%eax
    3c43:	04 20                	add    $0x20,%al
    3c45:	b1 20                	mov    $0x20,%cl
    3c47:	8d 53 fe             	lea    -0x2(%rbx),%edx
    3c4a:	41 88 4c 15 00       	mov    %cl,0x0(%r13,%rdx,1)
    3c4f:	8d 53 ff             	lea    -0x1(%rbx),%edx
    3c52:	41 88 44 15 00       	mov    %al,0x0(%r13,%rdx,1)
    3c57:	89 d8                	mov    %ebx,%eax
    3c59:	41 88 4c 05 00       	mov    %cl,0x0(%r13,%rax,1)
    3c5e:	49 83 c6 02          	add    $0x2,%r14
    3c62:	83 c3 06             	add    $0x6,%ebx
    3c65:	41 83 c7 02          	add    $0x2,%r15d
    3c69:	4d 39 f4             	cmp    %r14,%r12
    3c6c:	0f 84 7e 00 00 00    	je     3cf0 <_Z15iters_to_colorsjjRKSt6vectorIjSaIjEE+0x5a0>
    3c72:	41 8d 47 ff          	lea    -0x1(%r15),%eax
    3c76:	8b 44 85 00          	mov    0x0(%rbp,%rax,4),%eax
    3c7a:	3b 44 24 04          	cmp    0x4(%rsp),%eax
    3c7e:	73 30                	jae    3cb0 <_Z15iters_to_colorsjjRKSt6vectorIjSaIjEE+0x560>
    3c80:	62 f1 5e 08 7b c0    	vcvtusi2ss %eax,%xmm4,%xmm0
    3c86:	e8 e5 e4 ff ff       	call   2170 <log2f@plt>
    3c8b:	c5 fa 5c 44 24 14    	vsubss 0x14(%rsp),%xmm0,%xmm0
    3c91:	c5 fa 59 05 83 73 00 	vmulss 0x7383(%rip),%xmm0,%xmm0        # b01c <_IO_stdin_used+0x1c>
    3c98:	00 
    3c99:	c5 fa 59 44 24 18    	vmulss 0x18(%rsp),%xmm0,%xmm0
    3c9f:	c5 fa 2c c0          	vcvttss2si %xmm0,%eax
    3ca3:	04 20                	add    $0x20,%al
    3ca5:	b1 20                	mov    $0x20,%cl
    3ca7:	eb 0b                	jmp    3cb4 <_Z15iters_to_colorsjjRKSt6vectorIjSaIjEE+0x564>
    3ca9:	0f 1f 80 00 00 00 00 	nopl   0x0(%rax)
    3cb0:	31 c0                	xor    %eax,%eax
    3cb2:	31 c9                	xor    %ecx,%ecx
    3cb4:	8d 53 fb             	lea    -0x5(%rbx),%edx
    3cb7:	41 88 4c 15 00       	mov    %cl,0x0(%r13,%rdx,1)
    3cbc:	8d 53 fc             	lea    -0x4(%rbx),%edx
    3cbf:	41 88 44 15 00       	mov    %al,0x0(%r13,%rdx,1)
    3cc4:	8d 43 fd             	lea    -0x3(%rbx),%eax
    3cc7:	41 88 4c 05 00       	mov    %cl,0x0(%r13,%rax,1)
    3ccc:	44 89 f8             	mov    %r15d,%eax
    3ccf:	8b 44 85 00          	mov    0x0(%rbp,%rax,4),%eax
    3cd3:	3b 44 24 04          	cmp    0x4(%rsp),%eax
    3cd7:	0f 82 43 ff ff ff    	jb     3c20 <_Z15iters_to_colorsjjRKSt6vectorIjSaIjEE+0x4d0>
    3cdd:	31 c0                	xor    %eax,%eax
    3cdf:	31 c9                	xor    %ecx,%ecx
    3ce1:	e9 61 ff ff ff       	jmp    3c47 <_Z15iters_to_colorsjjRKSt6vectorIjSaIjEE+0x4f7>
    3ce6:	66 2e 0f 1f 84 00 00 	cs nopw 0x0(%rax,%rax,1)
    3ced:	00 00 00 
    3cf0:	4c 8b 7c 24 38       	mov    0x38(%rsp),%r15
    3cf5:	48 8b 5c 24 08       	mov    0x8(%rsp),%rbx
    3cfa:	8b 44 24 28          	mov    0x28(%rsp),%eax
    3cfe:	8b 4c 24 24          	mov    0x24(%rsp),%ecx
    3d02:	f6 44 24 30 01       	testb  $0x1,0x30(%rsp)
    3d07:	0f 84 d2 fe ff ff    	je     3bdf <_Z15iters_to_colorsjjRKSt6vectorIjSaIjEE+0x48f>
    3d0d:	41 0f af df          	imul   %r15d,%ebx
    3d11:	44 01 f3             	add    %r14d,%ebx
    3d14:	8b 44 9d 00          	mov    0x0(%rbp,%rbx,4),%eax
    3d18:	3b 44 24 04          	cmp    0x4(%rsp),%eax
    3d1c:	0f 82 6e fe ff ff    	jb     3b90 <_Z15iters_to_colorsjjRKSt6vectorIjSaIjEE+0x440>
    3d22:	31 c0                	xor    %eax,%eax
    3d24:	31 c9                	xor    %ecx,%ecx
    3d26:	e9 8c fe ff ff       	jmp    3bb7 <_Z15iters_to_colorsjjRKSt6vectorIjSaIjEE+0x467>
    3d2b:	48 8b 44 24 40       	mov    0x40(%rsp),%rax
    3d30:	48 83 c4 48          	add    $0x48,%rsp
    3d34:	5b                   	pop    %rbx
    3d35:	41 5c                	pop    %r12
    3d37:	41 5d                	pop    %r13
    3d39:	41 5e                	pop    %r14
    3d3b:	41 5f                	pop    %r15
    3d3d:	5d                   	pop    %rbp
    3d3e:	c3                   	ret
    3d3f:	90                   	nop

0000000000003d40 <_Z10differencejjRSt6vectorIjSaIjEES2_>:
    3d40:	85 ff                	test   %edi,%edi
    3d42:	0f 84 bf 02 00 00    	je     4007 <_Z10differencejjRSt6vectorIjSaIjEES2_+0x2c7>
    3d48:	55                   	push   %rbp
    3d49:	41 57                	push   %r15
    3d4b:	41 56                	push   %r14
    3d4d:	41 55                	push   %r13
    3d4f:	41 54                	push   %r12
    3d51:	53                   	push   %rbx
    3d52:	89 74 24 e4          	mov    %esi,-0x1c(%rsp)
    3d56:	48 8b 02             	mov    (%rdx),%rax
    3d59:	48 8b 09             	mov    (%rcx),%rcx
    3d5c:	89 fa                	mov    %edi,%edx
    3d5e:	4c 8d 42 ff          	lea    -0x1(%rdx),%r8
    3d62:	89 d6                	mov    %edx,%esi
    3d64:	83 e6 f0             	and    $0xfffffff0,%esi
    3d67:	48 89 74 24 e8       	mov    %rsi,-0x18(%rsp)
    3d6c:	89 d6                	mov    %edx,%esi
    3d6e:	83 e6 fc             	and    $0xfffffffc,%esi
    3d71:	89 d3                	mov    %edx,%ebx
    3d73:	83 e3 03             	and    $0x3,%ebx
    3d76:	48 89 74 24 f8       	mov    %rsi,-0x8(%rsp)
    3d7b:	48 f7 de             	neg    %rsi
    3d7e:	48 89 74 24 f0       	mov    %rsi,-0x10(%rsp)
    3d83:	45 31 f6             	xor    %r14d,%r14d
    3d86:	31 ed                	xor    %ebp,%ebp
    3d88:	45 31 ff             	xor    %r15d,%r15d
    3d8b:	eb 10                	jmp    3d9d <_Z10differencejjRSt6vectorIjSaIjEES2_+0x5d>
    3d8d:	0f 1f 00             	nopl   (%rax)
    3d90:	ff c5                	inc    %ebp
    3d92:	49 01 d6             	add    %rdx,%r14
    3d95:	39 fd                	cmp    %edi,%ebp
    3d97:	0f 84 55 02 00 00    	je     3ff2 <_Z10differencejjRSt6vectorIjSaIjEES2_+0x2b2>
    3d9d:	83 ff 03             	cmp    $0x3,%edi
    3da0:	76 22                	jbe    3dc4 <_Z10differencejjRSt6vectorIjSaIjEES2_+0x84>
    3da2:	4c 89 c6             	mov    %r8,%rsi
    3da5:	48 c1 ee 20          	shr    $0x20,%rsi
    3da9:	40 0f 95 c6          	setne  %sil
    3dad:	41 89 f9             	mov    %edi,%r9d
    3db0:	44 0f af cd          	imul   %ebp,%r9d
    3db4:	45 01 c1             	add    %r8d,%r9d
    3db7:	41 0f 92 c1          	setb   %r9b
    3dbb:	41 08 f1             	or     %sil,%r9b
    3dbe:	0f 84 ec 00 00 00    	je     3eb0 <_Z10differencejjRSt6vectorIjSaIjEES2_+0x170>
    3dc4:	45 31 ed             	xor    %r13d,%r13d
    3dc7:	48 85 db             	test   %rbx,%rbx
    3dca:	74 44                	je     3e10 <_Z10differencejjRSt6vectorIjSaIjEES2_+0xd0>
    3dcc:	49 89 db             	mov    %rbx,%r11
    3dcf:	4d 89 ec             	mov    %r13,%r12
    3dd2:	66 66 66 66 66 2e 0f 	data16 data16 data16 data16 cs nopw 0x0(%rax,%rax,1)
    3dd9:	1f 84 00 00 00 00 00 
    3de0:	43 8d 34 26          	lea    (%r14,%r12,1),%esi
    3de4:	44 8b 0c b0          	mov    (%rax,%rsi,4),%r9d
    3de8:	8b 34 b1             	mov    (%rcx,%rsi,4),%esi
    3deb:	45 89 ca             	mov    %r9d,%r10d
    3dee:	41 29 f2             	sub    %esi,%r10d
    3df1:	44 29 ce             	sub    %r9d,%esi
    3df4:	41 0f 4c f2          	cmovl  %r10d,%esi
    3df8:	49 01 f7             	add    %rsi,%r15
    3dfb:	49 ff c4             	inc    %r12
    3dfe:	49 ff cb             	dec    %r11
    3e01:	75 dd                	jne    3de0 <_Z10differencejjRSt6vectorIjSaIjEES2_+0xa0>
    3e03:	49 29 d5             	sub    %rdx,%r13
    3e06:	49 83 fd fc          	cmp    $0xfffffffffffffffc,%r13
    3e0a:	76 14                	jbe    3e20 <_Z10differencejjRSt6vectorIjSaIjEES2_+0xe0>
    3e0c:	eb 82                	jmp    3d90 <_Z10differencejjRSt6vectorIjSaIjEES2_+0x50>
    3e0e:	66 90                	xchg   %ax,%ax
    3e10:	4d 89 ec             	mov    %r13,%r12
    3e13:	49 29 d5             	sub    %rdx,%r13
    3e16:	49 83 fd fc          	cmp    $0xfffffffffffffffc,%r13
    3e1a:	0f 87 70 ff ff ff    	ja     3d90 <_Z10differencejjRSt6vectorIjSaIjEES2_+0x50>
    3e20:	43 8d 34 26          	lea    (%r14,%r12,1),%esi
    3e24:	44 8b 0c b0          	mov    (%rax,%rsi,4),%r9d
    3e28:	44 8b 2c b1          	mov    (%rcx,%rsi,4),%r13d
    3e2c:	44 89 ce             	mov    %r9d,%esi
    3e2f:	44 29 ee             	sub    %r13d,%esi
    3e32:	45 29 cd             	sub    %r9d,%r13d
    3e35:	44 0f 4c ee          	cmovl  %esi,%r13d
    3e39:	4d 01 fd             	add    %r15,%r13
    3e3c:	43 8d 34 26          	lea    (%r14,%r12,1),%esi
    3e40:	ff c6                	inc    %esi
    3e42:	44 8b 0c b0          	mov    (%rax,%rsi,4),%r9d
    3e46:	8b 34 b1             	mov    (%rcx,%rsi,4),%esi
    3e49:	45 89 ca             	mov    %r9d,%r10d
    3e4c:	41 29 f2             	sub    %esi,%r10d
    3e4f:	44 29 ce             	sub    %r9d,%esi
    3e52:	41 0f 4c f2          	cmovl  %r10d,%esi
    3e56:	47 8d 4c 26 02       	lea    0x2(%r14,%r12,1),%r9d
    3e5b:	46 8b 14 88          	mov    (%rax,%r9,4),%r10d
    3e5f:	46 8b 0c 89          	mov    (%rcx,%r9,4),%r9d
    3e63:	45 89 d3             	mov    %r10d,%r11d
    3e66:	45 29 cb             	sub    %r9d,%r11d
    3e69:	45 29 d1             	sub    %r10d,%r9d
    3e6c:	45 0f 4c cb          	cmovl  %r11d,%r9d
    3e70:	49 01 f1             	add    %rsi,%r9
    3e73:	4d 01 e9             	add    %r13,%r9
    3e76:	43 8d 34 26          	lea    (%r14,%r12,1),%esi
    3e7a:	83 c6 03             	add    $0x3,%esi
    3e7d:	44 8b 14 b0          	mov    (%rax,%rsi,4),%r10d
    3e81:	44 8b 3c b1          	mov    (%rcx,%rsi,4),%r15d
    3e85:	44 89 d6             	mov    %r10d,%esi
    3e88:	44 29 fe             	sub    %r15d,%esi
    3e8b:	45 29 d7             	sub    %r10d,%r15d
    3e8e:	44 0f 4c fe          	cmovl  %esi,%r15d
    3e92:	4d 01 cf             	add    %r9,%r15
    3e95:	49 83 c4 04          	add    $0x4,%r12
    3e99:	4c 39 e2             	cmp    %r12,%rdx
    3e9c:	75 82                	jne    3e20 <_Z10differencejjRSt6vectorIjSaIjEES2_+0xe0>
    3e9e:	e9 ed fe ff ff       	jmp    3d90 <_Z10differencejjRSt6vectorIjSaIjEES2_+0x50>
    3ea3:	66 66 66 66 2e 0f 1f 	data16 data16 data16 cs nopw 0x0(%rax,%rax,1)
    3eaa:	84 00 00 00 00 00 
    3eb0:	83 ff 10             	cmp    $0x10,%edi
    3eb3:	73 08                	jae    3ebd <_Z10differencejjRSt6vectorIjSaIjEES2_+0x17d>
    3eb5:	45 31 e4             	xor    %r12d,%r12d
    3eb8:	e9 d2 00 00 00       	jmp    3f8f <_Z10differencejjRSt6vectorIjSaIjEES2_+0x24f>
    3ebd:	c4 c1 f9 6e c7       	vmovq  %r15,%xmm0
    3ec2:	c5 f1 ef c9          	vpxor  %xmm1,%xmm1,%xmm1
    3ec6:	45 89 f7             	mov    %r14d,%r15d
    3ec9:	4c 8b 4c 24 e8       	mov    -0x18(%rsp),%r9
    3ece:	4d 89 cc             	mov    %r9,%r12
    3ed1:	c5 e9 ef d2          	vpxor  %xmm2,%xmm2,%xmm2
    3ed5:	c5 e1 ef db          	vpxor  %xmm3,%xmm3,%xmm3
    3ed9:	0f 1f 80 00 00 00 00 	nopl   0x0(%rax)
    3ee0:	44 89 fe             	mov    %r15d,%esi
    3ee3:	c5 fa 6f 24 b0       	vmovdqu (%rax,%rsi,4),%xmm4
    3ee8:	c5 fa 6f 6c b0 10    	vmovdqu 0x10(%rax,%rsi,4),%xmm5
    3eee:	c5 fa 6f 74 b0 20    	vmovdqu 0x20(%rax,%rsi,4),%xmm6
    3ef4:	c5 fa 6f 7c b0 30    	vmovdqu 0x30(%rax,%rsi,4),%xmm7
    3efa:	c5 d9 fa 24 b1       	vpsubd (%rcx,%rsi,4),%xmm4,%xmm4
    3eff:	c5 d1 fa 6c b1 10    	vpsubd 0x10(%rcx,%rsi,4),%xmm5,%xmm5
    3f05:	c5 c9 fa 74 b1 20    	vpsubd 0x20(%rcx,%rsi,4),%xmm6,%xmm6
    3f0b:	c5 c1 fa 7c b1 30    	vpsubd 0x30(%rcx,%rsi,4),%xmm7,%xmm7
    3f11:	c4 e2 79 1e e4       	vpabsd %xmm4,%xmm4
    3f16:	c4 e2 79 1e ed       	vpabsd %xmm5,%xmm5
    3f1b:	c4 e2 79 1e f6       	vpabsd %xmm6,%xmm6
    3f20:	c4 e2 79 1e ff       	vpabsd %xmm7,%xmm7
    3f25:	c4 e2 7d 35 e4       	vpmovzxdq %xmm4,%ymm4
    3f2a:	c5 fd d4 c4          	vpaddq %ymm4,%ymm0,%ymm0
    3f2e:	c4 e2 7d 35 e5       	vpmovzxdq %xmm5,%ymm4
    3f33:	c5 f5 d4 cc          	vpaddq %ymm4,%ymm1,%ymm1
    3f37:	c4 e2 7d 35 e6       	vpmovzxdq %xmm6,%ymm4
    3f3c:	c5 ed d4 d4          	vpaddq %ymm4,%ymm2,%ymm2
    3f40:	c4 e2 7d 35 e7       	vpmovzxdq %xmm7,%ymm4
    3f45:	c5 e5 d4 dc          	vpaddq %ymm4,%ymm3,%ymm3
    3f49:	41 83 c7 10          	add    $0x10,%r15d
    3f4d:	49 83 c4 f0          	add    $0xfffffffffffffff0,%r12
    3f51:	75 8d                	jne    3ee0 <_Z10differencejjRSt6vectorIjSaIjEES2_+0x1a0>
    3f53:	c5 f5 d4 c0          	vpaddq %ymm0,%ymm1,%ymm0
    3f57:	c5 ed d4 c0          	vpaddq %ymm0,%ymm2,%ymm0
    3f5b:	c5 e5 d4 c0          	vpaddq %ymm0,%ymm3,%ymm0
    3f5f:	c4 e3 7d 39 c1 01    	vextracti128 $0x1,%ymm0,%xmm1
    3f65:	c5 f9 d4 c1          	vpaddq %xmm1,%xmm0,%xmm0
    3f69:	c5 f9 70 c8 ee       	vpshufd $0xee,%xmm0,%xmm1
    3f6e:	c5 f9 d4 c1          	vpaddq %xmm1,%xmm0,%xmm0
    3f72:	c4 c1 f9 7e c7       	vmovq  %xmm0,%r15
    3f77:	41 39 d1             	cmp    %edx,%r9d
    3f7a:	0f 84 10 fe ff ff    	je     3d90 <_Z10differencejjRSt6vectorIjSaIjEES2_+0x50>
    3f80:	4d 89 cd             	mov    %r9,%r13
    3f83:	4d 89 cc             	mov    %r9,%r12
    3f86:	f6 c2 0c             	test   $0xc,%dl
    3f89:	0f 84 38 fe ff ff    	je     3dc7 <_Z10differencejjRSt6vectorIjSaIjEES2_+0x87>
    3f8f:	c4 c1 f9 6e c7       	vmovq  %r15,%xmm0
    3f94:	48 8b 74 24 f0       	mov    -0x10(%rsp),%rsi
    3f99:	4e 8d 1c 26          	lea    (%rsi,%r12,1),%r11
    3f9d:	45 01 f4             	add    %r14d,%r12d
    3fa0:	44 89 e6             	mov    %r12d,%esi
    3fa3:	c5 fa 6f 0c b0       	vmovdqu (%rax,%rsi,4),%xmm1
    3fa8:	c5 f1 fa 0c b1       	vpsubd (%rcx,%rsi,4),%xmm1,%xmm1
    3fad:	c4 e2 79 1e c9       	vpabsd %xmm1,%xmm1
    3fb2:	c4 e2 7d 35 c9       	vpmovzxdq %xmm1,%ymm1
    3fb7:	c5 fd d4 c1          	vpaddq %ymm1,%ymm0,%ymm0
    3fbb:	41 83 c4 04          	add    $0x4,%r12d
    3fbf:	49 83 c3 04          	add    $0x4,%r11
    3fc3:	75 db                	jne    3fa0 <_Z10differencejjRSt6vectorIjSaIjEES2_+0x260>
    3fc5:	c4 e3 7d 39 c1 01    	vextracti128 $0x1,%ymm0,%xmm1
    3fcb:	c5 f9 d4 c1          	vpaddq %xmm1,%xmm0,%xmm0
    3fcf:	c5 f9 70 c8 ee       	vpshufd $0xee,%xmm0,%xmm1
    3fd4:	c5 f9 d4 c1          	vpaddq %xmm1,%xmm0,%xmm0
    3fd8:	c4 c1 f9 7e c7       	vmovq  %xmm0,%r15
    3fdd:	48 8b 74 24 f8       	mov    -0x8(%rsp),%rsi
    3fe2:	49 89 f5             	mov    %rsi,%r13
    3fe5:	39 d6                	cmp    %edx,%esi
    3fe7:	0f 84 a3 fd ff ff    	je     3d90 <_Z10differencejjRSt6vectorIjSaIjEES2_+0x50>
    3fed:	e9 d5 fd ff ff       	jmp    3dc7 <_Z10differencejjRSt6vectorIjSaIjEES2_+0x87>
    3ff2:	c4 c1 bb 2a c7       	vcvtsi2sd %r15,%xmm8,%xmm0
    3ff7:	8b 74 24 e4          	mov    -0x1c(%rsp),%esi
    3ffb:	5b                   	pop    %rbx
    3ffc:	41 5c                	pop    %r12
    3ffe:	41 5d                	pop    %r13
    4000:	41 5e                	pop    %r14
    4002:	41 5f                	pop    %r15
    4004:	5d                   	pop    %rbp
    4005:	eb 04                	jmp    400b <_Z10differencejjRSt6vectorIjSaIjEES2_+0x2cb>
    4007:	c5 f9 57 c0          	vxorpd %xmm0,%xmm0,%xmm0
    400b:	0f af ff             	imul   %edi,%edi
    400e:	0f af fe             	imul   %esi,%edi
    4011:	62 f1 3f 08 7b cf    	vcvtusi2sd %edi,%xmm8,%xmm1
    4017:	c5 fb 5e c1          	vdivsd %xmm1,%xmm0,%xmm0
    401b:	c5 f8 77             	vzeroupper
    401e:	c3                   	ret
    401f:	90                   	nop

0000000000004020 <_Z10dump_imagePKcjjRKSt6vectorIjSaIjEE>:
    4020:	41 57                	push   %r15
    4022:	41 56                	push   %r14
    4024:	53                   	push   %rbx
    4025:	48 83 ec 20          	sub    $0x20,%rsp
    4029:	89 f3                	mov    %esi,%ebx
    402b:	49 89 fe             	mov    %rdi,%r14
    402e:	4c 8d 7c 24 08       	lea    0x8(%rsp),%r15
    4033:	4c 89 ff             	mov    %r15,%rdi
    4036:	e8 15 f7 ff ff       	call   3750 <_Z15iters_to_colorsjjRKSt6vectorIjSaIjEE>
    403b:	4c 89 f7             	mov    %r14,%rdi
    403e:	89 de                	mov    %ebx,%esi
    4040:	4c 89 fa             	mov    %r15,%rdx
    4043:	e8 38 f6 ff ff       	call   3680 <_Z8writeBMPPKcjRKSt6vectorIhSaIhEE>
    4048:	48 8b 7c 24 08       	mov    0x8(%rsp),%rdi
    404d:	48 85 ff             	test   %rdi,%rdi
    4050:	74 16                	je     4068 <_Z10dump_imagePKcjjRKSt6vectorIjSaIjEE+0x48>
    4052:	48 8b 74 24 18       	mov    0x18(%rsp),%rsi
    4057:	48 29 fe             	sub    %rdi,%rsi
    405a:	48 83 c4 20          	add    $0x20,%rsp
    405e:	5b                   	pop    %rbx
    405f:	41 5e                	pop    %r14
    4061:	41 5f                	pop    %r15
    4063:	e9 b8 e0 ff ff       	jmp    2120 <_ZdlPvm@plt>
    4068:	48 83 c4 20          	add    $0x20,%rsp
    406c:	5b                   	pop    %rbx
    406d:	41 5e                	pop    %r14
    406f:	41 5f                	pop    %r15
    4071:	c3                   	ret
    4072:	48 89 c3             	mov    %rax,%rbx
    4075:	48 8b 7c 24 08       	mov    0x8(%rsp),%rdi
    407a:	48 85 ff             	test   %rdi,%rdi
    407d:	74 0d                	je     408c <_Z10dump_imagePKcjjRKSt6vectorIjSaIjEE+0x6c>
    407f:	48 8b 74 24 18       	mov    0x18(%rsp),%rsi
    4084:	48 29 fe             	sub    %rdi,%rsi
    4087:	e8 94 e0 ff ff       	call   2120 <_ZdlPvm@plt>
    408c:	48 89 df             	mov    %rbx,%rdi
    408f:	e8 6c e1 ff ff       	call   2200 <_Unwind_Resume@plt>
    4094:	66 66 66 2e 0f 1f 84 	data16 data16 cs nopw 0x0(%rax,%rax,1)
    409b:	00 00 00 00 00 

00000000000040a0 <main>:
    40a0:	55                   	push   %rbp
    40a1:	41 57                	push   %r15
    40a3:	41 56                	push   %r14
    40a5:	41 55                	push   %r13
    40a7:	41 54                	push   %r12
    40a9:	53                   	push   %rbx
    40aa:	48 81 ec a8 02 00 00 	sub    $0x2a8,%rsp
    40b1:	c7 44 24 5c 00 04 00 	movl   $0x400,0x5c(%rsp)
    40b8:	00 
    40b9:	c7 44 24 6c d0 07 00 	movl   $0x7d0,0x6c(%rsp)
    40c0:	00 
    40c1:	c7 44 24 7c 06 00 00 	movl   $0x6,0x7c(%rsp)
    40c8:	00 
    40c9:	48 8d 54 24 5c       	lea    0x5c(%rsp),%rdx
    40ce:	48 8d 4c 24 6c       	lea    0x6c(%rsp),%rcx
    40d3:	4c 8d 44 24 7c       	lea    0x7c(%rsp),%r8
    40d8:	e8 83 f1 ff ff       	call   3260 <_Z20ParseArgsAndMakeSpeciPPcPjS1_P14MandelbrotImpl>
    40dd:	89 c1                	mov    %eax,%ecx
    40df:	b8 ff ff ff ff       	mov    $0xffffffff,%eax
    40e4:	85 c9                	test   %ecx,%ecx
    40e6:	0f 85 60 57 00 00    	jne    984c <main+0x57ac>
    40ec:	44 8b 64 24 5c       	mov    0x5c(%rsp),%r12d
    40f1:	45 89 e5             	mov    %r12d,%r13d
    40f4:	45 0f af ed          	imul   %r13d,%r13d
    40f8:	45 85 ed             	test   %r13d,%r13d
    40fb:	4c 89 ac 24 18 01 00 	mov    %r13,0x118(%rsp)
    4102:	00 
    4103:	0f 84 80 00 00 00    	je     4189 <main+0xe9>
    4109:	4e 8d 34 ad 00 00 00 	lea    0x0(,%r13,4),%r14
    4110:	00 
    4111:	4c 89 f7             	mov    %r14,%rdi
    4114:	e8 f7 df ff ff       	call   2110 <_Znwm@plt>
    4119:	49 89 c7             	mov    %rax,%r15
    411c:	c7 00 00 00 00 00    	movl   $0x0,(%rax)
    4122:	49 83 fd 01          	cmp    $0x1,%r13
    4126:	74 0f                	je     4137 <main+0x97>
    4128:	49 8d 7f 04          	lea    0x4(%r15),%rdi
    412c:	49 8d 56 fc          	lea    -0x4(%r14),%rdx
    4130:	31 f6                	xor    %esi,%esi
    4132:	e8 69 df ff ff       	call   20a0 <memset@plt>
    4137:	4b 8d 04 af          	lea    (%r15,%r13,4),%rax
    413b:	48 89 84 24 10 01 00 	mov    %rax,0x110(%rsp)
    4142:	00 
    4143:	4c 89 f7             	mov    %r14,%rdi
    4146:	e8 c5 df ff ff       	call   2110 <_Znwm@plt>
    414b:	48 89 c3             	mov    %rax,%rbx
    414e:	4a 8d 04 a8          	lea    (%rax,%r13,4),%rax
    4152:	48 89 84 24 08 01 00 	mov    %rax,0x108(%rsp)
    4159:	00 
    415a:	c7 03 00 00 00 00    	movl   $0x0,(%rbx)
    4160:	49 83 fd 01          	cmp    $0x1,%r13
    4164:	74 15                	je     417b <main+0xdb>
    4166:	48 89 df             	mov    %rbx,%rdi
    4169:	48 83 c7 04          	add    $0x4,%rdi
    416d:	49 83 c6 fc          	add    $0xfffffffffffffffc,%r14
    4171:	31 f6                	xor    %esi,%esi
    4173:	4c 89 f2             	mov    %r14,%rdx
    4176:	e8 25 df ff ff       	call   20a0 <memset@plt>
    417b:	8b 6c 24 6c          	mov    0x6c(%rsp),%ebp
    417f:	4d 85 e4             	test   %r12,%r12
    4182:	75 2f                	jne    41b3 <main+0x113>
    4184:	e9 1c 02 00 00       	jmp    43a5 <main+0x305>
    4189:	45 31 ff             	xor    %r15d,%r15d
    418c:	48 c7 84 24 10 01 00 	movq   $0x0,0x110(%rsp)
    4193:	00 00 00 00 00 
    4198:	48 c7 84 24 08 01 00 	movq   $0x0,0x108(%rsp)
    419f:	00 00 00 00 00 
    41a4:	31 db                	xor    %ebx,%ebx
    41a6:	8b 6c 24 6c          	mov    0x6c(%rsp),%ebp
    41aa:	4d 85 e4             	test   %r12,%r12
    41ad:	0f 84 f2 01 00 00    	je     43a5 <main+0x305>
    41b3:	85 ed                	test   %ebp,%ebp
    41b5:	0f 84 d5 01 00 00    	je     4390 <main+0x2f0>
    41bb:	62 d1 7e 08 7b c4    	vcvtusi2ss %r12d,%xmm0,%xmm0
    41c1:	c5 fa 10 0d 3b 6e 00 	vmovss 0x6e3b(%rip),%xmm1        # b004 <_IO_stdin_used+0x4>
    41c8:	00 
    41c9:	c5 f2 5e c0          	vdivss %xmm0,%xmm1,%xmm0
    41cd:	44 89 e0             	mov    %r12d,%eax
    41d0:	83 e0 fe             	and    $0xfffffffe,%eax
    41d3:	31 c9                	xor    %ecx,%ecx
    41d5:	c5 fa 10 0d 2b 6e 00 	vmovss 0x6e2b(%rip),%xmm1        # b008 <_IO_stdin_used+0x8>
    41dc:	00 
    41dd:	c5 fa 10 15 27 6e 00 	vmovss 0x6e27(%rip),%xmm2        # b00c <_IO_stdin_used+0xc>
    41e4:	00 
    41e5:	c5 fa 10 1d 23 6e 00 	vmovss 0x6e23(%rip),%xmm3        # b010 <_IO_stdin_used+0x10>
    41ec:	00 
    41ed:	c5 fa 10 25 1f 6e 00 	vmovss 0x6e1f(%rip),%xmm4        # b014 <_IO_stdin_used+0x14>
    41f4:	00 
    41f5:	eb 18                	jmp    420f <main+0x16f>
    41f7:	66 0f 1f 84 00 00 00 	nopw   0x0(%rax,%rax,1)
    41fe:	00 00 
    4200:	89 3c b2             	mov    %edi,(%rdx,%rsi,4)
    4203:	48 ff c1             	inc    %rcx
    4206:	4c 39 e1             	cmp    %r12,%rcx
    4209:	0f 84 96 01 00 00    	je     43a5 <main+0x305>
    420f:	c4 e1 9a 2a e9       	vcvtsi2ss %rcx,%xmm12,%xmm5
    4214:	48 89 ca             	mov    %rcx,%rdx
    4217:	49 0f af d4          	imul   %r12,%rdx
    421b:	c5 d2 59 e9          	vmulss %xmm1,%xmm5,%xmm5
    421f:	c4 e2 79 a9 ea       	vfmadd213ss %xmm2,%xmm0,%xmm5
    4224:	48 8d 14 93          	lea    (%rbx,%rdx,4),%rdx
    4228:	31 f6                	xor    %esi,%esi
    422a:	49 83 fc 01          	cmp    $0x1,%r12
    422e:	0f 85 7d 00 00 00    	jne    42b1 <main+0x211>
    4234:	41 f6 c4 01          	test   $0x1,%r12b
    4238:	74 c9                	je     4203 <main+0x163>
    423a:	c4 e1 9a 2a f6       	vcvtsi2ss %rsi,%xmm12,%xmm6
    423f:	c5 ca 59 f1          	vmulss %xmm1,%xmm6,%xmm6
    4243:	c4 e2 79 a9 f3       	vfmadd213ss %xmm3,%xmm0,%xmm6
    4248:	31 ff                	xor    %edi,%edi
    424a:	c4 41 30 57 c9       	vxorps %xmm9,%xmm9,%xmm9
    424f:	c4 41 28 57 d2       	vxorps %xmm10,%xmm10,%xmm10
    4254:	c5 c0 57 ff          	vxorps %xmm7,%xmm7,%xmm7
    4258:	c4 41 38 57 c0       	vxorps %xmm8,%xmm8,%xmm8
    425d:	0f 1f 00             	nopl   (%rax)
    4260:	c4 41 2a 5c c9       	vsubss %xmm9,%xmm10,%xmm9
    4265:	c5 ba 5c ff          	vsubss %xmm7,%xmm8,%xmm7
    4269:	c5 4a 58 d7          	vaddss %xmm7,%xmm6,%xmm10
    426d:	c5 32 58 dd          	vaddss %xmm5,%xmm9,%xmm11
    4271:	c4 41 2a 59 c2       	vmulss %xmm10,%xmm10,%xmm8
    4276:	c4 c1 22 59 fb       	vmulss %xmm11,%xmm11,%xmm7
    427b:	ff c7                	inc    %edi
    427d:	c5 3a 58 cf          	vaddss %xmm7,%xmm8,%xmm9
    4281:	c5 78 2e cc          	vucomiss %xmm4,%xmm9
    4285:	0f 87 75 ff ff ff    	ja     4200 <main+0x160>
    428b:	c4 41 2a 58 d3       	vaddss %xmm11,%xmm10,%xmm10
    4290:	c4 41 2a 59 d2       	vmulss %xmm10,%xmm10,%xmm10
    4295:	39 ef                	cmp    %ebp,%edi
    4297:	72 c7                	jb     4260 <main+0x1c0>
    4299:	e9 62 ff ff ff       	jmp    4200 <main+0x160>
    429e:	66 90                	xchg   %ax,%ax
    42a0:	44 89 04 ba          	mov    %r8d,(%rdx,%rdi,4)
    42a4:	48 83 c6 02          	add    $0x2,%rsi
    42a8:	48 39 c6             	cmp    %rax,%rsi
    42ab:	0f 84 83 ff ff ff    	je     4234 <main+0x194>
    42b1:	c4 e1 9a 2a f6       	vcvtsi2ss %rsi,%xmm12,%xmm6
    42b6:	c5 ca 59 f1          	vmulss %xmm1,%xmm6,%xmm6
    42ba:	c4 e2 79 a9 f3       	vfmadd213ss %xmm3,%xmm0,%xmm6
    42bf:	31 ff                	xor    %edi,%edi
    42c1:	c4 41 30 57 c9       	vxorps %xmm9,%xmm9,%xmm9
    42c6:	c4 41 28 57 d2       	vxorps %xmm10,%xmm10,%xmm10
    42cb:	c5 c0 57 ff          	vxorps %xmm7,%xmm7,%xmm7
    42cf:	c4 41 38 57 c0       	vxorps %xmm8,%xmm8,%xmm8
    42d4:	66 66 66 2e 0f 1f 84 	data16 data16 cs nopw 0x0(%rax,%rax,1)
    42db:	00 00 00 00 00 
    42e0:	c4 41 2a 5c c9       	vsubss %xmm9,%xmm10,%xmm9
    42e5:	c5 ba 5c ff          	vsubss %xmm7,%xmm8,%xmm7
    42e9:	c5 4a 58 d7          	vaddss %xmm7,%xmm6,%xmm10
    42ed:	c5 32 58 dd          	vaddss %xmm5,%xmm9,%xmm11
    42f1:	c4 41 2a 59 c2       	vmulss %xmm10,%xmm10,%xmm8
    42f6:	c4 c1 22 59 fb       	vmulss %xmm11,%xmm11,%xmm7
    42fb:	ff c7                	inc    %edi
    42fd:	c5 3a 58 cf          	vaddss %xmm7,%xmm8,%xmm9
    4301:	c5 78 2e cc          	vucomiss %xmm4,%xmm9
    4305:	77 0e                	ja     4315 <main+0x275>
    4307:	c4 41 2a 58 d3       	vaddss %xmm11,%xmm10,%xmm10
    430c:	c4 41 2a 59 d2       	vmulss %xmm10,%xmm10,%xmm10
    4311:	39 ef                	cmp    %ebp,%edi
    4313:	72 cb                	jb     42e0 <main+0x240>
    4315:	89 3c b2             	mov    %edi,(%rdx,%rsi,4)
    4318:	48 89 f7             	mov    %rsi,%rdi
    431b:	48 83 cf 01          	or     $0x1,%rdi
    431f:	c4 e1 9a 2a f7       	vcvtsi2ss %rdi,%xmm12,%xmm6
    4324:	c5 ca 59 f1          	vmulss %xmm1,%xmm6,%xmm6
    4328:	c4 e2 79 a9 f3       	vfmadd213ss %xmm3,%xmm0,%xmm6
    432d:	45 31 c0             	xor    %r8d,%r8d
    4330:	c4 41 30 57 c9       	vxorps %xmm9,%xmm9,%xmm9
    4335:	c4 41 28 57 d2       	vxorps %xmm10,%xmm10,%xmm10
    433a:	c5 c0 57 ff          	vxorps %xmm7,%xmm7,%xmm7
    433e:	c4 41 38 57 c0       	vxorps %xmm8,%xmm8,%xmm8
    4343:	66 66 66 66 2e 0f 1f 	data16 data16 data16 cs nopw 0x0(%rax,%rax,1)
    434a:	84 00 00 00 00 00 
    4350:	c4 41 2a 5c c9       	vsubss %xmm9,%xmm10,%xmm9
    4355:	c5 ba 5c ff          	vsubss %xmm7,%xmm8,%xmm7
    4359:	c5 4a 58 d7          	vaddss %xmm7,%xmm6,%xmm10
    435d:	c5 32 58 dd          	vaddss %xmm5,%xmm9,%xmm11
    4361:	c4 41 2a 59 c2       	vmulss %xmm10,%xmm10,%xmm8
    4366:	c4 c1 22 59 fb       	vmulss %xmm11,%xmm11,%xmm7
    436b:	41 ff c0             	inc    %r8d
    436e:	c5 3a 58 cf          	vaddss %xmm7,%xmm8,%xmm9
    4372:	c5 78 2e cc          	vucomiss %xmm4,%xmm9
    4376:	0f 87 24 ff ff ff    	ja     42a0 <main+0x200>
    437c:	c4 41 2a 58 d3       	vaddss %xmm11,%xmm10,%xmm10
    4381:	c4 41 2a 59 d2       	vmulss %xmm10,%xmm10,%xmm10
    4386:	41 39 e8             	cmp    %ebp,%r8d
    4389:	72 c5                	jb     4350 <main+0x2b0>
    438b:	e9 10 ff ff ff       	jmp    42a0 <main+0x200>
    4390:	4c 89 e2             	mov    %r12,%rdx
    4393:	49 0f af d4          	imul   %r12,%rdx
    4397:	48 c1 e2 02          	shl    $0x2,%rdx
    439b:	48 89 df             	mov    %rbx,%rdi
    439e:	31 f6                	xor    %esi,%esi
    43a0:	e8 fb dc ff ff       	call   20a0 <memset@plt>
    43a5:	8b 44 24 7c          	mov    0x7c(%rsp),%eax
    43a9:	89 44 24 70          	mov    %eax,0x70(%rsp)
    43ad:	83 f8 06             	cmp    $0x6,%eax
    43b0:	4c 89 7c 24 08       	mov    %r15,0x8(%rsp)
    43b5:	48 89 1c 24          	mov    %rbx,(%rsp)
    43b9:	74 16                	je     43d1 <main+0x331>
    43bb:	83 7c 24 70 01       	cmpl   $0x1,0x70(%rsp)
    43c0:	0f 84 be 0b 00 00    	je     4f84 <main+0xee4>
    43c6:	83 7c 24 70 00       	cmpl   $0x0,0x70(%rsp)
    43cb:	0f 85 77 1a 00 00    	jne    5e48 <main+0x1da8>
    43d1:	4c 89 e2             	mov    %r12,%rdx
    43d4:	49 0f af d4          	imul   %r12,%rdx
    43d8:	48 c1 e2 02          	shl    $0x2,%rdx
    43dc:	4c 89 ff             	mov    %r15,%rdi
    43df:	31 f6                	xor    %esi,%esi
    43e1:	48 89 54 24 18       	mov    %rdx,0x18(%rsp)
    43e6:	e8 b5 dc ff ff       	call   20a0 <memset@plt>
    43eb:	48 8b 05 c6 8b 00 00 	mov    0x8bc6(%rip),%rax        # cfb8 <_ZSt4cout@GLIBCXX_3.4>
    43f2:	48 8b 08             	mov    (%rax),%rcx
    43f5:	48 8b 49 e8          	mov    -0x18(%rcx),%rcx
    43f9:	4c 8b b4 08 f0 00 00 	mov    0xf0(%rax,%rcx,1),%r14
    4400:	00 
    4401:	4d 85 f6             	test   %r14,%r14
    4404:	0f 84 54 54 00 00    	je     985e <main+0x57be>
    440a:	41 80 7e 38 00       	cmpb   $0x0,0x38(%r14)
    440f:	74 07                	je     4418 <main+0x378>
    4411:	41 0f b6 46 43       	movzbl 0x43(%r14),%eax
    4416:	eb 16                	jmp    442e <main+0x38e>
    4418:	4c 89 f7             	mov    %r14,%rdi
    441b:	e8 30 dd ff ff       	call   2150 <_ZNKSt5ctypeIcE13_M_widen_initEv@plt>
    4420:	49 8b 06             	mov    (%r14),%rax
    4423:	4c 89 f7             	mov    %r14,%rdi
    4426:	be 0a 00 00 00       	mov    $0xa,%esi
    442b:	ff 50 30             	call   *0x30(%rax)
    442e:	0f be f0             	movsbl %al,%esi
    4431:	48 8b 3d 80 8b 00 00 	mov    0x8b80(%rip),%rdi        # cfb8 <_ZSt4cout@GLIBCXX_3.4>
    4438:	e8 f3 db ff ff       	call   2030 <_ZNSo3putEc@plt>
    443d:	48 89 c7             	mov    %rax,%rdi
    4440:	e8 7b dc ff ff       	call   20c0 <_ZNSo5flushEv@plt>
    4445:	49 89 c6             	mov    %rax,%r14
    4448:	48 8d 35 6b 70 00 00 	lea    0x706b(%rip),%rsi        # b4ba <_IO_stdin_used+0x4ba>
    444f:	ba 08 00 00 00       	mov    $0x8,%edx
    4454:	48 89 c7             	mov    %rax,%rdi
    4457:	e8 e4 dc ff ff       	call   2140 <_ZSt16__ostream_insertIcSt11char_traitsIcEERSt13basic_ostreamIT_T0_ES6_PKS3_l@plt>
    445c:	48 8d 35 60 70 00 00 	lea    0x7060(%rip),%rsi        # b4c3 <_IO_stdin_used+0x4c3>
    4463:	ba 15 00 00 00       	mov    $0x15,%edx
    4468:	4c 89 f7             	mov    %r14,%rdi
    446b:	e8 d0 dc ff ff       	call   2140 <_ZSt16__ostream_insertIcSt11char_traitsIcEERSt13basic_ostreamIT_T0_ES6_PKS3_l@plt>
    4470:	48 8d 35 62 70 00 00 	lea    0x7062(%rip),%rsi        # b4d9 <_IO_stdin_used+0x4d9>
    4477:	ba 05 00 00 00       	mov    $0x5,%edx
    447c:	4c 89 f7             	mov    %r14,%rdi
    447f:	e8 bc dc ff ff       	call   2140 <_ZSt16__ostream_insertIcSt11char_traitsIcEERSt13basic_ostreamIT_T0_ES6_PKS3_l@plt>
    4484:	bf 50 00 00 00       	mov    $0x50,%edi
    4489:	e8 82 dc ff ff       	call   2110 <_Znwm@plt>
    448e:	48 89 44 24 50       	mov    %rax,0x50(%rsp)
    4493:	62 d1 1e 08 7b c4    	vcvtusi2ss %r12d,%xmm12,%xmm0
    4499:	c5 f0 57 c9          	vxorps %xmm1,%xmm1,%xmm1
    449d:	c5 fc 11 48 30       	vmovups %ymm1,0x30(%rax)
    44a2:	c5 fc 11 48 20       	vmovups %ymm1,0x20(%rax)
    44a7:	48 89 84 24 80 00 00 	mov    %rax,0x80(%rsp)
    44ae:	00 
    44af:	c5 fc 11 08          	vmovups %ymm1,(%rax)
    44b3:	c5 fa 10 0d 49 6b 00 	vmovss 0x6b49(%rip),%xmm1        # b004 <_IO_stdin_used+0x4>
    44ba:	00 
    44bb:	49 8d 5c 24 ff       	lea    -0x1(%r12),%rbx
    44c0:	c5 f2 5e c0          	vdivss %xmm0,%xmm1,%xmm0
    44c4:	c5 fa 11 84 24 c0 00 	vmovss %xmm0,0xc0(%rsp)
    44cb:	00 00 
    44cd:	45 89 e5             	mov    %r12d,%r13d
    44d0:	41 83 e5 fe          	and    $0xfffffffe,%r13d
    44d4:	45 31 f6             	xor    %r14d,%r14d
    44d7:	eb 41                	jmp    451a <main+0x47a>
    44d9:	0f 1f 80 00 00 00 00 	nopl   0x0(%rax)
    44e0:	4c 89 ff             	mov    %r15,%rdi
    44e3:	31 f6                	xor    %esi,%esi
    44e5:	48 8b 54 24 18       	mov    0x18(%rsp),%rdx
    44ea:	e8 b1 db ff ff       	call   20a0 <memset@plt>
    44ef:	e8 4c db ff ff       	call   2040 <_ZNSt6chrono3_V212system_clock3nowEv@plt>
    44f4:	48 2b 44 24 10       	sub    0x10(%rsp),%rax
    44f9:	62 f1 9f 08 7b c0    	vcvtusi2sd %rax,%xmm12,%xmm0
    44ff:	48 8b 84 24 80 00 00 	mov    0x80(%rsp),%rax
    4506:	00 
    4507:	c4 a1 7b 11 04 f0    	vmovsd %xmm0,(%rax,%r14,8)
    450d:	49 ff c6             	inc    %r14
    4510:	49 83 fe 0a          	cmp    $0xa,%r14
    4514:	0f 84 b0 01 00 00    	je     46ca <main+0x62a>
    451a:	c5 f8 77             	vzeroupper
    451d:	e8 1e db ff ff       	call   2040 <_ZNSt6chrono3_V212system_clock3nowEv@plt>
    4522:	48 89 44 24 10       	mov    %rax,0x10(%rsp)
    4527:	4d 85 e4             	test   %r12,%r12
    452a:	c5 fa 10 bc 24 c0 00 	vmovss 0xc0(%rsp),%xmm7
    4531:	00 00 
    4533:	c5 7a 10 05 cd 6a 00 	vmovss 0x6acd(%rip),%xmm8        # b008 <_IO_stdin_used+0x8>
    453a:	00 
    453b:	c5 7a 10 0d c9 6a 00 	vmovss 0x6ac9(%rip),%xmm9        # b00c <_IO_stdin_used+0xc>
    4542:	00 
    4543:	c5 7a 10 15 c5 6a 00 	vmovss 0x6ac5(%rip),%xmm10        # b010 <_IO_stdin_used+0x10>
    454a:	00 
    454b:	c5 7a 10 1d c1 6a 00 	vmovss 0x6ac1(%rip),%xmm11        # b014 <_IO_stdin_used+0x14>
    4552:	00 
    4553:	74 9a                	je     44ef <main+0x44f>
    4555:	85 ed                	test   %ebp,%ebp
    4557:	74 87                	je     44e0 <main+0x440>
    4559:	31 c0                	xor    %eax,%eax
    455b:	eb 0e                	jmp    456b <main+0x4cb>
    455d:	0f 1f 00             	nopl   (%rax)
    4560:	89 34 91             	mov    %esi,(%rcx,%rdx,4)
    4563:	48 ff c0             	inc    %rax
    4566:	4c 39 e0             	cmp    %r12,%rax
    4569:	74 84                	je     44ef <main+0x44f>
    456b:	c4 e1 9a 2a c0       	vcvtsi2ss %rax,%xmm12,%xmm0
    4570:	48 89 c1             	mov    %rax,%rcx
    4573:	49 0f af cc          	imul   %r12,%rcx
    4577:	c5 ba 59 c0          	vmulss %xmm0,%xmm8,%xmm0
    457b:	c4 c2 41 a9 c1       	vfmadd213ss %xmm9,%xmm7,%xmm0
    4580:	49 8d 0c 8f          	lea    (%r15,%rcx,4),%rcx
    4584:	31 d2                	xor    %edx,%edx
    4586:	48 85 db             	test   %rbx,%rbx
    4589:	0f 85 81 00 00 00    	jne    4610 <main+0x570>
    458f:	41 f6 c4 01          	test   $0x1,%r12b
    4593:	74 ce                	je     4563 <main+0x4c3>
    4595:	c4 e1 9a 2a ca       	vcvtsi2ss %rdx,%xmm12,%xmm1
    459a:	c5 ba 59 c9          	vmulss %xmm1,%xmm8,%xmm1
    459e:	c4 c2 41 a9 ca       	vfmadd213ss %xmm10,%xmm7,%xmm1
    45a3:	31 f6                	xor    %esi,%esi
    45a5:	c5 d8 57 e4          	vxorps %xmm4,%xmm4,%xmm4
    45a9:	c5 d0 57 ed          	vxorps %xmm5,%xmm5,%xmm5
    45ad:	c5 e8 57 d2          	vxorps %xmm2,%xmm2,%xmm2
    45b1:	c5 e0 57 db          	vxorps %xmm3,%xmm3,%xmm3
    45b5:	66 66 2e 0f 1f 84 00 	data16 cs nopw 0x0(%rax,%rax,1)
    45bc:	00 00 00 00 
    45c0:	c5 d2 5c e4          	vsubss %xmm4,%xmm5,%xmm4
    45c4:	c5 e2 5c d2          	vsubss %xmm2,%xmm3,%xmm2
    45c8:	c5 f2 58 ea          	vaddss %xmm2,%xmm1,%xmm5
    45cc:	c5 fa 58 f4          	vaddss %xmm4,%xmm0,%xmm6
    45d0:	c5 d2 59 dd          	vmulss %xmm5,%xmm5,%xmm3
    45d4:	c5 ca 59 d6          	vmulss %xmm6,%xmm6,%xmm2
    45d8:	ff c6                	inc    %esi
    45da:	c5 e2 58 e2          	vaddss %xmm2,%xmm3,%xmm4
    45de:	c4 c1 78 2e e3       	vucomiss %xmm11,%xmm4
    45e3:	0f 87 77 ff ff ff    	ja     4560 <main+0x4c0>
    45e9:	c5 d2 58 ee          	vaddss %xmm6,%xmm5,%xmm5
    45ed:	c5 d2 59 ed          	vmulss %xmm5,%xmm5,%xmm5
    45f1:	39 ee                	cmp    %ebp,%esi
    45f3:	72 cb                	jb     45c0 <main+0x520>
    45f5:	e9 66 ff ff ff       	jmp    4560 <main+0x4c0>
    45fa:	66 0f 1f 44 00 00    	nopw   0x0(%rax,%rax,1)
    4600:	89 3c b1             	mov    %edi,(%rcx,%rsi,4)
    4603:	48 83 c2 02          	add    $0x2,%rdx
    4607:	4c 39 ea             	cmp    %r13,%rdx
    460a:	0f 84 7f ff ff ff    	je     458f <main+0x4ef>
    4610:	c4 e1 9a 2a ca       	vcvtsi2ss %rdx,%xmm12,%xmm1
    4615:	c5 ba 59 c9          	vmulss %xmm1,%xmm8,%xmm1
    4619:	c4 c2 41 a9 ca       	vfmadd213ss %xmm10,%xmm7,%xmm1
    461e:	31 f6                	xor    %esi,%esi
    4620:	c5 d8 57 e4          	vxorps %xmm4,%xmm4,%xmm4
    4624:	c5 d0 57 ed          	vxorps %xmm5,%xmm5,%xmm5
    4628:	c5 e8 57 d2          	vxorps %xmm2,%xmm2,%xmm2
    462c:	c5 e0 57 db          	vxorps %xmm3,%xmm3,%xmm3
    4630:	c5 d2 5c e4          	vsubss %xmm4,%xmm5,%xmm4
    4634:	c5 e2 5c d2          	vsubss %xmm2,%xmm3,%xmm2
    4638:	c5 f2 58 ea          	vaddss %xmm2,%xmm1,%xmm5
    463c:	c5 fa 58 f4          	vaddss %xmm4,%xmm0,%xmm6
    4640:	c5 d2 59 dd          	vmulss %xmm5,%xmm5,%xmm3
    4644:	c5 ca 59 d6          	vmulss %xmm6,%xmm6,%xmm2
    4648:	ff c6                	inc    %esi
    464a:	c5 e2 58 e2          	vaddss %xmm2,%xmm3,%xmm4
    464e:	c4 c1 78 2e e3       	vucomiss %xmm11,%xmm4
    4653:	77 0c                	ja     4661 <main+0x5c1>
    4655:	c5 d2 58 ee          	vaddss %xmm6,%xmm5,%xmm5
    4659:	c5 d2 59 ed          	vmulss %xmm5,%xmm5,%xmm5
    465d:	39 ee                	cmp    %ebp,%esi
    465f:	72 cf                	jb     4630 <main+0x590>
    4661:	89 34 91             	mov    %esi,(%rcx,%rdx,4)
    4664:	48 89 d6             	mov    %rdx,%rsi
    4667:	48 83 ce 01          	or     $0x1,%rsi
    466b:	c4 e1 9a 2a ce       	vcvtsi2ss %rsi,%xmm12,%xmm1
    4670:	c5 ba 59 c9          	vmulss %xmm1,%xmm8,%xmm1
    4674:	c4 c2 41 a9 ca       	vfmadd213ss %xmm10,%xmm7,%xmm1
    4679:	31 ff                	xor    %edi,%edi
    467b:	c5 d8 57 e4          	vxorps %xmm4,%xmm4,%xmm4
    467f:	c5 d0 57 ed          	vxorps %xmm5,%xmm5,%xmm5
    4683:	c5 e8 57 d2          	vxorps %xmm2,%xmm2,%xmm2
    4687:	c5 e0 57 db          	vxorps %xmm3,%xmm3,%xmm3
    468b:	0f 1f 44 00 00       	nopl   0x0(%rax,%rax,1)
    4690:	c5 d2 5c e4          	vsubss %xmm4,%xmm5,%xmm4
    4694:	c5 e2 5c d2          	vsubss %xmm2,%xmm3,%xmm2
    4698:	c5 f2 58 ea          	vaddss %xmm2,%xmm1,%xmm5
    469c:	c5 fa 58 f4          	vaddss %xmm4,%xmm0,%xmm6
    46a0:	c5 d2 59 dd          	vmulss %xmm5,%xmm5,%xmm3
    46a4:	c5 ca 59 d6          	vmulss %xmm6,%xmm6,%xmm2
    46a8:	ff c7                	inc    %edi
    46aa:	c5 e2 58 e2          	vaddss %xmm2,%xmm3,%xmm4
    46ae:	c4 c1 78 2e e3       	vucomiss %xmm11,%xmm4
    46b3:	0f 87 47 ff ff ff    	ja     4600 <main+0x560>
    46b9:	c5 d2 58 ee          	vaddss %xmm6,%xmm5,%xmm5
    46bd:	c5 d2 59 ed          	vmulss %xmm5,%xmm5,%xmm5
    46c1:	39 ef                	cmp    %ebp,%edi
    46c3:	72 cb                	jb     4690 <main+0x5f0>
    46c5:	e9 36 ff ff ff       	jmp    4600 <main+0x560>
    46ca:	4c 8b 6c 24 50       	mov    0x50(%rsp),%r13
    46cf:	49 83 c5 50          	add    $0x50,%r13
    46d3:	ba 06 00 00 00       	mov    $0x6,%edx
    46d8:	4c 8b b4 24 80 00 00 	mov    0x80(%rsp),%r14
    46df:	00 
    46e0:	4c 89 f7             	mov    %r14,%rdi
    46e3:	4c 89 ee             	mov    %r13,%rsi
    46e6:	e8 05 54 00 00       	call   9af0 <_ZSt16__introsort_loopIN9__gnu_cxx17__normal_iteratorIPdSt6vectorIdSaIdEEEElNS0_5__ops15_Iter_less_iterEEvT_S9_T0_T1_>
    46eb:	4c 89 f7             	mov    %r14,%rdi
    46ee:	4c 89 ee             	mov    %r13,%rsi
    46f1:	e8 9a 56 00 00       	call   9d90 <_ZSt22__final_insertion_sortIN9__gnu_cxx17__normal_iteratorIPdSt6vectorIdSaIdEEEENS0_5__ops15_Iter_less_iterEEvT_S9_T0_>
    46f6:	48 8d bc 24 20 01 00 	lea    0x120(%rsp),%rdi
    46fd:	00 
    46fe:	e8 cd d9 ff ff       	call   20d0 <_ZNSt7__cxx1118basic_stringstreamIcSt11char_traitsIcESaIcEEC1Ev@plt>
    4703:	48 8d bc 24 30 01 00 	lea    0x130(%rsp),%rdi
    470a:	00 
    470b:	48 8b 84 24 30 01 00 	mov    0x130(%rsp),%rax
    4712:	00 
    4713:	48 8b 48 e8          	mov    -0x18(%rax),%rcx
    4717:	ba fb fe ff ff       	mov    $0xfffffefb,%edx
    471c:	23 94 0c 48 01 00 00 	and    0x148(%rsp,%rcx,1),%edx
    4723:	83 ca 04             	or     $0x4,%edx
    4726:	89 94 0c 48 01 00 00 	mov    %edx,0x148(%rsp,%rcx,1)
    472d:	48 8b 48 e8          	mov    -0x18(%rax),%rcx
    4731:	48 c7 84 0c 40 01 00 	movq   $0x6,0x140(%rsp,%rcx,1)
    4738:	00 06 00 00 00 
    473d:	48 8b 40 e8          	mov    -0x18(%rax),%rax
    4741:	48 c7 84 04 38 01 00 	movq   $0x2,0x138(%rsp,%rax,1)
    4748:	00 02 00 00 00 
    474d:	c4 c1 7b 10 06       	vmovsd (%r14),%xmm0
    4752:	c5 fb 59 05 66 6c 00 	vmulsd 0x6c66(%rip),%xmm0,%xmm0        # b3c0 <_IO_stdin_used+0x3c0>
    4759:	00 
    475a:	e8 71 da ff ff       	call   21d0 <_ZNSo9_M_insertIdEERSoT_@plt>
    475f:	48 8b 3d 52 88 00 00 	mov    0x8852(%rip),%rdi        # cfb8 <_ZSt4cout@GLIBCXX_3.4>
    4766:	48 8d 35 72 6d 00 00 	lea    0x6d72(%rip),%rsi        # b4df <_IO_stdin_used+0x4df>
    476d:	ba 0b 00 00 00       	mov    $0xb,%edx
    4772:	e8 c9 d9 ff ff       	call   2140 <_ZSt16__ostream_insertIcSt11char_traitsIcEERSt13basic_ostreamIT_T0_ES6_PKS3_l@plt>
    4777:	48 8d 44 24 30       	lea    0x30(%rsp),%rax
    477c:	48 89 44 24 20       	mov    %rax,0x20(%rsp)
    4781:	48 c7 44 24 28 00 00 	movq   $0x0,0x28(%rsp)
    4788:	00 00 
    478a:	c6 44 24 30 00       	movb   $0x0,0x30(%rsp)
    478f:	4c 8b 84 24 50 01 00 	mov    0x150(%rsp),%r8
    4796:	00 
    4797:	48 8b 84 24 60 01 00 	mov    0x160(%rsp),%rax
    479e:	00 
    479f:	48 85 c0             	test   %rax,%rax
    47a2:	0f 94 c1             	sete   %cl
    47a5:	4c 39 c0             	cmp    %r8,%rax
    47a8:	4c 0f 47 c0          	cmova  %rax,%r8
    47ac:	4d 85 c0             	test   %r8,%r8
    47af:	0f 94 c0             	sete   %al
    47b2:	08 c8                	or     %cl,%al
    47b4:	74 14                	je     47ca <main+0x72a>
    47b6:	48 8d b4 24 80 01 00 	lea    0x180(%rsp),%rsi
    47bd:	00 
    47be:	48 8d 7c 24 20       	lea    0x20(%rsp),%rdi
    47c3:	e8 d8 5c 00 00       	call   a4a0 <_ZNSt7__cxx1112basic_stringIcSt11char_traitsIcESaIcEE9_M_assignERKS4_>
    47c8:	eb 19                	jmp    47e3 <main+0x743>
    47ca:	48 8b 8c 24 58 01 00 	mov    0x158(%rsp),%rcx
    47d1:	00 
    47d2:	49 29 c8             	sub    %rcx,%r8
    47d5:	48 8d 7c 24 20       	lea    0x20(%rsp),%rdi
    47da:	31 f6                	xor    %esi,%esi
    47dc:	31 d2                	xor    %edx,%edx
    47de:	e8 ed 59 00 00       	call   a1d0 <_ZNSt7__cxx1112basic_stringIcSt11char_traitsIcESaIcEE10_M_replaceEmmPKcm>
    47e3:	48 8b 74 24 20       	mov    0x20(%rsp),%rsi
    47e8:	48 8b 54 24 28       	mov    0x28(%rsp),%rdx
    47ed:	48 8b 3d c4 87 00 00 	mov    0x87c4(%rip),%rdi        # cfb8 <_ZSt4cout@GLIBCXX_3.4>
    47f4:	e8 47 d9 ff ff       	call   2140 <_ZSt16__ostream_insertIcSt11char_traitsIcEERSt13basic_ostreamIT_T0_ES6_PKS3_l@plt>
    47f9:	49 89 c6             	mov    %rax,%r14
    47fc:	48 8d 35 e8 6c 00 00 	lea    0x6ce8(%rip),%rsi        # b4eb <_IO_stdin_used+0x4eb>
    4803:	ba 03 00 00 00       	mov    $0x3,%edx
    4808:	48 89 c7             	mov    %rax,%rdi
    480b:	e8 30 d9 ff ff       	call   2140 <_ZSt16__ostream_insertIcSt11char_traitsIcEERSt13basic_ostreamIT_T0_ES6_PKS3_l@plt>
    4810:	49 8b 06             	mov    (%r14),%rax
    4813:	48 8b 40 e8          	mov    -0x18(%rax),%rax
    4817:	4d 89 f5             	mov    %r14,%r13
    481a:	4d 8b b4 06 f0 00 00 	mov    0xf0(%r14,%rax,1),%r14
    4821:	00 
    4822:	4d 85 f6             	test   %r14,%r14
    4825:	0f 84 42 50 00 00    	je     986d <main+0x57cd>
    482b:	41 80 7e 38 00       	cmpb   $0x0,0x38(%r14)
    4830:	74 07                	je     4839 <main+0x799>
    4832:	41 0f b6 46 43       	movzbl 0x43(%r14),%eax
    4837:	eb 16                	jmp    484f <main+0x7af>
    4839:	4c 89 f7             	mov    %r14,%rdi
    483c:	e8 0f d9 ff ff       	call   2150 <_ZNKSt5ctypeIcE13_M_widen_initEv@plt>
    4841:	49 8b 06             	mov    (%r14),%rax
    4844:	4c 89 f7             	mov    %r14,%rdi
    4847:	be 0a 00 00 00       	mov    $0xa,%esi
    484c:	ff 50 30             	call   *0x30(%rax)
    484f:	0f be f0             	movsbl %al,%esi
    4852:	4c 89 ef             	mov    %r13,%rdi
    4855:	e8 d6 d7 ff ff       	call   2030 <_ZNSo3putEc@plt>
    485a:	48 89 c7             	mov    %rax,%rdi
    485d:	e8 5e d8 ff ff       	call   20c0 <_ZNSo5flushEv@plt>
    4862:	48 89 5c 24 48       	mov    %rbx,0x48(%rsp)
    4867:	48 8b 7c 24 20       	mov    0x20(%rsp),%rdi
    486c:	48 8d 44 24 30       	lea    0x30(%rsp),%rax
    4871:	48 39 c7             	cmp    %rax,%rdi
    4874:	74 0d                	je     4883 <main+0x7e3>
    4876:	48 8b 74 24 30       	mov    0x30(%rsp),%rsi
    487b:	48 ff c6             	inc    %rsi
    487e:	e8 9d d8 ff ff       	call   2120 <_ZdlPvm@plt>
    4883:	48 8b 1d 0e 87 00 00 	mov    0x870e(%rip),%rbx        # cf98 <_ZTTNSt7__cxx1118basic_stringstreamIcSt11char_traitsIcESaIcEEE@GLIBCXX_3.4.21>
    488a:	48 8b 03             	mov    (%rbx),%rax
    488d:	48 8b 4b 40          	mov    0x40(%rbx),%rcx
    4891:	48 89 84 24 20 01 00 	mov    %rax,0x120(%rsp)
    4898:	00 
    4899:	48 8b 40 e8          	mov    -0x18(%rax),%rax
    489d:	48 89 8c 04 20 01 00 	mov    %rcx,0x120(%rsp,%rax,1)
    48a4:	00 
    48a5:	48 8b 43 48          	mov    0x48(%rbx),%rax
    48a9:	48 89 84 24 30 01 00 	mov    %rax,0x130(%rsp)
    48b0:	00 
    48b1:	48 8b 05 28 87 00 00 	mov    0x8728(%rip),%rax        # cfe0 <_ZTVNSt7__cxx1115basic_stringbufIcSt11char_traitsIcESaIcEEE@GLIBCXX_3.4.21>
    48b8:	48 83 c0 10          	add    $0x10,%rax
    48bc:	48 89 84 24 38 01 00 	mov    %rax,0x138(%rsp)
    48c3:	00 
    48c4:	48 8b bc 24 80 01 00 	mov    0x180(%rsp),%rdi
    48cb:	00 
    48cc:	48 8d 84 24 90 01 00 	lea    0x190(%rsp),%rax
    48d3:	00 
    48d4:	48 39 c7             	cmp    %rax,%rdi
    48d7:	4c 8b b4 24 80 00 00 	mov    0x80(%rsp),%r14
    48de:	00 
    48df:	74 10                	je     48f1 <main+0x851>
    48e1:	48 8b b4 24 90 01 00 	mov    0x190(%rsp),%rsi
    48e8:	00 
    48e9:	48 ff c6             	inc    %rsi
    48ec:	e8 2f d8 ff ff       	call   2120 <_ZdlPvm@plt>
    48f1:	48 8b 05 b0 86 00 00 	mov    0x86b0(%rip),%rax        # cfa8 <_ZTVSt15basic_streambufIcSt11char_traitsIcEE@GLIBCXX_3.4>
    48f8:	48 83 c0 10          	add    $0x10,%rax
    48fc:	48 89 84 24 38 01 00 	mov    %rax,0x138(%rsp)
    4903:	00 
    4904:	48 8d bc 24 70 01 00 	lea    0x170(%rsp),%rdi
    490b:	00 
    490c:	e8 9f d8 ff ff       	call   21b0 <_ZNSt6localeD1Ev@plt>
    4911:	48 8b 43 10          	mov    0x10(%rbx),%rax
    4915:	48 8b 4b 18          	mov    0x18(%rbx),%rcx
    4919:	48 89 84 24 20 01 00 	mov    %rax,0x120(%rsp)
    4920:	00 
    4921:	48 8b 40 e8          	mov    -0x18(%rax),%rax
    4925:	48 89 8c 04 20 01 00 	mov    %rcx,0x120(%rsp,%rax,1)
    492c:	00 
    492d:	48 c7 84 24 28 01 00 	movq   $0x0,0x128(%rsp)
    4934:	00 00 00 00 00 
    4939:	48 8d bc 24 a0 01 00 	lea    0x1a0(%rsp),%rdi
    4940:	00 
    4941:	e8 0a d7 ff ff       	call   2050 <_ZNSt8ios_baseD2Ev@plt>
    4946:	be 50 00 00 00       	mov    $0x50,%esi
    494b:	4c 89 f7             	mov    %r14,%rdi
    494e:	e8 cd d7 ff ff       	call   2120 <_ZdlPvm@plt>
    4953:	41 89 e8             	mov    %ebp,%r8d
    4956:	4d 85 e4             	test   %r12,%r12
    4959:	48 8b 1c 24          	mov    (%rsp),%rbx
    495d:	0f 84 1a 03 00 00    	je     4c7d <main+0xbdd>
    4963:	44 89 e0             	mov    %r12d,%eax
    4966:	83 e0 e0             	and    $0xffffffe0,%eax
    4969:	44 89 e1             	mov    %r12d,%ecx
    496c:	83 e1 fc             	and    $0xfffffffc,%ecx
    496f:	48 89 ca             	mov    %rcx,%rdx
    4972:	48 f7 da             	neg    %rdx
    4975:	31 f6                	xor    %esi,%esi
    4977:	31 ff                	xor    %edi,%edi
    4979:	41 89 e8             	mov    %ebp,%r8d
    497c:	eb 10                	jmp    498e <main+0x8ee>
    497e:	66 90                	xchg   %ax,%ax
    4980:	ff c7                	inc    %edi
    4982:	4c 01 e6             	add    %r12,%rsi
    4985:	44 39 e7             	cmp    %r12d,%edi
    4988:	0f 84 ef 02 00 00    	je     4c7d <main+0xbdd>
    498e:	41 83 fc 03          	cmp    $0x3,%r12d
    4992:	76 27                	jbe    49bb <main+0x91b>
    4994:	4c 8b 5c 24 48       	mov    0x48(%rsp),%r11
    4999:	4d 89 d9             	mov    %r11,%r9
    499c:	49 c1 e9 20          	shr    $0x20,%r9
    49a0:	41 0f 95 c1          	setne  %r9b
    49a4:	45 89 e2             	mov    %r12d,%r10d
    49a7:	44 0f af d7          	imul   %edi,%r10d
    49ab:	45 01 da             	add    %r11d,%r10d
    49ae:	41 0f 92 c2          	setb   %r10b
    49b2:	45 08 ca             	or     %r9b,%r10b
    49b5:	0f 84 c5 01 00 00    	je     4b80 <main+0xae0>
    49bb:	45 31 d2             	xor    %r10d,%r10d
    49be:	45 89 e3             	mov    %r12d,%r11d
    49c1:	45 29 d3             	sub    %r10d,%r11d
    49c4:	4d 89 d1             	mov    %r10,%r9
    49c7:	41 83 e3 07          	and    $0x7,%r11d
    49cb:	74 1a                	je     49e7 <main+0x947>
    49cd:	0f 1f 00             	nopl   (%rax)
    49d0:	42 8d 1c 0e          	lea    (%rsi,%r9,1),%ebx
    49d4:	41 8b 1c 9f          	mov    (%r15,%rbx,4),%ebx
    49d8:	44 39 c3             	cmp    %r8d,%ebx
    49db:	44 0f 42 c3          	cmovb  %ebx,%r8d
    49df:	49 ff c1             	inc    %r9
    49e2:	49 ff cb             	dec    %r11
    49e5:	75 e9                	jne    49d0 <main+0x930>
    49e7:	4d 29 e2             	sub    %r12,%r10
    49ea:	49 83 fa f8          	cmp    $0xfffffffffffffff8,%r10
    49ee:	48 8b 1c 24          	mov    (%rsp),%rbx
    49f2:	76 19                	jbe    4a0d <main+0x96d>
    49f4:	eb 8a                	jmp    4980 <main+0x8e0>
    49f6:	66 2e 0f 1f 84 00 00 	cs nopw 0x0(%rax,%rax,1)
    49fd:	00 00 00 
    4a00:	49 83 c1 08          	add    $0x8,%r9
    4a04:	4d 39 cc             	cmp    %r9,%r12
    4a07:	0f 84 73 ff ff ff    	je     4980 <main+0x8e0>
    4a0d:	46 8d 14 0e          	lea    (%rsi,%r9,1),%r10d
    4a11:	47 8b 14 97          	mov    (%r15,%r10,4),%r10d
    4a15:	45 39 c2             	cmp    %r8d,%r10d
    4a18:	0f 82 b2 00 00 00    	jb     4ad0 <main+0xa30>
    4a1e:	45 89 c2             	mov    %r8d,%r10d
    4a21:	46 8d 04 0e          	lea    (%rsi,%r9,1),%r8d
    4a25:	41 ff c0             	inc    %r8d
    4a28:	47 8b 04 87          	mov    (%r15,%r8,4),%r8d
    4a2c:	45 39 d0             	cmp    %r10d,%r8d
    4a2f:	0f 83 af 00 00 00    	jae    4ae4 <main+0xa44>
    4a35:	46 8d 14 0e          	lea    (%rsi,%r9,1),%r10d
    4a39:	41 83 c2 02          	add    $0x2,%r10d
    4a3d:	47 8b 14 97          	mov    (%r15,%r10,4),%r10d
    4a41:	45 39 c2             	cmp    %r8d,%r10d
    4a44:	0f 82 b2 00 00 00    	jb     4afc <main+0xa5c>
    4a4a:	45 89 c2             	mov    %r8d,%r10d
    4a4d:	46 8d 04 0e          	lea    (%rsi,%r9,1),%r8d
    4a51:	41 83 c0 03          	add    $0x3,%r8d
    4a55:	47 8b 04 87          	mov    (%r15,%r8,4),%r8d
    4a59:	45 39 d0             	cmp    %r10d,%r8d
    4a5c:	0f 83 af 00 00 00    	jae    4b11 <main+0xa71>
    4a62:	46 8d 14 0e          	lea    (%rsi,%r9,1),%r10d
    4a66:	41 83 c2 04          	add    $0x4,%r10d
    4a6a:	47 8b 14 97          	mov    (%r15,%r10,4),%r10d
    4a6e:	45 39 c2             	cmp    %r8d,%r10d
    4a71:	0f 82 b2 00 00 00    	jb     4b29 <main+0xa89>
    4a77:	45 89 c2             	mov    %r8d,%r10d
    4a7a:	46 8d 04 0e          	lea    (%rsi,%r9,1),%r8d
    4a7e:	41 83 c0 05          	add    $0x5,%r8d
    4a82:	47 8b 04 87          	mov    (%r15,%r8,4),%r8d
    4a86:	45 39 d0             	cmp    %r10d,%r8d
    4a89:	0f 83 af 00 00 00    	jae    4b3e <main+0xa9e>
    4a8f:	46 8d 14 0e          	lea    (%rsi,%r9,1),%r10d
    4a93:	41 83 c2 06          	add    $0x6,%r10d
    4a97:	47 8b 14 97          	mov    (%r15,%r10,4),%r10d
    4a9b:	45 39 c2             	cmp    %r8d,%r10d
    4a9e:	0f 82 b2 00 00 00    	jb     4b56 <main+0xab6>
    4aa4:	45 89 c2             	mov    %r8d,%r10d
    4aa7:	46 8d 04 0e          	lea    (%rsi,%r9,1),%r8d
    4aab:	41 83 c0 07          	add    $0x7,%r8d
    4aaf:	47 8b 04 87          	mov    (%r15,%r8,4),%r8d
    4ab3:	45 39 d0             	cmp    %r10d,%r8d
    4ab6:	0f 82 44 ff ff ff    	jb     4a00 <main+0x960>
    4abc:	e9 aa 00 00 00       	jmp    4b6b <main+0xacb>
    4ac1:	66 66 66 66 66 66 2e 	data16 data16 data16 data16 data16 cs nopw 0x0(%rax,%rax,1)
    4ac8:	0f 1f 84 00 00 00 00 
    4acf:	00 
    4ad0:	46 8d 04 0e          	lea    (%rsi,%r9,1),%r8d
    4ad4:	41 ff c0             	inc    %r8d
    4ad7:	47 8b 04 87          	mov    (%r15,%r8,4),%r8d
    4adb:	45 39 d0             	cmp    %r10d,%r8d
    4ade:	0f 82 51 ff ff ff    	jb     4a35 <main+0x995>
    4ae4:	45 89 d0             	mov    %r10d,%r8d
    4ae7:	46 8d 14 0e          	lea    (%rsi,%r9,1),%r10d
    4aeb:	41 83 c2 02          	add    $0x2,%r10d
    4aef:	47 8b 14 97          	mov    (%r15,%r10,4),%r10d
    4af3:	45 39 c2             	cmp    %r8d,%r10d
    4af6:	0f 83 4e ff ff ff    	jae    4a4a <main+0x9aa>
    4afc:	46 8d 04 0e          	lea    (%rsi,%r9,1),%r8d
    4b00:	41 83 c0 03          	add    $0x3,%r8d
    4b04:	47 8b 04 87          	mov    (%r15,%r8,4),%r8d
    4b08:	45 39 d0             	cmp    %r10d,%r8d
    4b0b:	0f 82 51 ff ff ff    	jb     4a62 <main+0x9c2>
    4b11:	45 89 d0             	mov    %r10d,%r8d
    4b14:	46 8d 14 0e          	lea    (%rsi,%r9,1),%r10d
    4b18:	41 83 c2 04          	add    $0x4,%r10d
    4b1c:	47 8b 14 97          	mov    (%r15,%r10,4),%r10d
    4b20:	45 39 c2             	cmp    %r8d,%r10d
    4b23:	0f 83 4e ff ff ff    	jae    4a77 <main+0x9d7>
    4b29:	46 8d 04 0e          	lea    (%rsi,%r9,1),%r8d
    4b2d:	41 83 c0 05          	add    $0x5,%r8d
    4b31:	47 8b 04 87          	mov    (%r15,%r8,4),%r8d
    4b35:	45 39 d0             	cmp    %r10d,%r8d
    4b38:	0f 82 51 ff ff ff    	jb     4a8f <main+0x9ef>
    4b3e:	45 89 d0             	mov    %r10d,%r8d
    4b41:	46 8d 14 0e          	lea    (%rsi,%r9,1),%r10d
    4b45:	41 83 c2 06          	add    $0x6,%r10d
    4b49:	47 8b 14 97          	mov    (%r15,%r10,4),%r10d
    4b4d:	45 39 c2             	cmp    %r8d,%r10d
    4b50:	0f 83 4e ff ff ff    	jae    4aa4 <main+0xa04>
    4b56:	46 8d 04 0e          	lea    (%rsi,%r9,1),%r8d
    4b5a:	41 83 c0 07          	add    $0x7,%r8d
    4b5e:	47 8b 04 87          	mov    (%r15,%r8,4),%r8d
    4b62:	45 39 d0             	cmp    %r10d,%r8d
    4b65:	0f 82 95 fe ff ff    	jb     4a00 <main+0x960>
    4b6b:	45 89 d0             	mov    %r10d,%r8d
    4b6e:	e9 8d fe ff ff       	jmp    4a00 <main+0x960>
    4b73:	66 66 66 66 2e 0f 1f 	data16 data16 data16 cs nopw 0x0(%rax,%rax,1)
    4b7a:	84 00 00 00 00 00 
    4b80:	41 83 fc 20          	cmp    $0x20,%r12d
    4b84:	73 08                	jae    4b8e <main+0xaee>
    4b86:	45 31 c9             	xor    %r9d,%r9d
    4b89:	e9 96 00 00 00       	jmp    4c24 <main+0xb84>
    4b8e:	62 d2 7d 28 7c c0    	vpbroadcastd %r8d,%ymm0
    4b94:	41 89 f0             	mov    %esi,%r8d
    4b97:	49 89 c1             	mov    %rax,%r9
    4b9a:	c5 fd 6f c8          	vmovdqa %ymm0,%ymm1
    4b9e:	c5 fd 6f d0          	vmovdqa %ymm0,%ymm2
    4ba2:	c5 fd 6f d8          	vmovdqa %ymm0,%ymm3
    4ba6:	66 2e 0f 1f 84 00 00 	cs nopw 0x0(%rax,%rax,1)
    4bad:	00 00 00 
    4bb0:	45 89 c2             	mov    %r8d,%r10d
    4bb3:	c4 82 7d 3b 04 97    	vpminud (%r15,%r10,4),%ymm0,%ymm0
    4bb9:	c4 82 75 3b 4c 97 20 	vpminud 0x20(%r15,%r10,4),%ymm1,%ymm1
    4bc0:	c4 82 6d 3b 54 97 40 	vpminud 0x40(%r15,%r10,4),%ymm2,%ymm2
    4bc7:	c4 82 65 3b 5c 97 60 	vpminud 0x60(%r15,%r10,4),%ymm3,%ymm3
    4bce:	41 83 c0 20          	add    $0x20,%r8d
    4bd2:	49 83 c1 e0          	add    $0xffffffffffffffe0,%r9
    4bd6:	75 d8                	jne    4bb0 <main+0xb10>
    4bd8:	c4 e2 7d 3b c1       	vpminud %ymm1,%ymm0,%ymm0
    4bdd:	c4 e2 6d 3b cb       	vpminud %ymm3,%ymm2,%ymm1
    4be2:	c4 e2 7d 3b c1       	vpminud %ymm1,%ymm0,%ymm0
    4be7:	c4 e3 7d 39 c1 01    	vextracti128 $0x1,%ymm0,%xmm1
    4bed:	c4 e2 79 3b c1       	vpminud %xmm1,%xmm0,%xmm0
    4bf2:	c5 f9 70 c8 ee       	vpshufd $0xee,%xmm0,%xmm1
    4bf7:	c4 e2 79 3b c1       	vpminud %xmm1,%xmm0,%xmm0
    4bfc:	c5 f9 70 c8 55       	vpshufd $0x55,%xmm0,%xmm1
    4c01:	c4 e2 79 3b c1       	vpminud %xmm1,%xmm0,%xmm0
    4c06:	c4 c1 79 7e c0       	vmovd  %xmm0,%r8d
    4c0b:	44 39 e0             	cmp    %r12d,%eax
    4c0e:	0f 84 6c fd ff ff    	je     4980 <main+0x8e0>
    4c14:	49 89 c2             	mov    %rax,%r10
    4c17:	49 89 c1             	mov    %rax,%r9
    4c1a:	41 f6 c4 1c          	test   $0x1c,%r12b
    4c1e:	0f 84 9a fd ff ff    	je     49be <main+0x91e>
    4c24:	62 d2 7d 08 7c c0    	vpbroadcastd %r8d,%xmm0
    4c2a:	4e 8d 04 0a          	lea    (%rdx,%r9,1),%r8
    4c2e:	41 01 f1             	add    %esi,%r9d
    4c31:	66 66 66 66 66 66 2e 	data16 data16 data16 data16 data16 cs nopw 0x0(%rax,%rax,1)
    4c38:	0f 1f 84 00 00 00 00 
    4c3f:	00 
    4c40:	45 89 ca             	mov    %r9d,%r10d
    4c43:	c4 82 79 3b 04 97    	vpminud (%r15,%r10,4),%xmm0,%xmm0
    4c49:	41 83 c1 04          	add    $0x4,%r9d
    4c4d:	49 83 c0 04          	add    $0x4,%r8
    4c51:	75 ed                	jne    4c40 <main+0xba0>
    4c53:	c5 f9 70 c8 ee       	vpshufd $0xee,%xmm0,%xmm1
    4c58:	c4 e2 79 3b c1       	vpminud %xmm1,%xmm0,%xmm0
    4c5d:	c5 f9 70 c8 55       	vpshufd $0x55,%xmm0,%xmm1
    4c62:	c4 e2 79 3b c1       	vpminud %xmm1,%xmm0,%xmm0
    4c67:	c4 c1 79 7e c0       	vmovd  %xmm0,%r8d
    4c6c:	49 89 ca             	mov    %rcx,%r10
    4c6f:	44 39 e1             	cmp    %r12d,%ecx
    4c72:	0f 84 08 fd ff ff    	je     4980 <main+0x8e0>
    4c78:	e9 41 fd ff ff       	jmp    49be <main+0x91e>
    4c7d:	62 d1 5e 08 7b c0    	vcvtusi2ss %r8d,%xmm4,%xmm0
    4c83:	c5 fa 11 84 24 80 00 	vmovss %xmm0,0x80(%rsp)
    4c8a:	00 00 
    4c8c:	c5 f8 77             	vzeroupper
    4c8f:	e8 dc d4 ff ff       	call   2170 <log2f@plt>
    4c94:	c5 fa 11 44 24 10    	vmovss %xmm0,0x10(%rsp)
    4c9a:	62 f1 5e 08 7b c5    	vcvtusi2ss %ebp,%xmm4,%xmm0
    4ca0:	c5 fa 5e 84 24 80 00 	vdivss 0x80(%rsp),%xmm0,%xmm0
    4ca7:	00 00 
    4ca9:	e8 c2 d4 ff ff       	call   2170 <log2f@plt>
    4cae:	c5 f8 28 c8          	vmovaps %xmm0,%xmm1
    4cb2:	48 8b 84 24 18 01 00 	mov    0x118(%rsp),%rax
    4cb9:	00 
    4cba:	48 85 c0             	test   %rax,%rax
    4cbd:	74 6a                	je     4d29 <main+0xc89>
    4cbf:	c5 fa 11 8c 24 80 00 	vmovss %xmm1,0x80(%rsp)
    4cc6:	00 00 
    4cc8:	44 8d 2c 40          	lea    (%rax,%rax,2),%r13d
    4ccc:	4c 89 ef             	mov    %r13,%rdi
    4ccf:	e8 3c d4 ff ff       	call   2110 <_Znwm@plt>
    4cd4:	49 89 c6             	mov    %rax,%r14
    4cd7:	48 89 84 24 20 01 00 	mov    %rax,0x120(%rsp)
    4cde:	00 
    4cdf:	4e 8d 3c 28          	lea    (%rax,%r13,1),%r15
    4ce3:	4c 89 bc 24 30 01 00 	mov    %r15,0x130(%rsp)
    4cea:	00 
    4ceb:	c6 00 00             	movb   $0x0,(%rax)
    4cee:	48 89 c7             	mov    %rax,%rdi
    4cf1:	48 ff c7             	inc    %rdi
    4cf4:	49 ff cd             	dec    %r13
    4cf7:	4c 89 bc 24 00 01 00 	mov    %r15,0x100(%rsp)
    4cfe:	00 
    4cff:	74 0d                	je     4d0e <main+0xc6e>
    4d01:	31 f6                	xor    %esi,%esi
    4d03:	4c 89 ea             	mov    %r13,%rdx
    4d06:	e8 95 d3 ff ff       	call   20a0 <memset@plt>
    4d0b:	4c 89 ff             	mov    %r15,%rdi
    4d0e:	c5 fa 10 8c 24 80 00 	vmovss 0x80(%rsp),%xmm1
    4d15:	00 00 
    4d17:	48 89 bc 24 28 01 00 	mov    %rdi,0x128(%rsp)
    4d1e:	00 
    4d1f:	4d 85 e4             	test   %r12,%r12
    4d22:	75 40                	jne    4d64 <main+0xcc4>
    4d24:	e9 15 02 00 00       	jmp    4f3e <main+0xe9e>
    4d29:	c5 f8 57 c0          	vxorps %xmm0,%xmm0,%xmm0
    4d2d:	c5 f8 29 84 24 20 01 	vmovaps %xmm0,0x120(%rsp)
    4d34:	00 00 
    4d36:	48 c7 84 24 30 01 00 	movq   $0x0,0x130(%rsp)
    4d3d:	00 00 00 00 00 
    4d42:	48 c7 84 24 00 01 00 	movq   $0x0,0x100(%rsp)
    4d49:	00 00 00 00 00 
    4d4e:	45 31 f6             	xor    %r14d,%r14d
    4d51:	31 ff                	xor    %edi,%edi
    4d53:	48 89 bc 24 28 01 00 	mov    %rdi,0x128(%rsp)
    4d5a:	00 
    4d5b:	4d 85 e4             	test   %r12,%r12
    4d5e:	0f 84 da 01 00 00    	je     4f3e <main+0xe9e>
    4d64:	44 89 e0             	mov    %r12d,%eax
    4d67:	83 e0 fe             	and    $0xfffffffe,%eax
    4d6a:	48 89 84 24 c0 00 00 	mov    %rax,0xc0(%rsp)
    4d71:	00 
    4d72:	c5 fa 10 05 8a 62 00 	vmovss 0x628a(%rip),%xmm0        # b004 <_IO_stdin_used+0x4>
    4d79:	00 
    4d7a:	c5 fa 5e c1          	vdivss %xmm1,%xmm0,%xmm0
    4d7e:	c5 fa 11 84 24 80 00 	vmovss %xmm0,0x80(%rsp)
    4d85:	00 00 
    4d87:	43 8d 04 64          	lea    (%r12,%r12,2),%eax
    4d8b:	89 44 24 40          	mov    %eax,0x40(%rsp)
    4d8f:	45 31 ed             	xor    %r13d,%r13d
    4d92:	b8 05 00 00 00       	mov    $0x5,%eax
    4d97:	b9 01 00 00 00       	mov    $0x1,%ecx
    4d9c:	eb 63                	jmp    4e01 <main+0xd61>
    4d9e:	66 90                	xchg   %ax,%ax
    4da0:	62 f1 5e 08 7b c0    	vcvtusi2ss %eax,%xmm4,%xmm0
    4da6:	e8 c5 d3 ff ff       	call   2170 <log2f@plt>
    4dab:	c5 fa 5c 44 24 10    	vsubss 0x10(%rsp),%xmm0,%xmm0
    4db1:	c5 fa 59 05 63 62 00 	vmulss 0x6263(%rip),%xmm0,%xmm0        # b01c <_IO_stdin_used+0x1c>
    4db8:	00 
    4db9:	c5 fa 59 84 24 80 00 	vmulss 0x80(%rsp),%xmm0,%xmm0
    4dc0:	00 00 
    4dc2:	c5 fa 2c c0          	vcvttss2si %xmm0,%eax
    4dc6:	04 20                	add    $0x20,%al
    4dc8:	b1 20                	mov    $0x20,%cl
    4dca:	8d 14 5b             	lea    (%rbx,%rbx,2),%edx
    4dcd:	41 88 0c 16          	mov    %cl,(%r14,%rdx,1)
    4dd1:	8d 14 5b             	lea    (%rbx,%rbx,2),%edx
    4dd4:	ff c2                	inc    %edx
    4dd6:	41 88 04 16          	mov    %al,(%r14,%rdx,1)
    4dda:	8d 44 5b 02          	lea    0x2(%rbx,%rbx,2),%eax
    4dde:	41 88 0c 06          	mov    %cl,(%r14,%rax,1)
    4de2:	48 8b 1c 24          	mov    (%rsp),%rbx
    4de6:	8b 44 24 18          	mov    0x18(%rsp),%eax
    4dea:	8b 4c 24 50          	mov    0x50(%rsp),%ecx
    4dee:	41 ff c5             	inc    %r13d
    4df1:	03 44 24 40          	add    0x40(%rsp),%eax
    4df5:	44 01 e1             	add    %r12d,%ecx
    4df8:	45 39 e5             	cmp    %r12d,%r13d
    4dfb:	0f 84 3d 01 00 00    	je     4f3e <main+0xe9e>
    4e01:	41 bf 00 00 00 00    	mov    $0x0,%r15d
    4e07:	48 83 7c 24 48 00    	cmpq   $0x0,0x48(%rsp)
    4e0d:	89 44 24 18          	mov    %eax,0x18(%rsp)
    4e11:	89 4c 24 50          	mov    %ecx,0x50(%rsp)
    4e15:	0f 84 f6 00 00 00    	je     4f11 <main+0xe71>
    4e1b:	4c 89 6c 24 60       	mov    %r13,0x60(%rsp)
    4e20:	41 89 cd             	mov    %ecx,%r13d
    4e23:	89 c3                	mov    %eax,%ebx
    4e25:	45 31 ff             	xor    %r15d,%r15d
    4e28:	eb 59                	jmp    4e83 <main+0xde3>
    4e2a:	66 0f 1f 44 00 00    	nopw   0x0(%rax,%rax,1)
    4e30:	62 f1 5e 08 7b c0    	vcvtusi2ss %eax,%xmm4,%xmm0
    4e36:	e8 35 d3 ff ff       	call   2170 <log2f@plt>
    4e3b:	c5 fa 5c 44 24 10    	vsubss 0x10(%rsp),%xmm0,%xmm0
    4e41:	c5 fa 59 05 d3 61 00 	vmulss 0x61d3(%rip),%xmm0,%xmm0        # b01c <_IO_stdin_used+0x1c>
    4e48:	00 
    4e49:	c5 fa 59 84 24 80 00 	vmulss 0x80(%rsp),%xmm0,%xmm0
    4e50:	00 00 
    4e52:	c5 fa 2c c0          	vcvttss2si %xmm0,%eax
    4e56:	04 20                	add    $0x20,%al
    4e58:	b1 20                	mov    $0x20,%cl
    4e5a:	8d 53 fe             	lea    -0x2(%rbx),%edx
    4e5d:	41 88 0c 16          	mov    %cl,(%r14,%rdx,1)
    4e61:	8d 53 ff             	lea    -0x1(%rbx),%edx
    4e64:	41 88 04 16          	mov    %al,(%r14,%rdx,1)
    4e68:	89 d8                	mov    %ebx,%eax
    4e6a:	41 88 0c 06          	mov    %cl,(%r14,%rax,1)
    4e6e:	49 83 c7 02          	add    $0x2,%r15
    4e72:	83 c3 06             	add    $0x6,%ebx
    4e75:	41 83 c5 02          	add    $0x2,%r13d
    4e79:	4c 39 bc 24 c0 00 00 	cmp    %r15,0xc0(%rsp)
    4e80:	00 
    4e81:	74 7d                	je     4f00 <main+0xe60>
    4e83:	41 8d 45 ff          	lea    -0x1(%r13),%eax
    4e87:	48 8b 4c 24 08       	mov    0x8(%rsp),%rcx
    4e8c:	8b 04 81             	mov    (%rcx,%rax,4),%eax
    4e8f:	39 e8                	cmp    %ebp,%eax
    4e91:	73 2d                	jae    4ec0 <main+0xe20>
    4e93:	62 f1 5e 08 7b c0    	vcvtusi2ss %eax,%xmm4,%xmm0
    4e99:	e8 d2 d2 ff ff       	call   2170 <log2f@plt>
    4e9e:	c5 fa 5c 44 24 10    	vsubss 0x10(%rsp),%xmm0,%xmm0
    4ea4:	c5 fa 59 05 70 61 00 	vmulss 0x6170(%rip),%xmm0,%xmm0        # b01c <_IO_stdin_used+0x1c>
    4eab:	00 
    4eac:	c5 fa 59 84 24 80 00 	vmulss 0x80(%rsp),%xmm0,%xmm0
    4eb3:	00 00 
    4eb5:	c5 fa 2c c0          	vcvttss2si %xmm0,%eax
    4eb9:	04 20                	add    $0x20,%al
    4ebb:	b1 20                	mov    $0x20,%cl
    4ebd:	eb 05                	jmp    4ec4 <main+0xe24>
    4ebf:	90                   	nop
    4ec0:	31 c0                	xor    %eax,%eax
    4ec2:	31 c9                	xor    %ecx,%ecx
    4ec4:	8d 53 fb             	lea    -0x5(%rbx),%edx
    4ec7:	41 88 0c 16          	mov    %cl,(%r14,%rdx,1)
    4ecb:	8d 53 fc             	lea    -0x4(%rbx),%edx
    4ece:	41 88 04 16          	mov    %al,(%r14,%rdx,1)
    4ed2:	8d 43 fd             	lea    -0x3(%rbx),%eax
    4ed5:	41 88 0c 06          	mov    %cl,(%r14,%rax,1)
    4ed9:	44 89 e8             	mov    %r13d,%eax
    4edc:	48 8b 4c 24 08       	mov    0x8(%rsp),%rcx
    4ee1:	8b 04 81             	mov    (%rcx,%rax,4),%eax
    4ee4:	39 e8                	cmp    %ebp,%eax
    4ee6:	0f 82 44 ff ff ff    	jb     4e30 <main+0xd90>
    4eec:	31 c0                	xor    %eax,%eax
    4eee:	31 c9                	xor    %ecx,%ecx
    4ef0:	e9 65 ff ff ff       	jmp    4e5a <main+0xdba>
    4ef5:	66 66 2e 0f 1f 84 00 	data16 cs nopw 0x0(%rax,%rax,1)
    4efc:	00 00 00 00 
    4f00:	48 8b 1c 24          	mov    (%rsp),%rbx
    4f04:	4c 8b 6c 24 60       	mov    0x60(%rsp),%r13
    4f09:	8b 44 24 18          	mov    0x18(%rsp),%eax
    4f0d:	8b 4c 24 50          	mov    0x50(%rsp),%ecx
    4f11:	41 f6 c4 01          	test   $0x1,%r12b
    4f15:	0f 84 d3 fe ff ff    	je     4dee <main+0xd4e>
    4f1b:	44 89 eb             	mov    %r13d,%ebx
    4f1e:	41 0f af dc          	imul   %r12d,%ebx
    4f22:	44 01 fb             	add    %r15d,%ebx
    4f25:	48 8b 44 24 08       	mov    0x8(%rsp),%rax
    4f2a:	8b 04 98             	mov    (%rax,%rbx,4),%eax
    4f2d:	39 e8                	cmp    %ebp,%eax
    4f2f:	0f 82 6b fe ff ff    	jb     4da0 <main+0xd00>
    4f35:	31 c0                	xor    %eax,%eax
    4f37:	31 c9                	xor    %ecx,%ecx
    4f39:	e9 8c fe ff ff       	jmp    4dca <main+0xd2a>
    4f3e:	48 8d 3d aa 65 00 00 	lea    0x65aa(%rip),%rdi        # b4ef <_IO_stdin_used+0x4ef>
    4f45:	48 8d 94 24 20 01 00 	lea    0x120(%rsp),%rdx
    4f4c:	00 
    4f4d:	44 89 e6             	mov    %r12d,%esi
    4f50:	e8 2b e7 ff ff       	call   3680 <_Z8writeBMPPKcjRKSt6vectorIhSaIhEE>
    4f55:	4d 85 f6             	test   %r14,%r14
    4f58:	4c 8b 7c 24 08       	mov    0x8(%rsp),%r15
    4f5d:	74 13                	je     4f72 <main+0xed2>
    4f5f:	48 8b b4 24 00 01 00 	mov    0x100(%rsp),%rsi
    4f66:	00 
    4f67:	4c 29 f6             	sub    %r14,%rsi
    4f6a:	4c 89 f7             	mov    %r14,%rdi
    4f6d:	e8 ae d1 ff ff       	call   2120 <_ZdlPvm@plt>
    4f72:	83 7c 24 70 01       	cmpl   $0x1,0x70(%rsp)
    4f77:	74 0b                	je     4f84 <main+0xee4>
    4f79:	83 7c 24 70 06       	cmpl   $0x6,0x70(%rsp)
    4f7e:	0f 85 c4 0e 00 00    	jne    5e48 <main+0x1da8>
    4f84:	4c 89 e2             	mov    %r12,%rdx
    4f87:	49 0f af d4          	imul   %r12,%rdx
    4f8b:	48 c1 e2 02          	shl    $0x2,%rdx
    4f8f:	4c 89 ff             	mov    %r15,%rdi
    4f92:	31 f6                	xor    %esi,%esi
    4f94:	e8 07 d1 ff ff       	call   20a0 <memset@plt>
    4f99:	48 8b 05 18 80 00 00 	mov    0x8018(%rip),%rax        # cfb8 <_ZSt4cout@GLIBCXX_3.4>
    4fa0:	48 8b 08             	mov    (%rax),%rcx
    4fa3:	48 8b 49 e8          	mov    -0x18(%rcx),%rcx
    4fa7:	4c 8b b4 08 f0 00 00 	mov    0xf0(%rax,%rcx,1),%r14
    4fae:	00 
    4faf:	4d 85 f6             	test   %r14,%r14
    4fb2:	0f 84 a6 48 00 00    	je     985e <main+0x57be>
    4fb8:	41 80 7e 38 00       	cmpb   $0x0,0x38(%r14)
    4fbd:	74 07                	je     4fc6 <main+0xf26>
    4fbf:	41 0f b6 46 43       	movzbl 0x43(%r14),%eax
    4fc4:	eb 16                	jmp    4fdc <main+0xf3c>
    4fc6:	4c 89 f7             	mov    %r14,%rdi
    4fc9:	e8 82 d1 ff ff       	call   2150 <_ZNKSt5ctypeIcE13_M_widen_initEv@plt>
    4fce:	49 8b 06             	mov    (%r14),%rax
    4fd1:	4c 89 f7             	mov    %r14,%rdi
    4fd4:	be 0a 00 00 00       	mov    $0xa,%esi
    4fd9:	ff 50 30             	call   *0x30(%rax)
    4fdc:	0f be f0             	movsbl %al,%esi
    4fdf:	48 8b 3d d2 7f 00 00 	mov    0x7fd2(%rip),%rdi        # cfb8 <_ZSt4cout@GLIBCXX_3.4>
    4fe6:	e8 45 d0 ff ff       	call   2030 <_ZNSo3putEc@plt>
    4feb:	48 89 c7             	mov    %rax,%rdi
    4fee:	e8 cd d0 ff ff       	call   20c0 <_ZNSo5flushEv@plt>
    4ff3:	49 89 c6             	mov    %rax,%r14
    4ff6:	48 8d 35 bd 64 00 00 	lea    0x64bd(%rip),%rsi        # b4ba <_IO_stdin_used+0x4ba>
    4ffd:	ba 08 00 00 00       	mov    $0x8,%edx
    5002:	48 89 c7             	mov    %rax,%rdi
    5005:	e8 36 d1 ff ff       	call   2140 <_ZSt16__ostream_insertIcSt11char_traitsIcEERSt13basic_ostreamIT_T0_ES6_PKS3_l@plt>
    500a:	48 8d 35 fc 64 00 00 	lea    0x64fc(%rip),%rsi        # b50d <_IO_stdin_used+0x50d>
    5011:	ba 15 00 00 00       	mov    $0x15,%edx
    5016:	4c 89 f7             	mov    %r14,%rdi
    5019:	e8 22 d1 ff ff       	call   2140 <_ZSt16__ostream_insertIcSt11char_traitsIcEERSt13basic_ostreamIT_T0_ES6_PKS3_l@plt>
    501e:	48 8d 35 b4 64 00 00 	lea    0x64b4(%rip),%rsi        # b4d9 <_IO_stdin_used+0x4d9>
    5025:	ba 05 00 00 00       	mov    $0x5,%edx
    502a:	4c 89 f7             	mov    %r14,%rdi
    502d:	e8 0e d1 ff ff       	call   2140 <_ZSt16__ostream_insertIcSt11char_traitsIcEERSt13basic_ostreamIT_T0_ES6_PKS3_l@plt>
    5032:	bf 50 00 00 00       	mov    $0x50,%edi
    5037:	e8 d4 d0 ff ff       	call   2110 <_Znwm@plt>
    503c:	62 d1 1e 08 7b c4    	vcvtusi2ss %r12d,%xmm12,%xmm0
    5042:	48 89 44 24 18       	mov    %rax,0x18(%rsp)
    5047:	48 89 c3             	mov    %rax,%rbx
    504a:	c5 fa 10 0d b2 5f 00 	vmovss 0x5fb2(%rip),%xmm1        # b004 <_IO_stdin_used+0x4>
    5051:	00 
    5052:	c5 f2 5e c0          	vdivss %xmm0,%xmm1,%xmm0
    5056:	c5 fa 11 44 24 10    	vmovss %xmm0,0x10(%rsp)
    505c:	c5 fa 59 05 a4 5f 00 	vmulss 0x5fa4(%rip),%xmm0,%xmm0        # b008 <_IO_stdin_used+0x8>
    5063:	00 
    5064:	62 f2 7d 48 7c cd    	vpbroadcastd %ebp,%zmm1
    506a:	62 f1 fe 48 7f 4c 24 	vmovdqu64 %zmm1,0x80(%rsp)
    5071:	02 
    5072:	c5 f1 ef c9          	vpxor  %xmm1,%xmm1,%xmm1
    5076:	c5 fe 7f 48 30       	vmovdqu %ymm1,0x30(%rax)
    507b:	c5 fe 7f 48 20       	vmovdqu %ymm1,0x20(%rax)
    5080:	62 f2 7d 48 18 c0    	vbroadcastss %xmm0,%zmm0
    5086:	62 f1 7c 48 11 44 24 	vmovups %zmm0,0xc0(%rsp)
    508d:	03 
    508e:	c5 fe 7f 08          	vmovdqu %ymm1,(%rax)
    5092:	45 31 f6             	xor    %r14d,%r14d
    5095:	eb 2d                	jmp    50c4 <main+0x1024>
    5097:	66 0f 1f 84 00 00 00 	nopw   0x0(%rax,%rax,1)
    509e:	00 00 
    50a0:	c5 f8 77             	vzeroupper
    50a3:	e8 98 cf ff ff       	call   2040 <_ZNSt6chrono3_V212system_clock3nowEv@plt>
    50a8:	4c 29 e8             	sub    %r13,%rax
    50ab:	62 f1 ef 00 7b c0    	vcvtusi2sd %rax,%xmm18,%xmm0
    50b1:	c4 a1 7b 11 04 f3    	vmovsd %xmm0,(%rbx,%r14,8)
    50b7:	49 ff c6             	inc    %r14
    50ba:	49 83 fe 0a          	cmp    $0xa,%r14
    50be:	0f 84 76 01 00 00    	je     523a <main+0x119a>
    50c4:	c5 f8 77             	vzeroupper
    50c7:	e8 74 cf ff ff       	call   2040 <_ZNSt6chrono3_V212system_clock3nowEv@plt>
    50cc:	49 89 c5             	mov    %rax,%r13
    50cf:	4d 85 e4             	test   %r12,%r12
    50d2:	c5 7a 10 44 24 10    	vmovss 0x10(%rsp),%xmm8
    50d8:	62 71 fe 48 6f 4c 24 	vmovdqu64 0x80(%rsp),%zmm9
    50df:	02 
    50e0:	62 71 7c 48 10 54 24 	vmovups 0xc0(%rsp),%zmm10
    50e7:	03 
    50e8:	c5 7a 10 1d 18 5f 00 	vmovss 0x5f18(%rip),%xmm11        # b008 <_IO_stdin_used+0x8>
    50ef:	00 
    50f0:	c5 7a 10 25 14 5f 00 	vmovss 0x5f14(%rip),%xmm12        # b00c <_IO_stdin_used+0xc>
    50f7:	00 
    50f8:	62 72 7d 48 22 2d 8e 	vpmovsxbq 0x628e(%rip),%zmm13        # b390 <_IO_stdin_used+0x390>
    50ff:	62 00 00 
    5102:	c4 62 7d 22 35 0d 5f 	vpmovsxbq 0x5f0d(%rip),%ymm14        # b018 <_IO_stdin_used+0x18>
    5109:	00 00 
    510b:	c4 62 79 22 3d 2c 62 	vpmovsxbq 0x622c(%rip),%xmm15        # b340 <_IO_stdin_used+0x340>
    5112:	00 00 
    5114:	62 e2 7d 48 18 05 f2 	vbroadcastss 0x5ef2(%rip),%zmm16        # b010 <_IO_stdin_used+0x10>
    511b:	5e 00 00 
    511e:	62 e2 7d 48 18 0d ec 	vbroadcastss 0x5eec(%rip),%zmm17        # b014 <_IO_stdin_used+0x14>
    5125:	5e 00 00 
    5128:	0f 84 72 ff ff ff    	je     50a0 <main+0x1000>
    512e:	31 c0                	xor    %eax,%eax
    5130:	62 f1 ee 00 2a c0    	vcvtsi2ss %rax,%xmm18,%xmm0
    5136:	c5 a2 59 c0          	vmulss %xmm0,%xmm11,%xmm0
    513a:	c4 c2 39 a9 c4       	vfmadd213ss %xmm12,%xmm8,%xmm0
    513f:	62 f2 7d 48 18 c0    	vbroadcastss %xmm0,%zmm0
    5145:	48 89 c1             	mov    %rax,%rcx
    5148:	49 0f af cc          	imul   %r12,%rcx
    514c:	49 8d 0c 8f          	lea    (%r15,%rcx,4),%rcx
    5150:	31 d2                	xor    %edx,%edx
    5152:	66 66 66 66 66 2e 0f 	data16 data16 data16 data16 cs nopw 0x0(%rax,%rax,1)
    5159:	1f 84 00 00 00 00 00 
    5160:	62 f2 fd 48 7c ca    	vpbroadcastq %rdx,%zmm1
    5166:	62 d1 f5 48 eb d5    	vporq  %zmm13,%zmm1,%zmm2
    516c:	c5 8d eb d9          	vpor   %ymm1,%ymm14,%ymm3
    5170:	c5 81 eb e1          	vpor   %xmm1,%xmm15,%xmm4
    5174:	48 89 d6             	mov    %rdx,%rsi
    5177:	48 83 ce 01          	or     $0x1,%rsi
    517b:	c4 e1 f9 6e ee       	vmovq  %rsi,%xmm5
    5180:	c5 f1 6c cd          	vpunpcklqdq %xmm5,%xmm1,%xmm1
    5184:	62 f3 f5 48 3a cb 01 	vinserti64x4 $0x1,%ymm3,%zmm1,%zmm1
    518b:	62 f3 75 48 38 cc 01 	vinserti32x4 $0x1,%xmm4,%zmm1,%zmm1
    5192:	62 f1 ff 48 7a c9    	vcvtuqq2ps %zmm1,%ymm1
    5198:	62 f1 ff 48 7a d2    	vcvtuqq2ps %zmm2,%ymm2
    519e:	62 f3 f5 48 1a ca 01 	vinsertf64x4 $0x1,%ymm2,%zmm1,%zmm1
    51a5:	62 b2 2d 48 a8 c8    	vfmadd213ps %zmm16,%zmm10,%zmm1
    51ab:	c5 e8 57 d2          	vxorps %xmm2,%xmm2,%xmm2
    51af:	c5 e1 ef db          	vpxor  %xmm3,%xmm3,%xmm3
    51b3:	c5 d9 ef e4          	vpxor  %xmm4,%xmm4,%xmm4
    51b7:	c5 d1 ef ed          	vpxor  %xmm5,%xmm5,%xmm5
    51bb:	0f 1f 44 00 00       	nopl   0x0(%rax,%rax,1)
    51c0:	62 f1 54 48 58 f3    	vaddps %zmm3,%zmm5,%zmm6
    51c6:	62 f1 35 48 66 ca    	vpcmpgtd %zmm2,%zmm9,%k1
    51cc:	62 b1 4c 49 c2 c9 02 	vcmpleps %zmm17,%zmm6,%k1{%k1}
    51d3:	62 f1 64 48 5c fd    	vsubps %zmm5,%zmm3,%zmm7
    51d9:	62 f1 74 48 58 ff    	vaddps %zmm7,%zmm1,%zmm7
    51df:	62 f1 5c 48 5c f6    	vsubps %zmm6,%zmm4,%zmm6
    51e5:	62 f1 4c 48 58 f0    	vaddps %zmm0,%zmm6,%zmm6
    51eb:	62 f1 44 49 59 df    	vmulps %zmm7,%zmm7,%zmm3{%k1}
    51f1:	62 f1 4c 49 59 ee    	vmulps %zmm6,%zmm6,%zmm5{%k1}
    51f7:	62 f1 4c 48 58 f7    	vaddps %zmm7,%zmm6,%zmm6
    51fd:	62 f1 4c 49 59 e6    	vmulps %zmm6,%zmm6,%zmm4{%k1}
    5203:	62 f2 7e 48 38 f1    	vpmovm2d %k1,%zmm6
    5209:	62 f1 6d 48 fa d6    	vpsubd %zmm6,%zmm2,%zmm2
    520f:	c5 f8 98 c9          	kortestw %k1,%k1
    5213:	75 ab                	jne    51c0 <main+0x1120>
    5215:	62 f1 fe 48 7f 14 91 	vmovdqu64 %zmm2,(%rcx,%rdx,4)
    521c:	48 83 c2 10          	add    $0x10,%rdx
    5220:	4c 39 e2             	cmp    %r12,%rdx
    5223:	0f 82 37 ff ff ff    	jb     5160 <main+0x10c0>
    5229:	48 ff c0             	inc    %rax
    522c:	4c 39 e0             	cmp    %r12,%rax
    522f:	0f 85 fb fe ff ff    	jne    5130 <main+0x1090>
    5235:	e9 66 fe ff ff       	jmp    50a0 <main+0x1000>
    523a:	4c 8b 74 24 18       	mov    0x18(%rsp),%r14
    523f:	49 83 c6 50          	add    $0x50,%r14
    5243:	ba 06 00 00 00       	mov    $0x6,%edx
    5248:	48 89 df             	mov    %rbx,%rdi
    524b:	4c 89 f6             	mov    %r14,%rsi
    524e:	e8 9d 48 00 00       	call   9af0 <_ZSt16__introsort_loopIN9__gnu_cxx17__normal_iteratorIPdSt6vectorIdSaIdEEEElNS0_5__ops15_Iter_less_iterEEvT_S9_T0_T1_>
    5253:	48 89 df             	mov    %rbx,%rdi
    5256:	4c 89 f6             	mov    %r14,%rsi
    5259:	e8 32 4b 00 00       	call   9d90 <_ZSt22__final_insertion_sortIN9__gnu_cxx17__normal_iteratorIPdSt6vectorIdSaIdEEEENS0_5__ops15_Iter_less_iterEEvT_S9_T0_>
    525e:	48 8d bc 24 20 01 00 	lea    0x120(%rsp),%rdi
    5265:	00 
    5266:	e8 65 ce ff ff       	call   20d0 <_ZNSt7__cxx1118basic_stringstreamIcSt11char_traitsIcESaIcEEC1Ev@plt>
    526b:	48 8d bc 24 30 01 00 	lea    0x130(%rsp),%rdi
    5272:	00 
    5273:	48 8b 84 24 30 01 00 	mov    0x130(%rsp),%rax
    527a:	00 
    527b:	48 8b 48 e8          	mov    -0x18(%rax),%rcx
    527f:	ba fb fe ff ff       	mov    $0xfffffefb,%edx
    5284:	23 94 0c 48 01 00 00 	and    0x148(%rsp,%rcx,1),%edx
    528b:	83 ca 04             	or     $0x4,%edx
    528e:	89 94 0c 48 01 00 00 	mov    %edx,0x148(%rsp,%rcx,1)
    5295:	48 8b 48 e8          	mov    -0x18(%rax),%rcx
    5299:	48 c7 84 0c 40 01 00 	movq   $0x6,0x140(%rsp,%rcx,1)
    52a0:	00 06 00 00 00 
    52a5:	48 8b 40 e8          	mov    -0x18(%rax),%rax
    52a9:	48 c7 84 04 38 01 00 	movq   $0x2,0x138(%rsp,%rax,1)
    52b0:	00 02 00 00 00 
    52b5:	c5 fb 10 03          	vmovsd (%rbx),%xmm0
    52b9:	c5 fb 59 05 ff 60 00 	vmulsd 0x60ff(%rip),%xmm0,%xmm0        # b3c0 <_IO_stdin_used+0x3c0>
    52c0:	00 
    52c1:	e8 0a cf ff ff       	call   21d0 <_ZNSo9_M_insertIdEERSoT_@plt>
    52c6:	48 8b 3d eb 7c 00 00 	mov    0x7ceb(%rip),%rdi        # cfb8 <_ZSt4cout@GLIBCXX_3.4>
    52cd:	48 8d 35 0b 62 00 00 	lea    0x620b(%rip),%rsi        # b4df <_IO_stdin_used+0x4df>
    52d4:	ba 0b 00 00 00       	mov    $0xb,%edx
    52d9:	e8 62 ce ff ff       	call   2140 <_ZSt16__ostream_insertIcSt11char_traitsIcEERSt13basic_ostreamIT_T0_ES6_PKS3_l@plt>
    52de:	4c 8d 74 24 30       	lea    0x30(%rsp),%r14
    52e3:	4c 89 74 24 20       	mov    %r14,0x20(%rsp)
    52e8:	48 c7 44 24 28 00 00 	movq   $0x0,0x28(%rsp)
    52ef:	00 00 
    52f1:	c6 44 24 30 00       	movb   $0x0,0x30(%rsp)
    52f6:	4c 8b 84 24 50 01 00 	mov    0x150(%rsp),%r8
    52fd:	00 
    52fe:	48 8b 84 24 60 01 00 	mov    0x160(%rsp),%rax
    5305:	00 
    5306:	48 85 c0             	test   %rax,%rax
    5309:	0f 94 c1             	sete   %cl
    530c:	4c 39 c0             	cmp    %r8,%rax
    530f:	4c 0f 47 c0          	cmova  %rax,%r8
    5313:	4d 85 c0             	test   %r8,%r8
    5316:	0f 94 c0             	sete   %al
    5319:	08 c8                	or     %cl,%al
    531b:	74 14                	je     5331 <main+0x1291>
    531d:	48 8d b4 24 80 01 00 	lea    0x180(%rsp),%rsi
    5324:	00 
    5325:	48 8d 7c 24 20       	lea    0x20(%rsp),%rdi
    532a:	e8 71 51 00 00       	call   a4a0 <_ZNSt7__cxx1112basic_stringIcSt11char_traitsIcESaIcEE9_M_assignERKS4_>
    532f:	eb 19                	jmp    534a <main+0x12aa>
    5331:	48 8b 8c 24 58 01 00 	mov    0x158(%rsp),%rcx
    5338:	00 
    5339:	49 29 c8             	sub    %rcx,%r8
    533c:	48 8d 7c 24 20       	lea    0x20(%rsp),%rdi
    5341:	31 f6                	xor    %esi,%esi
    5343:	31 d2                	xor    %edx,%edx
    5345:	e8 86 4e 00 00       	call   a1d0 <_ZNSt7__cxx1112basic_stringIcSt11char_traitsIcESaIcEE10_M_replaceEmmPKcm>
    534a:	48 8b 74 24 20       	mov    0x20(%rsp),%rsi
    534f:	48 8b 54 24 28       	mov    0x28(%rsp),%rdx
    5354:	48 8b 3d 5d 7c 00 00 	mov    0x7c5d(%rip),%rdi        # cfb8 <_ZSt4cout@GLIBCXX_3.4>
    535b:	e8 e0 cd ff ff       	call   2140 <_ZSt16__ostream_insertIcSt11char_traitsIcEERSt13basic_ostreamIT_T0_ES6_PKS3_l@plt>
    5360:	49 89 c6             	mov    %rax,%r14
    5363:	48 8d 35 81 61 00 00 	lea    0x6181(%rip),%rsi        # b4eb <_IO_stdin_used+0x4eb>
    536a:	ba 03 00 00 00       	mov    $0x3,%edx
    536f:	48 89 c7             	mov    %rax,%rdi
    5372:	e8 c9 cd ff ff       	call   2140 <_ZSt16__ostream_insertIcSt11char_traitsIcEERSt13basic_ostreamIT_T0_ES6_PKS3_l@plt>
    5377:	49 8b 06             	mov    (%r14),%rax
    537a:	48 8b 40 e8          	mov    -0x18(%rax),%rax
    537e:	4d 8b ac 06 f0 00 00 	mov    0xf0(%r14,%rax,1),%r13
    5385:	00 
    5386:	4d 85 ed             	test   %r13,%r13
    5389:	0f 84 d9 44 00 00    	je     9868 <main+0x57c8>
    538f:	41 80 7d 38 00       	cmpb   $0x0,0x38(%r13)
    5394:	74 07                	je     539d <main+0x12fd>
    5396:	41 0f b6 45 43       	movzbl 0x43(%r13),%eax
    539b:	eb 17                	jmp    53b4 <main+0x1314>
    539d:	4c 89 ef             	mov    %r13,%rdi
    53a0:	e8 ab cd ff ff       	call   2150 <_ZNKSt5ctypeIcE13_M_widen_initEv@plt>
    53a5:	49 8b 45 00          	mov    0x0(%r13),%rax
    53a9:	4c 89 ef             	mov    %r13,%rdi
    53ac:	be 0a 00 00 00       	mov    $0xa,%esi
    53b1:	ff 50 30             	call   *0x30(%rax)
    53b4:	0f be f0             	movsbl %al,%esi
    53b7:	4c 89 f7             	mov    %r14,%rdi
    53ba:	e8 71 cc ff ff       	call   2030 <_ZNSo3putEc@plt>
    53bf:	48 89 c7             	mov    %rax,%rdi
    53c2:	e8 f9 cc ff ff       	call   20c0 <_ZNSo5flushEv@plt>
    53c7:	49 89 de             	mov    %rbx,%r14
    53ca:	48 8b 7c 24 20       	mov    0x20(%rsp),%rdi
    53cf:	48 8d 44 24 30       	lea    0x30(%rsp),%rax
    53d4:	48 39 c7             	cmp    %rax,%rdi
    53d7:	74 0d                	je     53e6 <main+0x1346>
    53d9:	48 8b 74 24 30       	mov    0x30(%rsp),%rsi
    53de:	48 ff c6             	inc    %rsi
    53e1:	e8 3a cd ff ff       	call   2120 <_ZdlPvm@plt>
    53e6:	48 8b 1d ab 7b 00 00 	mov    0x7bab(%rip),%rbx        # cf98 <_ZTTNSt7__cxx1118basic_stringstreamIcSt11char_traitsIcESaIcEEE@GLIBCXX_3.4.21>
    53ed:	48 8b 03             	mov    (%rbx),%rax
    53f0:	48 8b 4b 40          	mov    0x40(%rbx),%rcx
    53f4:	48 89 84 24 20 01 00 	mov    %rax,0x120(%rsp)
    53fb:	00 
    53fc:	48 8b 40 e8          	mov    -0x18(%rax),%rax
    5400:	48 89 8c 04 20 01 00 	mov    %rcx,0x120(%rsp,%rax,1)
    5407:	00 
    5408:	48 8b 43 48          	mov    0x48(%rbx),%rax
    540c:	48 89 84 24 30 01 00 	mov    %rax,0x130(%rsp)
    5413:	00 
    5414:	48 8b 05 c5 7b 00 00 	mov    0x7bc5(%rip),%rax        # cfe0 <_ZTVNSt7__cxx1115basic_stringbufIcSt11char_traitsIcESaIcEEE@GLIBCXX_3.4.21>
    541b:	48 83 c0 10          	add    $0x10,%rax
    541f:	48 89 84 24 38 01 00 	mov    %rax,0x138(%rsp)
    5426:	00 
    5427:	48 8b bc 24 80 01 00 	mov    0x180(%rsp),%rdi
    542e:	00 
    542f:	48 8d 84 24 90 01 00 	lea    0x190(%rsp),%rax
    5436:	00 
    5437:	48 39 c7             	cmp    %rax,%rdi
    543a:	74 10                	je     544c <main+0x13ac>
    543c:	48 8b b4 24 90 01 00 	mov    0x190(%rsp),%rsi
    5443:	00 
    5444:	48 ff c6             	inc    %rsi
    5447:	e8 d4 cc ff ff       	call   2120 <_ZdlPvm@plt>
    544c:	48 8b 05 55 7b 00 00 	mov    0x7b55(%rip),%rax        # cfa8 <_ZTVSt15basic_streambufIcSt11char_traitsIcEE@GLIBCXX_3.4>
    5453:	48 83 c0 10          	add    $0x10,%rax
    5457:	48 89 84 24 38 01 00 	mov    %rax,0x138(%rsp)
    545e:	00 
    545f:	48 8d bc 24 70 01 00 	lea    0x170(%rsp),%rdi
    5466:	00 
    5467:	e8 44 cd ff ff       	call   21b0 <_ZNSt6localeD1Ev@plt>
    546c:	48 8b 43 10          	mov    0x10(%rbx),%rax
    5470:	48 8b 4b 18          	mov    0x18(%rbx),%rcx
    5474:	48 89 84 24 20 01 00 	mov    %rax,0x120(%rsp)
    547b:	00 
    547c:	48 8b 40 e8          	mov    -0x18(%rax),%rax
    5480:	48 89 8c 04 20 01 00 	mov    %rcx,0x120(%rsp,%rax,1)
    5487:	00 
    5488:	48 c7 84 24 28 01 00 	movq   $0x0,0x128(%rsp)
    548f:	00 00 00 00 00 
    5494:	48 8d bc 24 a0 01 00 	lea    0x1a0(%rsp),%rdi
    549b:	00 
    549c:	e8 af cb ff ff       	call   2050 <_ZNSt8ios_baseD2Ev@plt>
    54a1:	be 50 00 00 00       	mov    $0x50,%esi
    54a6:	4c 89 f7             	mov    %r14,%rdi
    54a9:	e8 72 cc ff ff       	call   2120 <_ZdlPvm@plt>
    54ae:	41 89 e9             	mov    %ebp,%r9d
    54b1:	4d 85 e4             	test   %r12,%r12
    54b4:	48 8b 1c 24          	mov    (%rsp),%rbx
    54b8:	0f 84 1f 03 00 00    	je     57dd <main+0x173d>
    54be:	49 8d 44 24 ff       	lea    -0x1(%r12),%rax
    54c3:	44 89 e1             	mov    %r12d,%ecx
    54c6:	83 e1 e0             	and    $0xffffffe0,%ecx
    54c9:	44 89 e2             	mov    %r12d,%edx
    54cc:	83 e2 fc             	and    $0xfffffffc,%edx
    54cf:	48 89 d6             	mov    %rdx,%rsi
    54d2:	48 f7 de             	neg    %rsi
    54d5:	31 ff                	xor    %edi,%edi
    54d7:	45 31 c0             	xor    %r8d,%r8d
    54da:	41 89 e9             	mov    %ebp,%r9d
    54dd:	eb 10                	jmp    54ef <main+0x144f>
    54df:	90                   	nop
    54e0:	41 ff c0             	inc    %r8d
    54e3:	4c 01 e7             	add    %r12,%rdi
    54e6:	45 39 e0             	cmp    %r12d,%r8d
    54e9:	0f 84 ee 02 00 00    	je     57dd <main+0x173d>
    54ef:	41 83 fc 03          	cmp    $0x3,%r12d
    54f3:	76 22                	jbe    5517 <main+0x1477>
    54f5:	49 89 c2             	mov    %rax,%r10
    54f8:	49 c1 ea 20          	shr    $0x20,%r10
    54fc:	41 0f 95 c2          	setne  %r10b
    5500:	45 89 e3             	mov    %r12d,%r11d
    5503:	45 0f af d8          	imul   %r8d,%r11d
    5507:	41 01 c3             	add    %eax,%r11d
    550a:	41 0f 92 c3          	setb   %r11b
    550e:	45 08 d3             	or     %r10b,%r11b
    5511:	0f 84 c9 01 00 00    	je     56e0 <main+0x1640>
    5517:	45 31 db             	xor    %r11d,%r11d
    551a:	44 89 e3             	mov    %r12d,%ebx
    551d:	44 29 db             	sub    %r11d,%ebx
    5520:	4d 89 da             	mov    %r11,%r10
    5523:	83 e3 07             	and    $0x7,%ebx
    5526:	74 1f                	je     5547 <main+0x14a7>
    5528:	0f 1f 84 00 00 00 00 	nopl   0x0(%rax,%rax,1)
    552f:	00 
    5530:	46 8d 34 17          	lea    (%rdi,%r10,1),%r14d
    5534:	47 8b 34 b7          	mov    (%r15,%r14,4),%r14d
    5538:	45 39 ce             	cmp    %r9d,%r14d
    553b:	45 0f 42 ce          	cmovb  %r14d,%r9d
    553f:	49 ff c2             	inc    %r10
    5542:	48 ff cb             	dec    %rbx
    5545:	75 e9                	jne    5530 <main+0x1490>
    5547:	4d 29 e3             	sub    %r12,%r11
    554a:	49 83 fb f8          	cmp    $0xfffffffffffffff8,%r11
    554e:	48 8b 1c 24          	mov    (%rsp),%rbx
    5552:	76 19                	jbe    556d <main+0x14cd>
    5554:	eb 8a                	jmp    54e0 <main+0x1440>
    5556:	66 2e 0f 1f 84 00 00 	cs nopw 0x0(%rax,%rax,1)
    555d:	00 00 00 
    5560:	49 83 c2 08          	add    $0x8,%r10
    5564:	4d 39 d4             	cmp    %r10,%r12
    5567:	0f 84 73 ff ff ff    	je     54e0 <main+0x1440>
    556d:	46 8d 1c 17          	lea    (%rdi,%r10,1),%r11d
    5571:	47 8b 1c 9f          	mov    (%r15,%r11,4),%r11d
    5575:	45 39 cb             	cmp    %r9d,%r11d
    5578:	0f 82 b2 00 00 00    	jb     5630 <main+0x1590>
    557e:	45 89 cb             	mov    %r9d,%r11d
    5581:	46 8d 0c 17          	lea    (%rdi,%r10,1),%r9d
    5585:	41 ff c1             	inc    %r9d
    5588:	47 8b 0c 8f          	mov    (%r15,%r9,4),%r9d
    558c:	45 39 d9             	cmp    %r11d,%r9d
    558f:	0f 83 af 00 00 00    	jae    5644 <main+0x15a4>
    5595:	46 8d 1c 17          	lea    (%rdi,%r10,1),%r11d
    5599:	41 83 c3 02          	add    $0x2,%r11d
    559d:	47 8b 1c 9f          	mov    (%r15,%r11,4),%r11d
    55a1:	45 39 cb             	cmp    %r9d,%r11d
    55a4:	0f 82 b2 00 00 00    	jb     565c <main+0x15bc>
    55aa:	45 89 cb             	mov    %r9d,%r11d
    55ad:	46 8d 0c 17          	lea    (%rdi,%r10,1),%r9d
    55b1:	41 83 c1 03          	add    $0x3,%r9d
    55b5:	47 8b 0c 8f          	mov    (%r15,%r9,4),%r9d
    55b9:	45 39 d9             	cmp    %r11d,%r9d
    55bc:	0f 83 af 00 00 00    	jae    5671 <main+0x15d1>
    55c2:	46 8d 1c 17          	lea    (%rdi,%r10,1),%r11d
    55c6:	41 83 c3 04          	add    $0x4,%r11d
    55ca:	47 8b 1c 9f          	mov    (%r15,%r11,4),%r11d
    55ce:	45 39 cb             	cmp    %r9d,%r11d
    55d1:	0f 82 b2 00 00 00    	jb     5689 <main+0x15e9>
    55d7:	45 89 cb             	mov    %r9d,%r11d
    55da:	46 8d 0c 17          	lea    (%rdi,%r10,1),%r9d
    55de:	41 83 c1 05          	add    $0x5,%r9d
    55e2:	47 8b 0c 8f          	mov    (%r15,%r9,4),%r9d
    55e6:	45 39 d9             	cmp    %r11d,%r9d
    55e9:	0f 83 af 00 00 00    	jae    569e <main+0x15fe>
    55ef:	46 8d 1c 17          	lea    (%rdi,%r10,1),%r11d
    55f3:	41 83 c3 06          	add    $0x6,%r11d
    55f7:	47 8b 1c 9f          	mov    (%r15,%r11,4),%r11d
    55fb:	45 39 cb             	cmp    %r9d,%r11d
    55fe:	0f 82 b2 00 00 00    	jb     56b6 <main+0x1616>
    5604:	45 89 cb             	mov    %r9d,%r11d
    5607:	46 8d 0c 17          	lea    (%rdi,%r10,1),%r9d
    560b:	41 83 c1 07          	add    $0x7,%r9d
    560f:	47 8b 0c 8f          	mov    (%r15,%r9,4),%r9d
    5613:	45 39 d9             	cmp    %r11d,%r9d
    5616:	0f 82 44 ff ff ff    	jb     5560 <main+0x14c0>
    561c:	e9 aa 00 00 00       	jmp    56cb <main+0x162b>
    5621:	66 66 66 66 66 66 2e 	data16 data16 data16 data16 data16 cs nopw 0x0(%rax,%rax,1)
    5628:	0f 1f 84 00 00 00 00 
    562f:	00 
    5630:	46 8d 0c 17          	lea    (%rdi,%r10,1),%r9d
    5634:	41 ff c1             	inc    %r9d
    5637:	47 8b 0c 8f          	mov    (%r15,%r9,4),%r9d
    563b:	45 39 d9             	cmp    %r11d,%r9d
    563e:	0f 82 51 ff ff ff    	jb     5595 <main+0x14f5>
    5644:	45 89 d9             	mov    %r11d,%r9d
    5647:	46 8d 1c 17          	lea    (%rdi,%r10,1),%r11d
    564b:	41 83 c3 02          	add    $0x2,%r11d
    564f:	47 8b 1c 9f          	mov    (%r15,%r11,4),%r11d
    5653:	45 39 cb             	cmp    %r9d,%r11d
    5656:	0f 83 4e ff ff ff    	jae    55aa <main+0x150a>
    565c:	46 8d 0c 17          	lea    (%rdi,%r10,1),%r9d
    5660:	41 83 c1 03          	add    $0x3,%r9d
    5664:	47 8b 0c 8f          	mov    (%r15,%r9,4),%r9d
    5668:	45 39 d9             	cmp    %r11d,%r9d
    566b:	0f 82 51 ff ff ff    	jb     55c2 <main+0x1522>
    5671:	45 89 d9             	mov    %r11d,%r9d
    5674:	46 8d 1c 17          	lea    (%rdi,%r10,1),%r11d
    5678:	41 83 c3 04          	add    $0x4,%r11d
    567c:	47 8b 1c 9f          	mov    (%r15,%r11,4),%r11d
    5680:	45 39 cb             	cmp    %r9d,%r11d
    5683:	0f 83 4e ff ff ff    	jae    55d7 <main+0x1537>
    5689:	46 8d 0c 17          	lea    (%rdi,%r10,1),%r9d
    568d:	41 83 c1 05          	add    $0x5,%r9d
    5691:	47 8b 0c 8f          	mov    (%r15,%r9,4),%r9d
    5695:	45 39 d9             	cmp    %r11d,%r9d
    5698:	0f 82 51 ff ff ff    	jb     55ef <main+0x154f>
    569e:	45 89 d9             	mov    %r11d,%r9d
    56a1:	46 8d 1c 17          	lea    (%rdi,%r10,1),%r11d
    56a5:	41 83 c3 06          	add    $0x6,%r11d
    56a9:	47 8b 1c 9f          	mov    (%r15,%r11,4),%r11d
    56ad:	45 39 cb             	cmp    %r9d,%r11d
    56b0:	0f 83 4e ff ff ff    	jae    5604 <main+0x1564>
    56b6:	46 8d 0c 17          	lea    (%rdi,%r10,1),%r9d
    56ba:	41 83 c1 07          	add    $0x7,%r9d
    56be:	47 8b 0c 8f          	mov    (%r15,%r9,4),%r9d
    56c2:	45 39 d9             	cmp    %r11d,%r9d
    56c5:	0f 82 95 fe ff ff    	jb     5560 <main+0x14c0>
    56cb:	45 89 d9             	mov    %r11d,%r9d
    56ce:	e9 8d fe ff ff       	jmp    5560 <main+0x14c0>
    56d3:	66 66 66 66 2e 0f 1f 	data16 data16 data16 cs nopw 0x0(%rax,%rax,1)
    56da:	84 00 00 00 00 00 
    56e0:	41 83 fc 20          	cmp    $0x20,%r12d
    56e4:	73 08                	jae    56ee <main+0x164e>
    56e6:	45 31 d2             	xor    %r10d,%r10d
    56e9:	e9 96 00 00 00       	jmp    5784 <main+0x16e4>
    56ee:	62 d2 7d 28 7c c1    	vpbroadcastd %r9d,%ymm0
    56f4:	41 89 f9             	mov    %edi,%r9d
    56f7:	49 89 ca             	mov    %rcx,%r10
    56fa:	c5 fd 6f c8          	vmovdqa %ymm0,%ymm1
    56fe:	c5 fd 6f d0          	vmovdqa %ymm0,%ymm2
    5702:	c5 fd 6f d8          	vmovdqa %ymm0,%ymm3
    5706:	66 2e 0f 1f 84 00 00 	cs nopw 0x0(%rax,%rax,1)
    570d:	00 00 00 
    5710:	45 89 cb             	mov    %r9d,%r11d
    5713:	c4 82 7d 3b 04 9f    	vpminud (%r15,%r11,4),%ymm0,%ymm0
    5719:	c4 82 75 3b 4c 9f 20 	vpminud 0x20(%r15,%r11,4),%ymm1,%ymm1
    5720:	c4 82 6d 3b 54 9f 40 	vpminud 0x40(%r15,%r11,4),%ymm2,%ymm2
    5727:	c4 82 65 3b 5c 9f 60 	vpminud 0x60(%r15,%r11,4),%ymm3,%ymm3
    572e:	41 83 c1 20          	add    $0x20,%r9d
    5732:	49 83 c2 e0          	add    $0xffffffffffffffe0,%r10
    5736:	75 d8                	jne    5710 <main+0x1670>
    5738:	c4 e2 7d 3b c1       	vpminud %ymm1,%ymm0,%ymm0
    573d:	c4 e2 6d 3b cb       	vpminud %ymm3,%ymm2,%ymm1
    5742:	c4 e2 7d 3b c1       	vpminud %ymm1,%ymm0,%ymm0
    5747:	c4 e3 7d 39 c1 01    	vextracti128 $0x1,%ymm0,%xmm1
    574d:	c4 e2 79 3b c1       	vpminud %xmm1,%xmm0,%xmm0
    5752:	c5 f9 70 c8 ee       	vpshufd $0xee,%xmm0,%xmm1
    5757:	c4 e2 79 3b c1       	vpminud %xmm1,%xmm0,%xmm0
    575c:	c5 f9 70 c8 55       	vpshufd $0x55,%xmm0,%xmm1
    5761:	c4 e2 79 3b c1       	vpminud %xmm1,%xmm0,%xmm0
    5766:	c4 c1 79 7e c1       	vmovd  %xmm0,%r9d
    576b:	44 39 e1             	cmp    %r12d,%ecx
    576e:	0f 84 6c fd ff ff    	je     54e0 <main+0x1440>
    5774:	49 89 cb             	mov    %rcx,%r11
    5777:	49 89 ca             	mov    %rcx,%r10
    577a:	41 f6 c4 1c          	test   $0x1c,%r12b
    577e:	0f 84 96 fd ff ff    	je     551a <main+0x147a>
    5784:	62 d2 7d 08 7c c1    	vpbroadcastd %r9d,%xmm0
    578a:	4e 8d 0c 16          	lea    (%rsi,%r10,1),%r9
    578e:	41 01 fa             	add    %edi,%r10d
    5791:	66 66 66 66 66 66 2e 	data16 data16 data16 data16 data16 cs nopw 0x0(%rax,%rax,1)
    5798:	0f 1f 84 00 00 00 00 
    579f:	00 
    57a0:	45 89 d3             	mov    %r10d,%r11d
    57a3:	c4 82 79 3b 04 9f    	vpminud (%r15,%r11,4),%xmm0,%xmm0
    57a9:	41 83 c2 04          	add    $0x4,%r10d
    57ad:	49 83 c1 04          	add    $0x4,%r9
    57b1:	75 ed                	jne    57a0 <main+0x1700>
    57b3:	c5 f9 70 c8 ee       	vpshufd $0xee,%xmm0,%xmm1
    57b8:	c4 e2 79 3b c1       	vpminud %xmm1,%xmm0,%xmm0
    57bd:	c5 f9 70 c8 55       	vpshufd $0x55,%xmm0,%xmm1
    57c2:	c4 e2 79 3b c1       	vpminud %xmm1,%xmm0,%xmm0
    57c7:	c4 c1 79 7e c1       	vmovd  %xmm0,%r9d
    57cc:	49 89 d3             	mov    %rdx,%r11
    57cf:	44 39 e2             	cmp    %r12d,%edx
    57d2:	0f 84 08 fd ff ff    	je     54e0 <main+0x1440>
    57d8:	e9 3d fd ff ff       	jmp    551a <main+0x147a>
    57dd:	62 d1 5e 08 7b c1    	vcvtusi2ss %r9d,%xmm4,%xmm0
    57e3:	c5 fa 11 84 24 80 00 	vmovss %xmm0,0x80(%rsp)
    57ea:	00 00 
    57ec:	c5 f8 77             	vzeroupper
    57ef:	e8 7c c9 ff ff       	call   2170 <log2f@plt>
    57f4:	c5 fa 11 44 24 10    	vmovss %xmm0,0x10(%rsp)
    57fa:	62 f1 5e 08 7b c5    	vcvtusi2ss %ebp,%xmm4,%xmm0
    5800:	c5 fa 5e 84 24 80 00 	vdivss 0x80(%rsp),%xmm0,%xmm0
    5807:	00 00 
    5809:	e8 62 c9 ff ff       	call   2170 <log2f@plt>
    580e:	c5 f8 28 c8          	vmovaps %xmm0,%xmm1
    5812:	48 8b 84 24 18 01 00 	mov    0x118(%rsp),%rax
    5819:	00 
    581a:	48 85 c0             	test   %rax,%rax
    581d:	74 67                	je     5886 <main+0x17e6>
    581f:	c5 fa 11 8c 24 80 00 	vmovss %xmm1,0x80(%rsp)
    5826:	00 00 
    5828:	44 8d 2c 40          	lea    (%rax,%rax,2),%r13d
    582c:	4c 89 ef             	mov    %r13,%rdi
    582f:	e8 dc c8 ff ff       	call   2110 <_Znwm@plt>
    5834:	49 89 c6             	mov    %rax,%r14
    5837:	48 89 84 24 20 01 00 	mov    %rax,0x120(%rsp)
    583e:	00 
    583f:	4e 8d 3c 28          	lea    (%rax,%r13,1),%r15
    5843:	4c 89 bc 24 30 01 00 	mov    %r15,0x130(%rsp)
    584a:	00 
    584b:	c6 00 00             	movb   $0x0,(%rax)
    584e:	48 89 c7             	mov    %rax,%rdi
    5851:	48 ff c7             	inc    %rdi
    5854:	49 ff cd             	dec    %r13
    5857:	4c 89 7c 24 40       	mov    %r15,0x40(%rsp)
    585c:	74 0d                	je     586b <main+0x17cb>
    585e:	31 f6                	xor    %esi,%esi
    5860:	4c 89 ea             	mov    %r13,%rdx
    5863:	e8 38 c8 ff ff       	call   20a0 <memset@plt>
    5868:	4c 89 ff             	mov    %r15,%rdi
    586b:	c5 fa 10 8c 24 80 00 	vmovss 0x80(%rsp),%xmm1
    5872:	00 00 
    5874:	48 89 bc 24 28 01 00 	mov    %rdi,0x128(%rsp)
    587b:	00 
    587c:	4d 85 e4             	test   %r12,%r12
    587f:	75 3d                	jne    58be <main+0x181e>
    5881:	e9 18 02 00 00       	jmp    5a9e <main+0x19fe>
    5886:	c5 f8 57 c0          	vxorps %xmm0,%xmm0,%xmm0
    588a:	c5 f8 29 84 24 20 01 	vmovaps %xmm0,0x120(%rsp)
    5891:	00 00 
    5893:	48 c7 84 24 30 01 00 	movq   $0x0,0x130(%rsp)
    589a:	00 00 00 00 00 
    589f:	48 c7 44 24 40 00 00 	movq   $0x0,0x40(%rsp)
    58a6:	00 00 
    58a8:	45 31 f6             	xor    %r14d,%r14d
    58ab:	31 ff                	xor    %edi,%edi
    58ad:	48 89 bc 24 28 01 00 	mov    %rdi,0x128(%rsp)
    58b4:	00 
    58b5:	4d 85 e4             	test   %r12,%r12
    58b8:	0f 84 e0 01 00 00    	je     5a9e <main+0x19fe>
    58be:	44 89 e0             	mov    %r12d,%eax
    58c1:	83 e0 fe             	and    $0xfffffffe,%eax
    58c4:	48 89 84 24 c0 00 00 	mov    %rax,0xc0(%rsp)
    58cb:	00 
    58cc:	c5 fa 10 05 30 57 00 	vmovss 0x5730(%rip),%xmm0        # b004 <_IO_stdin_used+0x4>
    58d3:	00 
    58d4:	c5 fa 5e c1          	vdivss %xmm1,%xmm0,%xmm0
    58d8:	c5 fa 11 84 24 80 00 	vmovss %xmm0,0x80(%rsp)
    58df:	00 00 
    58e1:	47 8d 2c 64          	lea    (%r12,%r12,2),%r13d
    58e5:	31 c0                	xor    %eax,%eax
    58e7:	b9 05 00 00 00       	mov    $0x5,%ecx
    58ec:	c7 44 24 48 01 00 00 	movl   $0x1,0x48(%rsp)
    58f3:	00 
    58f4:	44 89 6c 24 60       	mov    %r13d,0x60(%rsp)
    58f9:	eb 67                	jmp    5962 <main+0x18c2>
    58fb:	0f 1f 44 00 00       	nopl   0x0(%rax,%rax,1)
    5900:	62 f1 5e 08 7b c0    	vcvtusi2ss %eax,%xmm4,%xmm0
    5906:	e8 65 c8 ff ff       	call   2170 <log2f@plt>
    590b:	c5 fa 5c 44 24 10    	vsubss 0x10(%rsp),%xmm0,%xmm0
    5911:	c5 fa 59 05 03 57 00 	vmulss 0x5703(%rip),%xmm0,%xmm0        # b01c <_IO_stdin_used+0x1c>
    5918:	00 
    5919:	c5 fa 59 84 24 80 00 	vmulss 0x80(%rsp),%xmm0,%xmm0
    5920:	00 00 
    5922:	c5 fa 2c c0          	vcvttss2si %xmm0,%eax
    5926:	04 20                	add    $0x20,%al
    5928:	b1 20                	mov    $0x20,%cl
    592a:	8d 14 5b             	lea    (%rbx,%rbx,2),%edx
    592d:	41 88 0c 16          	mov    %cl,(%r14,%rdx,1)
    5931:	8d 14 5b             	lea    (%rbx,%rbx,2),%edx
    5934:	ff c2                	inc    %edx
    5936:	41 88 04 16          	mov    %al,(%r14,%rdx,1)
    593a:	8d 44 5b 02          	lea    0x2(%rbx,%rbx,2),%eax
    593e:	41 88 0c 06          	mov    %cl,(%r14,%rax,1)
    5942:	48 8b 1c 24          	mov    (%rsp),%rbx
    5946:	48 8b 44 24 18       	mov    0x18(%rsp),%rax
    594b:	8b 4c 24 50          	mov    0x50(%rsp),%ecx
    594f:	ff c0                	inc    %eax
    5951:	44 01 e9             	add    %r13d,%ecx
    5954:	44 01 64 24 48       	add    %r12d,0x48(%rsp)
    5959:	44 39 e0             	cmp    %r12d,%eax
    595c:	0f 84 3c 01 00 00    	je     5a9e <main+0x19fe>
    5962:	41 bf 00 00 00 00    	mov    $0x0,%r15d
    5968:	49 83 fc 01          	cmp    $0x1,%r12
    596c:	48 89 44 24 18       	mov    %rax,0x18(%rsp)
    5971:	89 4c 24 50          	mov    %ecx,0x50(%rsp)
    5975:	0f 84 f7 00 00 00    	je     5a72 <main+0x19d2>
    597b:	44 8b 6c 24 48       	mov    0x48(%rsp),%r13d
    5980:	89 cb                	mov    %ecx,%ebx
    5982:	45 31 ff             	xor    %r15d,%r15d
    5985:	eb 5c                	jmp    59e3 <main+0x1943>
    5987:	66 0f 1f 84 00 00 00 	nopw   0x0(%rax,%rax,1)
    598e:	00 00 
    5990:	62 f1 5e 08 7b c0    	vcvtusi2ss %eax,%xmm4,%xmm0
    5996:	e8 d5 c7 ff ff       	call   2170 <log2f@plt>
    599b:	c5 fa 5c 44 24 10    	vsubss 0x10(%rsp),%xmm0,%xmm0
    59a1:	c5 fa 59 05 73 56 00 	vmulss 0x5673(%rip),%xmm0,%xmm0        # b01c <_IO_stdin_used+0x1c>
    59a8:	00 
    59a9:	c5 fa 59 84 24 80 00 	vmulss 0x80(%rsp),%xmm0,%xmm0
    59b0:	00 00 
    59b2:	c5 fa 2c c0          	vcvttss2si %xmm0,%eax
    59b6:	04 20                	add    $0x20,%al
    59b8:	b1 20                	mov    $0x20,%cl
    59ba:	8d 53 fe             	lea    -0x2(%rbx),%edx
    59bd:	41 88 0c 16          	mov    %cl,(%r14,%rdx,1)
    59c1:	8d 53 ff             	lea    -0x1(%rbx),%edx
    59c4:	41 88 04 16          	mov    %al,(%r14,%rdx,1)
    59c8:	89 d8                	mov    %ebx,%eax
    59ca:	41 88 0c 06          	mov    %cl,(%r14,%rax,1)
    59ce:	49 83 c7 02          	add    $0x2,%r15
    59d2:	83 c3 06             	add    $0x6,%ebx
    59d5:	41 83 c5 02          	add    $0x2,%r13d
    59d9:	4c 39 bc 24 c0 00 00 	cmp    %r15,0xc0(%rsp)
    59e0:	00 
    59e1:	74 7d                	je     5a60 <main+0x19c0>
    59e3:	41 8d 45 ff          	lea    -0x1(%r13),%eax
    59e7:	48 8b 4c 24 08       	mov    0x8(%rsp),%rcx
    59ec:	8b 04 81             	mov    (%rcx,%rax,4),%eax
    59ef:	39 e8                	cmp    %ebp,%eax
    59f1:	73 2d                	jae    5a20 <main+0x1980>
    59f3:	62 f1 5e 08 7b c0    	vcvtusi2ss %eax,%xmm4,%xmm0
    59f9:	e8 72 c7 ff ff       	call   2170 <log2f@plt>
    59fe:	c5 fa 5c 44 24 10    	vsubss 0x10(%rsp),%xmm0,%xmm0
    5a04:	c5 fa 59 05 10 56 00 	vmulss 0x5610(%rip),%xmm0,%xmm0        # b01c <_IO_stdin_used+0x1c>
    5a0b:	00 
    5a0c:	c5 fa 59 84 24 80 00 	vmulss 0x80(%rsp),%xmm0,%xmm0
    5a13:	00 00 
    5a15:	c5 fa 2c c0          	vcvttss2si %xmm0,%eax
    5a19:	04 20                	add    $0x20,%al
    5a1b:	b1 20                	mov    $0x20,%cl
    5a1d:	eb 05                	jmp    5a24 <main+0x1984>
    5a1f:	90                   	nop
    5a20:	31 c0                	xor    %eax,%eax
    5a22:	31 c9                	xor    %ecx,%ecx
    5a24:	8d 53 fb             	lea    -0x5(%rbx),%edx
    5a27:	41 88 0c 16          	mov    %cl,(%r14,%rdx,1)
    5a2b:	8d 53 fc             	lea    -0x4(%rbx),%edx
    5a2e:	41 88 04 16          	mov    %al,(%r14,%rdx,1)
    5a32:	8d 43 fd             	lea    -0x3(%rbx),%eax
    5a35:	41 88 0c 06          	mov    %cl,(%r14,%rax,1)
    5a39:	44 89 e8             	mov    %r13d,%eax
    5a3c:	48 8b 4c 24 08       	mov    0x8(%rsp),%rcx
    5a41:	8b 04 81             	mov    (%rcx,%rax,4),%eax
    5a44:	39 e8                	cmp    %ebp,%eax
    5a46:	0f 82 44 ff ff ff    	jb     5990 <main+0x18f0>
    5a4c:	31 c0                	xor    %eax,%eax
    5a4e:	31 c9                	xor    %ecx,%ecx
    5a50:	e9 65 ff ff ff       	jmp    59ba <main+0x191a>
    5a55:	66 66 2e 0f 1f 84 00 	data16 cs nopw 0x0(%rax,%rax,1)
    5a5c:	00 00 00 00 
    5a60:	48 8b 1c 24          	mov    (%rsp),%rbx
    5a64:	44 8b 6c 24 60       	mov    0x60(%rsp),%r13d
    5a69:	48 8b 44 24 18       	mov    0x18(%rsp),%rax
    5a6e:	8b 4c 24 50          	mov    0x50(%rsp),%ecx
    5a72:	41 f6 c4 01          	test   $0x1,%r12b
    5a76:	0f 84 d3 fe ff ff    	je     594f <main+0x18af>
    5a7c:	89 c3                	mov    %eax,%ebx
    5a7e:	41 0f af dc          	imul   %r12d,%ebx
    5a82:	44 01 fb             	add    %r15d,%ebx
    5a85:	48 8b 44 24 08       	mov    0x8(%rsp),%rax
    5a8a:	8b 04 98             	mov    (%rax,%rbx,4),%eax
    5a8d:	39 e8                	cmp    %ebp,%eax
    5a8f:	0f 82 6b fe ff ff    	jb     5900 <main+0x1860>
    5a95:	31 c0                	xor    %eax,%eax
    5a97:	31 c9                	xor    %ecx,%ecx
    5a99:	e9 8c fe ff ff       	jmp    592a <main+0x188a>
    5a9e:	48 8d 3d 7e 5a 00 00 	lea    0x5a7e(%rip),%rdi        # b523 <_IO_stdin_used+0x523>
    5aa5:	48 8d 94 24 20 01 00 	lea    0x120(%rsp),%rdx
    5aac:	00 
    5aad:	44 89 e6             	mov    %r12d,%esi
    5ab0:	e8 cb db ff ff       	call   3680 <_Z8writeBMPPKcjRKSt6vectorIhSaIhEE>
    5ab5:	4d 85 f6             	test   %r14,%r14
    5ab8:	4c 8b 7c 24 08       	mov    0x8(%rsp),%r15
    5abd:	74 10                	je     5acf <main+0x1a2f>
    5abf:	48 8b 74 24 40       	mov    0x40(%rsp),%rsi
    5ac4:	4c 29 f6             	sub    %r14,%rsi
    5ac7:	4c 89 f7             	mov    %r14,%rdi
    5aca:	e8 51 c6 ff ff       	call   2120 <_ZdlPvm@plt>
    5acf:	48 8b 3d e2 74 00 00 	mov    0x74e2(%rip),%rdi        # cfb8 <_ZSt4cout@GLIBCXX_3.4>
    5ad6:	48 8d 35 64 5a 00 00 	lea    0x5a64(%rip),%rsi        # b541 <_IO_stdin_used+0x541>
    5add:	ba 3a 00 00 00       	mov    $0x3a,%edx
    5ae2:	e8 59 c6 ff ff       	call   2140 <_ZSt16__ostream_insertIcSt11char_traitsIcEERSt13basic_ostreamIT_T0_ES6_PKS3_l@plt>
    5ae7:	4d 85 e4             	test   %r12,%r12
    5aea:	0f 84 de 02 00 00    	je     5dce <main+0x1d2e>
    5af0:	49 8d 44 24 ff       	lea    -0x1(%r12),%rax
    5af5:	44 89 e1             	mov    %r12d,%ecx
    5af8:	83 e1 f0             	and    $0xfffffff0,%ecx
    5afb:	48 89 4c 24 10       	mov    %rcx,0x10(%rsp)
    5b00:	44 89 e1             	mov    %r12d,%ecx
    5b03:	83 e1 fc             	and    $0xfffffffc,%ecx
    5b06:	44 89 e6             	mov    %r12d,%esi
    5b09:	83 e6 03             	and    $0x3,%esi
    5b0c:	48 89 8c 24 80 00 00 	mov    %rcx,0x80(%rsp)
    5b13:	00 
    5b14:	48 f7 d9             	neg    %rcx
    5b17:	48 89 8c 24 c0 00 00 	mov    %rcx,0xc0(%rsp)
    5b1e:	00 
    5b1f:	45 31 c0             	xor    %r8d,%r8d
    5b22:	45 31 c9             	xor    %r9d,%r9d
    5b25:	45 31 d2             	xor    %r10d,%r10d
    5b28:	eb 18                	jmp    5b42 <main+0x1aa2>
    5b2a:	48 8b 0c 24          	mov    (%rsp),%rcx
    5b2e:	66 90                	xchg   %ax,%ax
    5b30:	41 ff c1             	inc    %r9d
    5b33:	4d 01 e0             	add    %r12,%r8
    5b36:	45 39 e1             	cmp    %r12d,%r9d
    5b39:	48 89 cb             	mov    %rcx,%rbx
    5b3c:	0f 84 85 02 00 00    	je     5dc7 <main+0x1d27>
    5b42:	41 83 fc 03          	cmp    $0x3,%r12d
    5b46:	76 22                	jbe    5b6a <main+0x1aca>
    5b48:	48 89 c7             	mov    %rax,%rdi
    5b4b:	48 c1 ef 20          	shr    $0x20,%rdi
    5b4f:	40 0f 95 c7          	setne  %dil
    5b53:	45 89 e3             	mov    %r12d,%r11d
    5b56:	45 0f af d9          	imul   %r9d,%r11d
    5b5a:	41 01 c3             	add    %eax,%r11d
    5b5d:	41 0f 92 c3          	setb   %r11b
    5b61:	41 08 fb             	or     %dil,%r11b
    5b64:	0f 84 06 01 00 00    	je     5c70 <main+0x1bd0>
    5b6a:	31 db                	xor    %ebx,%ebx
    5b6c:	48 85 f6             	test   %rsi,%rsi
    5b6f:	74 4f                	je     5bc0 <main+0x1b20>
    5b71:	49 89 f6             	mov    %rsi,%r14
    5b74:	49 89 db             	mov    %rbx,%r11
    5b77:	48 8b 54 24 08       	mov    0x8(%rsp),%rdx
    5b7c:	48 8b 0c 24          	mov    (%rsp),%rcx
    5b80:	47 8d 3c 18          	lea    (%r8,%r11,1),%r15d
    5b84:	42 8b 3c ba          	mov    (%rdx,%r15,4),%edi
    5b88:	46 8b 3c b9          	mov    (%rcx,%r15,4),%r15d
    5b8c:	41 89 fd             	mov    %edi,%r13d
    5b8f:	45 29 fd             	sub    %r15d,%r13d
    5b92:	41 29 ff             	sub    %edi,%r15d
    5b95:	45 0f 4c fd          	cmovl  %r13d,%r15d
    5b99:	4d 01 fa             	add    %r15,%r10
    5b9c:	49 ff c3             	inc    %r11
    5b9f:	49 ff ce             	dec    %r14
    5ba2:	75 dc                	jne    5b80 <main+0x1ae0>
    5ba4:	4c 29 e3             	sub    %r12,%rbx
    5ba7:	48 83 fb fc          	cmp    $0xfffffffffffffffc,%rbx
    5bab:	49 89 d7             	mov    %rdx,%r15
    5bae:	76 30                	jbe    5be0 <main+0x1b40>
    5bb0:	e9 7b ff ff ff       	jmp    5b30 <main+0x1a90>
    5bb5:	66 66 2e 0f 1f 84 00 	data16 cs nopw 0x0(%rax,%rax,1)
    5bbc:	00 00 00 00 
    5bc0:	49 89 db             	mov    %rbx,%r11
    5bc3:	48 8b 54 24 08       	mov    0x8(%rsp),%rdx
    5bc8:	48 8b 0c 24          	mov    (%rsp),%rcx
    5bcc:	4c 29 e3             	sub    %r12,%rbx
    5bcf:	48 83 fb fc          	cmp    $0xfffffffffffffffc,%rbx
    5bd3:	49 89 d7             	mov    %rdx,%r15
    5bd6:	0f 87 54 ff ff ff    	ja     5b30 <main+0x1a90>
    5bdc:	0f 1f 40 00          	nopl   0x0(%rax)
    5be0:	43 8d 3c 18          	lea    (%r8,%r11,1),%edi
    5be4:	45 8b 34 bf          	mov    (%r15,%rdi,4),%r14d
    5be8:	8b 1c b9             	mov    (%rcx,%rdi,4),%ebx
    5beb:	44 89 f7             	mov    %r14d,%edi
    5bee:	29 df                	sub    %ebx,%edi
    5bf0:	44 29 f3             	sub    %r14d,%ebx
    5bf3:	0f 4c df             	cmovl  %edi,%ebx
    5bf6:	4c 01 d3             	add    %r10,%rbx
    5bf9:	43 8d 3c 18          	lea    (%r8,%r11,1),%edi
    5bfd:	ff c7                	inc    %edi
    5bff:	45 8b 14 bf          	mov    (%r15,%rdi,4),%r10d
    5c03:	8b 3c b9             	mov    (%rcx,%rdi,4),%edi
    5c06:	45 89 d6             	mov    %r10d,%r14d
    5c09:	41 29 fe             	sub    %edi,%r14d
    5c0c:	44 29 d7             	sub    %r10d,%edi
    5c0f:	41 0f 4c fe          	cmovl  %r14d,%edi
    5c13:	47 8d 54 18 02       	lea    0x2(%r8,%r11,1),%r10d
    5c18:	47 8b 34 97          	mov    (%r15,%r10,4),%r14d
    5c1c:	46 8b 3c 91          	mov    (%rcx,%r10,4),%r15d
    5c20:	45 89 f2             	mov    %r14d,%r10d
    5c23:	45 29 fa             	sub    %r15d,%r10d
    5c26:	45 29 f7             	sub    %r14d,%r15d
    5c29:	45 0f 4c fa          	cmovl  %r10d,%r15d
    5c2d:	49 01 ff             	add    %rdi,%r15
    5c30:	49 01 df             	add    %rbx,%r15
    5c33:	43 8d 3c 18          	lea    (%r8,%r11,1),%edi
    5c37:	83 c7 03             	add    $0x3,%edi
    5c3a:	48 8b 54 24 08       	mov    0x8(%rsp),%rdx
    5c3f:	8b 1c ba             	mov    (%rdx,%rdi,4),%ebx
    5c42:	44 8b 14 b9          	mov    (%rcx,%rdi,4),%r10d
    5c46:	89 df                	mov    %ebx,%edi
    5c48:	44 29 d7             	sub    %r10d,%edi
    5c4b:	41 29 da             	sub    %ebx,%r10d
    5c4e:	44 0f 4c d7          	cmovl  %edi,%r10d
    5c52:	4d 01 fa             	add    %r15,%r10
    5c55:	4c 8b 7c 24 08       	mov    0x8(%rsp),%r15
    5c5a:	49 83 c3 04          	add    $0x4,%r11
    5c5e:	4d 39 dc             	cmp    %r11,%r12
    5c61:	0f 85 79 ff ff ff    	jne    5be0 <main+0x1b40>
    5c67:	e9 c4 fe ff ff       	jmp    5b30 <main+0x1a90>
    5c6c:	0f 1f 40 00          	nopl   0x0(%rax)
    5c70:	41 83 fc 10          	cmp    $0x10,%r12d
    5c74:	73 0b                	jae    5c81 <main+0x1be1>
    5c76:	45 31 db             	xor    %r11d,%r11d
    5c79:	48 89 d9             	mov    %rbx,%rcx
    5c7c:	e9 d9 00 00 00       	jmp    5d5a <main+0x1cba>
    5c81:	c4 c1 f9 6e c2       	vmovq  %r10,%xmm0
    5c86:	c5 f0 57 c9          	vxorps %xmm1,%xmm1,%xmm1
    5c8a:	45 89 c2             	mov    %r8d,%r10d
    5c8d:	4c 8b 5c 24 10       	mov    0x10(%rsp),%r11
    5c92:	c5 e8 57 d2          	vxorps %xmm2,%xmm2,%xmm2
    5c96:	c5 e0 57 db          	vxorps %xmm3,%xmm3,%xmm3
    5c9a:	66 0f 1f 44 00 00    	nopw   0x0(%rax,%rax,1)
    5ca0:	44 89 d7             	mov    %r10d,%edi
    5ca3:	c4 c1 7a 6f 24 bf    	vmovdqu (%r15,%rdi,4),%xmm4
    5ca9:	c4 c1 7a 6f 6c bf 10 	vmovdqu 0x10(%r15,%rdi,4),%xmm5
    5cb0:	c4 c1 7a 6f 74 bf 20 	vmovdqu 0x20(%r15,%rdi,4),%xmm6
    5cb7:	c4 c1 7a 6f 7c bf 30 	vmovdqu 0x30(%r15,%rdi,4),%xmm7
    5cbe:	c5 d9 fa 24 bb       	vpsubd (%rbx,%rdi,4),%xmm4,%xmm4
    5cc3:	c5 d1 fa 6c bb 10    	vpsubd 0x10(%rbx,%rdi,4),%xmm5,%xmm5
    5cc9:	c5 c9 fa 74 bb 20    	vpsubd 0x20(%rbx,%rdi,4),%xmm6,%xmm6
    5ccf:	c5 c1 fa 7c bb 30    	vpsubd 0x30(%rbx,%rdi,4),%xmm7,%xmm7
    5cd5:	c4 e2 79 1e e4       	vpabsd %xmm4,%xmm4
    5cda:	c4 e2 79 1e ed       	vpabsd %xmm5,%xmm5
    5cdf:	c4 e2 79 1e f6       	vpabsd %xmm6,%xmm6
    5ce4:	c4 e2 79 1e ff       	vpabsd %xmm7,%xmm7
    5ce9:	c4 e2 7d 35 e4       	vpmovzxdq %xmm4,%ymm4
    5cee:	c5 fd d4 c4          	vpaddq %ymm4,%ymm0,%ymm0
    5cf2:	c4 e2 7d 35 e5       	vpmovzxdq %xmm5,%ymm4
    5cf7:	c5 f5 d4 cc          	vpaddq %ymm4,%ymm1,%ymm1
    5cfb:	c4 e2 7d 35 e6       	vpmovzxdq %xmm6,%ymm4
    5d00:	c5 ed d4 d4          	vpaddq %ymm4,%ymm2,%ymm2
    5d04:	c4 e2 7d 35 e7       	vpmovzxdq %xmm7,%ymm4
    5d09:	c5 e5 d4 dc          	vpaddq %ymm4,%ymm3,%ymm3
    5d0d:	41 83 c2 10          	add    $0x10,%r10d
    5d11:	49 83 c3 f0          	add    $0xfffffffffffffff0,%r11
    5d15:	75 89                	jne    5ca0 <main+0x1c00>
    5d17:	c5 f5 d4 c0          	vpaddq %ymm0,%ymm1,%ymm0
    5d1b:	c5 ed d4 c0          	vpaddq %ymm0,%ymm2,%ymm0
    5d1f:	c5 e5 d4 c0          	vpaddq %ymm0,%ymm3,%ymm0
    5d23:	c4 e3 7d 39 c1 01    	vextracti128 $0x1,%ymm0,%xmm1
    5d29:	c5 f9 d4 c1          	vpaddq %xmm1,%xmm0,%xmm0
    5d2d:	c5 f9 70 c8 ee       	vpshufd $0xee,%xmm0,%xmm1
    5d32:	c5 f9 d4 c1          	vpaddq %xmm1,%xmm0,%xmm0
    5d36:	c4 c1 f9 7e c2       	vmovq  %xmm0,%r10
    5d3b:	4c 8b 5c 24 10       	mov    0x10(%rsp),%r11
    5d40:	45 39 e3             	cmp    %r12d,%r11d
    5d43:	0f 84 e1 fd ff ff    	je     5b2a <main+0x1a8a>
    5d49:	4c 89 db             	mov    %r11,%rbx
    5d4c:	41 f6 c4 0c          	test   $0xc,%r12b
    5d50:	48 8b 0c 24          	mov    (%rsp),%rcx
    5d54:	0f 84 12 fe ff ff    	je     5b6c <main+0x1acc>
    5d5a:	c4 c1 f9 6e c2       	vmovq  %r10,%xmm0
    5d5f:	48 8b 94 24 c0 00 00 	mov    0xc0(%rsp),%rdx
    5d66:	00 
    5d67:	4e 8d 14 1a          	lea    (%rdx,%r11,1),%r10
    5d6b:	45 01 c3             	add    %r8d,%r11d
    5d6e:	66 90                	xchg   %ax,%ax
    5d70:	44 89 df             	mov    %r11d,%edi
    5d73:	c4 c1 7a 6f 0c bf    	vmovdqu (%r15,%rdi,4),%xmm1
    5d79:	c5 f1 fa 0c b9       	vpsubd (%rcx,%rdi,4),%xmm1,%xmm1
    5d7e:	c4 e2 79 1e c9       	vpabsd %xmm1,%xmm1
    5d83:	c4 e2 7d 35 c9       	vpmovzxdq %xmm1,%ymm1
    5d88:	c5 fd d4 c1          	vpaddq %ymm1,%ymm0,%ymm0
    5d8c:	41 83 c3 04          	add    $0x4,%r11d
    5d90:	49 83 c2 04          	add    $0x4,%r10
    5d94:	75 da                	jne    5d70 <main+0x1cd0>
    5d96:	c4 e3 7d 39 c1 01    	vextracti128 $0x1,%ymm0,%xmm1
    5d9c:	c5 f9 d4 c1          	vpaddq %xmm1,%xmm0,%xmm0
    5da0:	c5 f9 70 c8 ee       	vpshufd $0xee,%xmm0,%xmm1
    5da5:	c5 f9 d4 c1          	vpaddq %xmm1,%xmm0,%xmm0
    5da9:	c4 c1 f9 7e c2       	vmovq  %xmm0,%r10
    5dae:	48 8b 94 24 80 00 00 	mov    0x80(%rsp),%rdx
    5db5:	00 
    5db6:	48 89 d3             	mov    %rdx,%rbx
    5db9:	44 39 e2             	cmp    %r12d,%edx
    5dbc:	0f 84 6e fd ff ff    	je     5b30 <main+0x1a90>
    5dc2:	e9 a5 fd ff ff       	jmp    5b6c <main+0x1acc>
    5dc7:	c4 c1 bb 2a c2       	vcvtsi2sd %r10,%xmm8,%xmm0
    5dcc:	eb 04                	jmp    5dd2 <main+0x1d32>
    5dce:	c5 f9 57 c0          	vxorpd %xmm0,%xmm0,%xmm0
    5dd2:	44 89 e0             	mov    %r12d,%eax
    5dd5:	0f af c5             	imul   %ebp,%eax
    5dd8:	41 0f af c4          	imul   %r12d,%eax
    5ddc:	62 f1 3f 08 7b c8    	vcvtusi2sd %eax,%xmm8,%xmm1
    5de2:	c5 fb 5e c1          	vdivsd %xmm1,%xmm0,%xmm0
    5de6:	48 8b 3d cb 71 00 00 	mov    0x71cb(%rip),%rdi        # cfb8 <_ZSt4cout@GLIBCXX_3.4>
    5ded:	c5 f8 77             	vzeroupper
    5df0:	e8 db c3 ff ff       	call   21d0 <_ZNSo9_M_insertIdEERSoT_@plt>
    5df5:	49 89 c6             	mov    %rax,%r14
    5df8:	48 8b 00             	mov    (%rax),%rax
    5dfb:	48 8b 40 e8          	mov    -0x18(%rax),%rax
    5dff:	4d 8b ac 06 f0 00 00 	mov    0xf0(%r14,%rax,1),%r13
    5e06:	00 
    5e07:	4d 85 ed             	test   %r13,%r13
    5e0a:	0f 84 4e 3a 00 00    	je     985e <main+0x57be>
    5e10:	41 80 7d 38 00       	cmpb   $0x0,0x38(%r13)
    5e15:	74 07                	je     5e1e <main+0x1d7e>
    5e17:	41 0f b6 45 43       	movzbl 0x43(%r13),%eax
    5e1c:	eb 17                	jmp    5e35 <main+0x1d95>
    5e1e:	4c 89 ef             	mov    %r13,%rdi
    5e21:	e8 2a c3 ff ff       	call   2150 <_ZNKSt5ctypeIcE13_M_widen_initEv@plt>
    5e26:	49 8b 45 00          	mov    0x0(%r13),%rax
    5e2a:	4c 89 ef             	mov    %r13,%rdi
    5e2d:	be 0a 00 00 00       	mov    $0xa,%esi
    5e32:	ff 50 30             	call   *0x30(%rax)
    5e35:	0f be f0             	movsbl %al,%esi
    5e38:	4c 89 f7             	mov    %r14,%rdi
    5e3b:	e8 f0 c1 ff ff       	call   2030 <_ZNSo3putEc@plt>
    5e40:	48 89 c7             	mov    %rax,%rdi
    5e43:	e8 78 c2 ff ff       	call   20c0 <_ZNSo5flushEv@plt>
    5e48:	8b 4c 24 70          	mov    0x70(%rsp),%ecx
    5e4c:	89 c8                	mov    %ecx,%eax
    5e4e:	83 e0 fb             	and    $0xfffffffb,%eax
    5e51:	83 f8 02             	cmp    $0x2,%eax
    5e54:	0f 85 84 0e 00 00    	jne    6cde <main+0x2c3e>
    5e5a:	4c 89 e2             	mov    %r12,%rdx
    5e5d:	49 0f af d4          	imul   %r12,%rdx
    5e61:	48 c1 e2 02          	shl    $0x2,%rdx
    5e65:	4c 89 ff             	mov    %r15,%rdi
    5e68:	31 f6                	xor    %esi,%esi
    5e6a:	e8 31 c2 ff ff       	call   20a0 <memset@plt>
    5e6f:	48 8b 05 42 71 00 00 	mov    0x7142(%rip),%rax        # cfb8 <_ZSt4cout@GLIBCXX_3.4>
    5e76:	48 8b 08             	mov    (%rax),%rcx
    5e79:	48 8b 49 e8          	mov    -0x18(%rcx),%rcx
    5e7d:	4c 8b b4 08 f0 00 00 	mov    0xf0(%rax,%rcx,1),%r14
    5e84:	00 
    5e85:	4d 85 f6             	test   %r14,%r14
    5e88:	0f 84 d0 39 00 00    	je     985e <main+0x57be>
    5e8e:	41 80 7e 38 00       	cmpb   $0x0,0x38(%r14)
    5e93:	74 07                	je     5e9c <main+0x1dfc>
    5e95:	41 0f b6 46 43       	movzbl 0x43(%r14),%eax
    5e9a:	eb 16                	jmp    5eb2 <main+0x1e12>
    5e9c:	4c 89 f7             	mov    %r14,%rdi
    5e9f:	e8 ac c2 ff ff       	call   2150 <_ZNKSt5ctypeIcE13_M_widen_initEv@plt>
    5ea4:	49 8b 06             	mov    (%r14),%rax
    5ea7:	4c 89 f7             	mov    %r14,%rdi
    5eaa:	be 0a 00 00 00       	mov    $0xa,%esi
    5eaf:	ff 50 30             	call   *0x30(%rax)
    5eb2:	0f be f0             	movsbl %al,%esi
    5eb5:	48 8b 3d fc 70 00 00 	mov    0x70fc(%rip),%rdi        # cfb8 <_ZSt4cout@GLIBCXX_3.4>
    5ebc:	e8 6f c1 ff ff       	call   2030 <_ZNSo3putEc@plt>
    5ec1:	48 89 c7             	mov    %rax,%rdi
    5ec4:	e8 f7 c1 ff ff       	call   20c0 <_ZNSo5flushEv@plt>
    5ec9:	49 89 c6             	mov    %rax,%r14
    5ecc:	48 8d 35 e7 55 00 00 	lea    0x55e7(%rip),%rsi        # b4ba <_IO_stdin_used+0x4ba>
    5ed3:	ba 08 00 00 00       	mov    $0x8,%edx
    5ed8:	48 89 c7             	mov    %rax,%rdi
    5edb:	e8 60 c2 ff ff       	call   2140 <_ZSt16__ostream_insertIcSt11char_traitsIcEERSt13basic_ostreamIT_T0_ES6_PKS3_l@plt>
    5ee0:	48 8d 35 95 56 00 00 	lea    0x5695(%rip),%rsi        # b57c <_IO_stdin_used+0x57c>
    5ee7:	ba 19 00 00 00       	mov    $0x19,%edx
    5eec:	4c 89 f7             	mov    %r14,%rdi
    5eef:	e8 4c c2 ff ff       	call   2140 <_ZSt16__ostream_insertIcSt11char_traitsIcEERSt13basic_ostreamIT_T0_ES6_PKS3_l@plt>
    5ef4:	48 8d 35 de 55 00 00 	lea    0x55de(%rip),%rsi        # b4d9 <_IO_stdin_used+0x4d9>
    5efb:	ba 05 00 00 00       	mov    $0x5,%edx
    5f00:	4c 89 f7             	mov    %r14,%rdi
    5f03:	e8 38 c2 ff ff       	call   2140 <_ZSt16__ostream_insertIcSt11char_traitsIcEERSt13basic_ostreamIT_T0_ES6_PKS3_l@plt>
    5f08:	bf 50 00 00 00       	mov    $0x50,%edi
    5f0d:	e8 fe c1 ff ff       	call   2110 <_Znwm@plt>
    5f12:	48 89 c3             	mov    %rax,%rbx
    5f15:	c5 f8 57 c0          	vxorps %xmm0,%xmm0,%xmm0
    5f19:	c5 fc 11 40 30       	vmovups %ymm0,0x30(%rax)
    5f1e:	c5 fc 11 40 20       	vmovups %ymm0,0x20(%rax)
    5f23:	c5 fc 11 00          	vmovups %ymm0,(%rax)
    5f27:	c5 f8 77             	vzeroupper
    5f2a:	e8 11 c1 ff ff       	call   2040 <_ZNSt6chrono3_V212system_clock3nowEv@plt>
    5f2f:	49 89 c6             	mov    %rax,%r14
    5f32:	44 89 e7             	mov    %r12d,%edi
    5f35:	89 ee                	mov    %ebp,%esi
    5f37:	4c 89 fa             	mov    %r15,%rdx
    5f3a:	e8 b1 c7 ff ff       	call   26f0 <_Z25mandelbrot_cpu_vector_ilpjjPj>
    5f3f:	e8 fc c0 ff ff       	call   2040 <_ZNSt6chrono3_V212system_clock3nowEv@plt>
    5f44:	4c 29 f0             	sub    %r14,%rax
    5f47:	62 f1 9f 08 7b c0    	vcvtusi2sd %rax,%xmm12,%xmm0
    5f4d:	c5 fb 11 03          	vmovsd %xmm0,(%rbx)
    5f51:	e8 ea c0 ff ff       	call   2040 <_ZNSt6chrono3_V212system_clock3nowEv@plt>
    5f56:	49 89 c6             	mov    %rax,%r14
    5f59:	44 89 e7             	mov    %r12d,%edi
    5f5c:	89 ee                	mov    %ebp,%esi
    5f5e:	4c 89 fa             	mov    %r15,%rdx
    5f61:	e8 8a c7 ff ff       	call   26f0 <_Z25mandelbrot_cpu_vector_ilpjjPj>
    5f66:	e8 d5 c0 ff ff       	call   2040 <_ZNSt6chrono3_V212system_clock3nowEv@plt>
    5f6b:	4c 29 f0             	sub    %r14,%rax
    5f6e:	62 f1 9f 08 7b c0    	vcvtusi2sd %rax,%xmm12,%xmm0
    5f74:	c5 fb 11 43 08       	vmovsd %xmm0,0x8(%rbx)
    5f79:	e8 c2 c0 ff ff       	call   2040 <_ZNSt6chrono3_V212system_clock3nowEv@plt>
    5f7e:	49 89 c6             	mov    %rax,%r14
    5f81:	44 89 e7             	mov    %r12d,%edi
    5f84:	89 ee                	mov    %ebp,%esi
    5f86:	4c 89 fa             	mov    %r15,%rdx
    5f89:	e8 62 c7 ff ff       	call   26f0 <_Z25mandelbrot_cpu_vector_ilpjjPj>
    5f8e:	e8 ad c0 ff ff       	call   2040 <_ZNSt6chrono3_V212system_clock3nowEv@plt>
    5f93:	4c 29 f0             	sub    %r14,%rax
    5f96:	62 f1 9f 08 7b c0    	vcvtusi2sd %rax,%xmm12,%xmm0
    5f9c:	c5 fb 11 43 10       	vmovsd %xmm0,0x10(%rbx)
    5fa1:	e8 9a c0 ff ff       	call   2040 <_ZNSt6chrono3_V212system_clock3nowEv@plt>
    5fa6:	49 89 c6             	mov    %rax,%r14
    5fa9:	44 89 e7             	mov    %r12d,%edi
    5fac:	89 ee                	mov    %ebp,%esi
    5fae:	4c 89 fa             	mov    %r15,%rdx
    5fb1:	e8 3a c7 ff ff       	call   26f0 <_Z25mandelbrot_cpu_vector_ilpjjPj>
    5fb6:	e8 85 c0 ff ff       	call   2040 <_ZNSt6chrono3_V212system_clock3nowEv@plt>
    5fbb:	4c 29 f0             	sub    %r14,%rax
    5fbe:	62 f1 9f 08 7b c0    	vcvtusi2sd %rax,%xmm12,%xmm0
    5fc4:	c5 fb 11 43 18       	vmovsd %xmm0,0x18(%rbx)
    5fc9:	e8 72 c0 ff ff       	call   2040 <_ZNSt6chrono3_V212system_clock3nowEv@plt>
    5fce:	49 89 c6             	mov    %rax,%r14
    5fd1:	44 89 e7             	mov    %r12d,%edi
    5fd4:	89 ee                	mov    %ebp,%esi
    5fd6:	4c 89 fa             	mov    %r15,%rdx
    5fd9:	e8 12 c7 ff ff       	call   26f0 <_Z25mandelbrot_cpu_vector_ilpjjPj>
    5fde:	e8 5d c0 ff ff       	call   2040 <_ZNSt6chrono3_V212system_clock3nowEv@plt>
    5fe3:	4c 29 f0             	sub    %r14,%rax
    5fe6:	62 f1 ef 08 7b c0    	vcvtusi2sd %rax,%xmm2,%xmm0
    5fec:	c5 fb 11 43 20       	vmovsd %xmm0,0x20(%rbx)
    5ff1:	e8 4a c0 ff ff       	call   2040 <_ZNSt6chrono3_V212system_clock3nowEv@plt>
    5ff6:	49 89 c6             	mov    %rax,%r14
    5ff9:	44 89 e7             	mov    %r12d,%edi
    5ffc:	89 ee                	mov    %ebp,%esi
    5ffe:	4c 89 fa             	mov    %r15,%rdx
    6001:	e8 ea c6 ff ff       	call   26f0 <_Z25mandelbrot_cpu_vector_ilpjjPj>
    6006:	e8 35 c0 ff ff       	call   2040 <_ZNSt6chrono3_V212system_clock3nowEv@plt>
    600b:	4c 29 f0             	sub    %r14,%rax
    600e:	62 f1 f7 08 7b c0    	vcvtusi2sd %rax,%xmm1,%xmm0
    6014:	c5 fb 11 43 28       	vmovsd %xmm0,0x28(%rbx)
    6019:	e8 22 c0 ff ff       	call   2040 <_ZNSt6chrono3_V212system_clock3nowEv@plt>
    601e:	49 89 c6             	mov    %rax,%r14
    6021:	44 89 e7             	mov    %r12d,%edi
    6024:	89 ee                	mov    %ebp,%esi
    6026:	4c 89 fa             	mov    %r15,%rdx
    6029:	e8 c2 c6 ff ff       	call   26f0 <_Z25mandelbrot_cpu_vector_ilpjjPj>
    602e:	e8 0d c0 ff ff       	call   2040 <_ZNSt6chrono3_V212system_clock3nowEv@plt>
    6033:	4c 29 f0             	sub    %r14,%rax
    6036:	62 f1 f7 08 7b c0    	vcvtusi2sd %rax,%xmm1,%xmm0
    603c:	c5 fb 11 43 30       	vmovsd %xmm0,0x30(%rbx)
    6041:	e8 fa bf ff ff       	call   2040 <_ZNSt6chrono3_V212system_clock3nowEv@plt>
    6046:	49 89 c6             	mov    %rax,%r14
    6049:	44 89 e7             	mov    %r12d,%edi
    604c:	89 ee                	mov    %ebp,%esi
    604e:	4c 89 fa             	mov    %r15,%rdx
    6051:	e8 9a c6 ff ff       	call   26f0 <_Z25mandelbrot_cpu_vector_ilpjjPj>
    6056:	e8 e5 bf ff ff       	call   2040 <_ZNSt6chrono3_V212system_clock3nowEv@plt>
    605b:	4c 29 f0             	sub    %r14,%rax
    605e:	62 f1 f7 08 7b c0    	vcvtusi2sd %rax,%xmm1,%xmm0
    6064:	c5 fb 11 43 38       	vmovsd %xmm0,0x38(%rbx)
    6069:	e8 d2 bf ff ff       	call   2040 <_ZNSt6chrono3_V212system_clock3nowEv@plt>
    606e:	49 89 c6             	mov    %rax,%r14
    6071:	44 89 e7             	mov    %r12d,%edi
    6074:	89 ee                	mov    %ebp,%esi
    6076:	4c 89 fa             	mov    %r15,%rdx
    6079:	e8 72 c6 ff ff       	call   26f0 <_Z25mandelbrot_cpu_vector_ilpjjPj>
    607e:	e8 bd bf ff ff       	call   2040 <_ZNSt6chrono3_V212system_clock3nowEv@plt>
    6083:	4c 29 f0             	sub    %r14,%rax
    6086:	62 f1 f7 08 7b c0    	vcvtusi2sd %rax,%xmm1,%xmm0
    608c:	c5 fb 11 43 40       	vmovsd %xmm0,0x40(%rbx)
    6091:	e8 aa bf ff ff       	call   2040 <_ZNSt6chrono3_V212system_clock3nowEv@plt>
    6096:	49 89 c6             	mov    %rax,%r14
    6099:	44 89 e7             	mov    %r12d,%edi
    609c:	89 ee                	mov    %ebp,%esi
    609e:	4c 89 fa             	mov    %r15,%rdx
    60a1:	e8 4a c6 ff ff       	call   26f0 <_Z25mandelbrot_cpu_vector_ilpjjPj>
    60a6:	e8 95 bf ff ff       	call   2040 <_ZNSt6chrono3_V212system_clock3nowEv@plt>
    60ab:	4c 29 f0             	sub    %r14,%rax
    60ae:	62 f1 f7 08 7b c0    	vcvtusi2sd %rax,%xmm1,%xmm0
    60b4:	c5 fb 11 43 48       	vmovsd %xmm0,0x48(%rbx)
    60b9:	49 89 de             	mov    %rbx,%r14
    60bc:	49 83 c6 50          	add    $0x50,%r14
    60c0:	ba 06 00 00 00       	mov    $0x6,%edx
    60c5:	48 89 df             	mov    %rbx,%rdi
    60c8:	4c 89 f6             	mov    %r14,%rsi
    60cb:	e8 20 3a 00 00       	call   9af0 <_ZSt16__introsort_loopIN9__gnu_cxx17__normal_iteratorIPdSt6vectorIdSaIdEEEElNS0_5__ops15_Iter_less_iterEEvT_S9_T0_T1_>
    60d0:	48 89 df             	mov    %rbx,%rdi
    60d3:	4c 89 f6             	mov    %r14,%rsi
    60d6:	e8 b5 3c 00 00       	call   9d90 <_ZSt22__final_insertion_sortIN9__gnu_cxx17__normal_iteratorIPdSt6vectorIdSaIdEEEENS0_5__ops15_Iter_less_iterEEvT_S9_T0_>
    60db:	48 8d bc 24 20 01 00 	lea    0x120(%rsp),%rdi
    60e2:	00 
    60e3:	e8 e8 bf ff ff       	call   20d0 <_ZNSt7__cxx1118basic_stringstreamIcSt11char_traitsIcESaIcEEC1Ev@plt>
    60e8:	48 8d bc 24 30 01 00 	lea    0x130(%rsp),%rdi
    60ef:	00 
    60f0:	48 8b 84 24 30 01 00 	mov    0x130(%rsp),%rax
    60f7:	00 
    60f8:	48 8b 48 e8          	mov    -0x18(%rax),%rcx
    60fc:	ba fb fe ff ff       	mov    $0xfffffefb,%edx
    6101:	23 94 0c 48 01 00 00 	and    0x148(%rsp,%rcx,1),%edx
    6108:	83 ca 04             	or     $0x4,%edx
    610b:	89 94 0c 48 01 00 00 	mov    %edx,0x148(%rsp,%rcx,1)
    6112:	48 8b 48 e8          	mov    -0x18(%rax),%rcx
    6116:	48 c7 84 0c 40 01 00 	movq   $0x6,0x140(%rsp,%rcx,1)
    611d:	00 06 00 00 00 
    6122:	48 8b 40 e8          	mov    -0x18(%rax),%rax
    6126:	48 c7 84 04 38 01 00 	movq   $0x2,0x138(%rsp,%rax,1)
    612d:	00 02 00 00 00 
    6132:	c5 fb 10 03          	vmovsd (%rbx),%xmm0
    6136:	c5 fb 59 05 82 52 00 	vmulsd 0x5282(%rip),%xmm0,%xmm0        # b3c0 <_IO_stdin_used+0x3c0>
    613d:	00 
    613e:	e8 8d c0 ff ff       	call   21d0 <_ZNSo9_M_insertIdEERSoT_@plt>
    6143:	48 8b 3d 6e 6e 00 00 	mov    0x6e6e(%rip),%rdi        # cfb8 <_ZSt4cout@GLIBCXX_3.4>
    614a:	48 8d 35 8e 53 00 00 	lea    0x538e(%rip),%rsi        # b4df <_IO_stdin_used+0x4df>
    6151:	ba 0b 00 00 00       	mov    $0xb,%edx
    6156:	e8 e5 bf ff ff       	call   2140 <_ZSt16__ostream_insertIcSt11char_traitsIcEERSt13basic_ostreamIT_T0_ES6_PKS3_l@plt>
    615b:	4c 8d 74 24 30       	lea    0x30(%rsp),%r14
    6160:	4c 89 74 24 20       	mov    %r14,0x20(%rsp)
    6165:	48 c7 44 24 28 00 00 	movq   $0x0,0x28(%rsp)
    616c:	00 00 
    616e:	c6 44 24 30 00       	movb   $0x0,0x30(%rsp)
    6173:	4c 8b 84 24 50 01 00 	mov    0x150(%rsp),%r8
    617a:	00 
    617b:	48 8b 84 24 60 01 00 	mov    0x160(%rsp),%rax
    6182:	00 
    6183:	48 85 c0             	test   %rax,%rax
    6186:	0f 94 c1             	sete   %cl
    6189:	4c 39 c0             	cmp    %r8,%rax
    618c:	4c 0f 47 c0          	cmova  %rax,%r8
    6190:	4d 85 c0             	test   %r8,%r8
    6193:	0f 94 c0             	sete   %al
    6196:	08 c8                	or     %cl,%al
    6198:	74 14                	je     61ae <main+0x210e>
    619a:	48 8d b4 24 80 01 00 	lea    0x180(%rsp),%rsi
    61a1:	00 
    61a2:	48 8d 7c 24 20       	lea    0x20(%rsp),%rdi
    61a7:	e8 f4 42 00 00       	call   a4a0 <_ZNSt7__cxx1112basic_stringIcSt11char_traitsIcESaIcEE9_M_assignERKS4_>
    61ac:	eb 19                	jmp    61c7 <main+0x2127>
    61ae:	48 8b 8c 24 58 01 00 	mov    0x158(%rsp),%rcx
    61b5:	00 
    61b6:	49 29 c8             	sub    %rcx,%r8
    61b9:	48 8d 7c 24 20       	lea    0x20(%rsp),%rdi
    61be:	31 f6                	xor    %esi,%esi
    61c0:	31 d2                	xor    %edx,%edx
    61c2:	e8 09 40 00 00       	call   a1d0 <_ZNSt7__cxx1112basic_stringIcSt11char_traitsIcESaIcEE10_M_replaceEmmPKcm>
    61c7:	48 8b 74 24 20       	mov    0x20(%rsp),%rsi
    61cc:	48 8b 54 24 28       	mov    0x28(%rsp),%rdx
    61d1:	48 8b 3d e0 6d 00 00 	mov    0x6de0(%rip),%rdi        # cfb8 <_ZSt4cout@GLIBCXX_3.4>
    61d8:	e8 63 bf ff ff       	call   2140 <_ZSt16__ostream_insertIcSt11char_traitsIcEERSt13basic_ostreamIT_T0_ES6_PKS3_l@plt>
    61dd:	49 89 c5             	mov    %rax,%r13
    61e0:	48 8d 35 04 53 00 00 	lea    0x5304(%rip),%rsi        # b4eb <_IO_stdin_used+0x4eb>
    61e7:	ba 03 00 00 00       	mov    $0x3,%edx
    61ec:	48 89 c7             	mov    %rax,%rdi
    61ef:	e8 4c bf ff ff       	call   2140 <_ZSt16__ostream_insertIcSt11char_traitsIcEERSt13basic_ostreamIT_T0_ES6_PKS3_l@plt>
    61f4:	49 8b 45 00          	mov    0x0(%r13),%rax
    61f8:	48 8b 40 e8          	mov    -0x18(%rax),%rax
    61fc:	4d 8b b4 05 f0 00 00 	mov    0xf0(%r13,%rax,1),%r14
    6203:	00 
    6204:	4d 85 f6             	test   %r14,%r14
    6207:	0f 84 65 36 00 00    	je     9872 <main+0x57d2>
    620d:	41 80 7e 38 00       	cmpb   $0x0,0x38(%r14)
    6212:	74 07                	je     621b <main+0x217b>
    6214:	41 0f b6 46 43       	movzbl 0x43(%r14),%eax
    6219:	eb 16                	jmp    6231 <main+0x2191>
    621b:	4c 89 f7             	mov    %r14,%rdi
    621e:	e8 2d bf ff ff       	call   2150 <_ZNKSt5ctypeIcE13_M_widen_initEv@plt>
    6223:	49 8b 06             	mov    (%r14),%rax
    6226:	4c 89 f7             	mov    %r14,%rdi
    6229:	be 0a 00 00 00       	mov    $0xa,%esi
    622e:	ff 50 30             	call   *0x30(%rax)
    6231:	0f be f0             	movsbl %al,%esi
    6234:	4c 89 ef             	mov    %r13,%rdi
    6237:	e8 f4 bd ff ff       	call   2030 <_ZNSo3putEc@plt>
    623c:	48 89 c7             	mov    %rax,%rdi
    623f:	e8 7c be ff ff       	call   20c0 <_ZNSo5flushEv@plt>
    6244:	49 89 de             	mov    %rbx,%r14
    6247:	48 8b 7c 24 20       	mov    0x20(%rsp),%rdi
    624c:	48 8d 44 24 30       	lea    0x30(%rsp),%rax
    6251:	48 39 c7             	cmp    %rax,%rdi
    6254:	74 0d                	je     6263 <main+0x21c3>
    6256:	48 8b 74 24 30       	mov    0x30(%rsp),%rsi
    625b:	48 ff c6             	inc    %rsi
    625e:	e8 bd be ff ff       	call   2120 <_ZdlPvm@plt>
    6263:	48 8b 1d 2e 6d 00 00 	mov    0x6d2e(%rip),%rbx        # cf98 <_ZTTNSt7__cxx1118basic_stringstreamIcSt11char_traitsIcESaIcEEE@GLIBCXX_3.4.21>
    626a:	48 8b 03             	mov    (%rbx),%rax
    626d:	48 8b 4b 40          	mov    0x40(%rbx),%rcx
    6271:	48 89 84 24 20 01 00 	mov    %rax,0x120(%rsp)
    6278:	00 
    6279:	48 8b 40 e8          	mov    -0x18(%rax),%rax
    627d:	48 89 8c 04 20 01 00 	mov    %rcx,0x120(%rsp,%rax,1)
    6284:	00 
    6285:	48 8b 43 48          	mov    0x48(%rbx),%rax
    6289:	48 89 84 24 30 01 00 	mov    %rax,0x130(%rsp)
    6290:	00 
    6291:	48 8b 05 48 6d 00 00 	mov    0x6d48(%rip),%rax        # cfe0 <_ZTVNSt7__cxx1115basic_stringbufIcSt11char_traitsIcESaIcEEE@GLIBCXX_3.4.21>
    6298:	48 83 c0 10          	add    $0x10,%rax
    629c:	48 89 84 24 38 01 00 	mov    %rax,0x138(%rsp)
    62a3:	00 
    62a4:	48 8b bc 24 80 01 00 	mov    0x180(%rsp),%rdi
    62ab:	00 
    62ac:	48 8d 84 24 90 01 00 	lea    0x190(%rsp),%rax
    62b3:	00 
    62b4:	48 39 c7             	cmp    %rax,%rdi
    62b7:	74 10                	je     62c9 <main+0x2229>
    62b9:	48 8b b4 24 90 01 00 	mov    0x190(%rsp),%rsi
    62c0:	00 
    62c1:	48 ff c6             	inc    %rsi
    62c4:	e8 57 be ff ff       	call   2120 <_ZdlPvm@plt>
    62c9:	48 8b 05 d8 6c 00 00 	mov    0x6cd8(%rip),%rax        # cfa8 <_ZTVSt15basic_streambufIcSt11char_traitsIcEE@GLIBCXX_3.4>
    62d0:	48 83 c0 10          	add    $0x10,%rax
    62d4:	48 89 84 24 38 01 00 	mov    %rax,0x138(%rsp)
    62db:	00 
    62dc:	48 8d bc 24 70 01 00 	lea    0x170(%rsp),%rdi
    62e3:	00 
    62e4:	e8 c7 be ff ff       	call   21b0 <_ZNSt6localeD1Ev@plt>
    62e9:	48 8b 43 10          	mov    0x10(%rbx),%rax
    62ed:	48 8b 4b 18          	mov    0x18(%rbx),%rcx
    62f1:	48 89 84 24 20 01 00 	mov    %rax,0x120(%rsp)
    62f8:	00 
    62f9:	48 8b 40 e8          	mov    -0x18(%rax),%rax
    62fd:	48 89 8c 04 20 01 00 	mov    %rcx,0x120(%rsp,%rax,1)
    6304:	00 
    6305:	48 c7 84 24 28 01 00 	movq   $0x0,0x128(%rsp)
    630c:	00 00 00 00 00 
    6311:	48 8d bc 24 a0 01 00 	lea    0x1a0(%rsp),%rdi
    6318:	00 
    6319:	e8 32 bd ff ff       	call   2050 <_ZNSt8ios_baseD2Ev@plt>
    631e:	be 50 00 00 00       	mov    $0x50,%esi
    6323:	4c 89 f7             	mov    %r14,%rdi
    6326:	e8 f5 bd ff ff       	call   2120 <_ZdlPvm@plt>
    632b:	41 89 e9             	mov    %ebp,%r9d
    632e:	4d 85 e4             	test   %r12,%r12
    6331:	48 8b 1c 24          	mov    (%rsp),%rbx
    6335:	0f 84 22 03 00 00    	je     665d <main+0x25bd>
    633b:	49 8d 44 24 ff       	lea    -0x1(%r12),%rax
    6340:	44 89 e1             	mov    %r12d,%ecx
    6343:	83 e1 e0             	and    $0xffffffe0,%ecx
    6346:	44 89 e2             	mov    %r12d,%edx
    6349:	83 e2 fc             	and    $0xfffffffc,%edx
    634c:	48 89 d6             	mov    %rdx,%rsi
    634f:	48 f7 de             	neg    %rsi
    6352:	31 ff                	xor    %edi,%edi
    6354:	45 31 c0             	xor    %r8d,%r8d
    6357:	41 89 e9             	mov    %ebp,%r9d
    635a:	eb 13                	jmp    636f <main+0x22cf>
    635c:	0f 1f 40 00          	nopl   0x0(%rax)
    6360:	41 ff c0             	inc    %r8d
    6363:	4c 01 e7             	add    %r12,%rdi
    6366:	45 39 e0             	cmp    %r12d,%r8d
    6369:	0f 84 ee 02 00 00    	je     665d <main+0x25bd>
    636f:	41 83 fc 03          	cmp    $0x3,%r12d
    6373:	76 22                	jbe    6397 <main+0x22f7>
    6375:	49 89 c2             	mov    %rax,%r10
    6378:	49 c1 ea 20          	shr    $0x20,%r10
    637c:	41 0f 95 c2          	setne  %r10b
    6380:	45 89 e3             	mov    %r12d,%r11d
    6383:	45 0f af d8          	imul   %r8d,%r11d
    6387:	41 01 c3             	add    %eax,%r11d
    638a:	41 0f 92 c3          	setb   %r11b
    638e:	45 08 d3             	or     %r10b,%r11b
    6391:	0f 84 c9 01 00 00    	je     6560 <main+0x24c0>
    6397:	45 31 db             	xor    %r11d,%r11d
    639a:	44 89 e3             	mov    %r12d,%ebx
    639d:	44 29 db             	sub    %r11d,%ebx
    63a0:	4d 89 da             	mov    %r11,%r10
    63a3:	83 e3 07             	and    $0x7,%ebx
    63a6:	74 1f                	je     63c7 <main+0x2327>
    63a8:	0f 1f 84 00 00 00 00 	nopl   0x0(%rax,%rax,1)
    63af:	00 
    63b0:	46 8d 34 17          	lea    (%rdi,%r10,1),%r14d
    63b4:	47 8b 34 b7          	mov    (%r15,%r14,4),%r14d
    63b8:	45 39 ce             	cmp    %r9d,%r14d
    63bb:	45 0f 42 ce          	cmovb  %r14d,%r9d
    63bf:	49 ff c2             	inc    %r10
    63c2:	48 ff cb             	dec    %rbx
    63c5:	75 e9                	jne    63b0 <main+0x2310>
    63c7:	4d 29 e3             	sub    %r12,%r11
    63ca:	49 83 fb f8          	cmp    $0xfffffffffffffff8,%r11
    63ce:	48 8b 1c 24          	mov    (%rsp),%rbx
    63d2:	76 19                	jbe    63ed <main+0x234d>
    63d4:	eb 8a                	jmp    6360 <main+0x22c0>
    63d6:	66 2e 0f 1f 84 00 00 	cs nopw 0x0(%rax,%rax,1)
    63dd:	00 00 00 
    63e0:	49 83 c2 08          	add    $0x8,%r10
    63e4:	4d 39 d4             	cmp    %r10,%r12
    63e7:	0f 84 73 ff ff ff    	je     6360 <main+0x22c0>
    63ed:	46 8d 1c 17          	lea    (%rdi,%r10,1),%r11d
    63f1:	47 8b 1c 9f          	mov    (%r15,%r11,4),%r11d
    63f5:	45 39 cb             	cmp    %r9d,%r11d
    63f8:	0f 82 b2 00 00 00    	jb     64b0 <main+0x2410>
    63fe:	45 89 cb             	mov    %r9d,%r11d
    6401:	46 8d 0c 17          	lea    (%rdi,%r10,1),%r9d
    6405:	41 ff c1             	inc    %r9d
    6408:	47 8b 0c 8f          	mov    (%r15,%r9,4),%r9d
    640c:	45 39 d9             	cmp    %r11d,%r9d
    640f:	0f 83 af 00 00 00    	jae    64c4 <main+0x2424>
    6415:	46 8d 1c 17          	lea    (%rdi,%r10,1),%r11d
    6419:	41 83 c3 02          	add    $0x2,%r11d
    641d:	47 8b 1c 9f          	mov    (%r15,%r11,4),%r11d
    6421:	45 39 cb             	cmp    %r9d,%r11d
    6424:	0f 82 b2 00 00 00    	jb     64dc <main+0x243c>
    642a:	45 89 cb             	mov    %r9d,%r11d
    642d:	46 8d 0c 17          	lea    (%rdi,%r10,1),%r9d
    6431:	41 83 c1 03          	add    $0x3,%r9d
    6435:	47 8b 0c 8f          	mov    (%r15,%r9,4),%r9d
    6439:	45 39 d9             	cmp    %r11d,%r9d
    643c:	0f 83 af 00 00 00    	jae    64f1 <main+0x2451>
    6442:	46 8d 1c 17          	lea    (%rdi,%r10,1),%r11d
    6446:	41 83 c3 04          	add    $0x4,%r11d
    644a:	47 8b 1c 9f          	mov    (%r15,%r11,4),%r11d
    644e:	45 39 cb             	cmp    %r9d,%r11d
    6451:	0f 82 b2 00 00 00    	jb     6509 <main+0x2469>
    6457:	45 89 cb             	mov    %r9d,%r11d
    645a:	46 8d 0c 17          	lea    (%rdi,%r10,1),%r9d
    645e:	41 83 c1 05          	add    $0x5,%r9d
    6462:	47 8b 0c 8f          	mov    (%r15,%r9,4),%r9d
    6466:	45 39 d9             	cmp    %r11d,%r9d
    6469:	0f 83 af 00 00 00    	jae    651e <main+0x247e>
    646f:	46 8d 1c 17          	lea    (%rdi,%r10,1),%r11d
    6473:	41 83 c3 06          	add    $0x6,%r11d
    6477:	47 8b 1c 9f          	mov    (%r15,%r11,4),%r11d
    647b:	45 39 cb             	cmp    %r9d,%r11d
    647e:	0f 82 b2 00 00 00    	jb     6536 <main+0x2496>
    6484:	45 89 cb             	mov    %r9d,%r11d
    6487:	46 8d 0c 17          	lea    (%rdi,%r10,1),%r9d
    648b:	41 83 c1 07          	add    $0x7,%r9d
    648f:	47 8b 0c 8f          	mov    (%r15,%r9,4),%r9d
    6493:	45 39 d9             	cmp    %r11d,%r9d
    6496:	0f 82 44 ff ff ff    	jb     63e0 <main+0x2340>
    649c:	e9 aa 00 00 00       	jmp    654b <main+0x24ab>
    64a1:	66 66 66 66 66 66 2e 	data16 data16 data16 data16 data16 cs nopw 0x0(%rax,%rax,1)
    64a8:	0f 1f 84 00 00 00 00 
    64af:	00 
    64b0:	46 8d 0c 17          	lea    (%rdi,%r10,1),%r9d
    64b4:	41 ff c1             	inc    %r9d
    64b7:	47 8b 0c 8f          	mov    (%r15,%r9,4),%r9d
    64bb:	45 39 d9             	cmp    %r11d,%r9d
    64be:	0f 82 51 ff ff ff    	jb     6415 <main+0x2375>
    64c4:	45 89 d9             	mov    %r11d,%r9d
    64c7:	46 8d 1c 17          	lea    (%rdi,%r10,1),%r11d
    64cb:	41 83 c3 02          	add    $0x2,%r11d
    64cf:	47 8b 1c 9f          	mov    (%r15,%r11,4),%r11d
    64d3:	45 39 cb             	cmp    %r9d,%r11d
    64d6:	0f 83 4e ff ff ff    	jae    642a <main+0x238a>
    64dc:	46 8d 0c 17          	lea    (%rdi,%r10,1),%r9d
    64e0:	41 83 c1 03          	add    $0x3,%r9d
    64e4:	47 8b 0c 8f          	mov    (%r15,%r9,4),%r9d
    64e8:	45 39 d9             	cmp    %r11d,%r9d
    64eb:	0f 82 51 ff ff ff    	jb     6442 <main+0x23a2>
    64f1:	45 89 d9             	mov    %r11d,%r9d
    64f4:	46 8d 1c 17          	lea    (%rdi,%r10,1),%r11d
    64f8:	41 83 c3 04          	add    $0x4,%r11d
    64fc:	47 8b 1c 9f          	mov    (%r15,%r11,4),%r11d
    6500:	45 39 cb             	cmp    %r9d,%r11d
    6503:	0f 83 4e ff ff ff    	jae    6457 <main+0x23b7>
    6509:	46 8d 0c 17          	lea    (%rdi,%r10,1),%r9d
    650d:	41 83 c1 05          	add    $0x5,%r9d
    6511:	47 8b 0c 8f          	mov    (%r15,%r9,4),%r9d
    6515:	45 39 d9             	cmp    %r11d,%r9d
    6518:	0f 82 51 ff ff ff    	jb     646f <main+0x23cf>
    651e:	45 89 d9             	mov    %r11d,%r9d
    6521:	46 8d 1c 17          	lea    (%rdi,%r10,1),%r11d
    6525:	41 83 c3 06          	add    $0x6,%r11d
    6529:	47 8b 1c 9f          	mov    (%r15,%r11,4),%r11d
    652d:	45 39 cb             	cmp    %r9d,%r11d
    6530:	0f 83 4e ff ff ff    	jae    6484 <main+0x23e4>
    6536:	46 8d 0c 17          	lea    (%rdi,%r10,1),%r9d
    653a:	41 83 c1 07          	add    $0x7,%r9d
    653e:	47 8b 0c 8f          	mov    (%r15,%r9,4),%r9d
    6542:	45 39 d9             	cmp    %r11d,%r9d
    6545:	0f 82 95 fe ff ff    	jb     63e0 <main+0x2340>
    654b:	45 89 d9             	mov    %r11d,%r9d
    654e:	e9 8d fe ff ff       	jmp    63e0 <main+0x2340>
    6553:	66 66 66 66 2e 0f 1f 	data16 data16 data16 cs nopw 0x0(%rax,%rax,1)
    655a:	84 00 00 00 00 00 
    6560:	41 83 fc 20          	cmp    $0x20,%r12d
    6564:	73 08                	jae    656e <main+0x24ce>
    6566:	45 31 d2             	xor    %r10d,%r10d
    6569:	e9 96 00 00 00       	jmp    6604 <main+0x2564>
    656e:	62 d2 7d 28 7c c1    	vpbroadcastd %r9d,%ymm0
    6574:	41 89 f9             	mov    %edi,%r9d
    6577:	49 89 ca             	mov    %rcx,%r10
    657a:	c5 fd 6f c8          	vmovdqa %ymm0,%ymm1
    657e:	c5 fd 6f d0          	vmovdqa %ymm0,%ymm2
    6582:	c5 fd 6f d8          	vmovdqa %ymm0,%ymm3
    6586:	66 2e 0f 1f 84 00 00 	cs nopw 0x0(%rax,%rax,1)
    658d:	00 00 00 
    6590:	45 89 cb             	mov    %r9d,%r11d
    6593:	c4 82 7d 3b 04 9f    	vpminud (%r15,%r11,4),%ymm0,%ymm0
    6599:	c4 82 75 3b 4c 9f 20 	vpminud 0x20(%r15,%r11,4),%ymm1,%ymm1
    65a0:	c4 82 6d 3b 54 9f 40 	vpminud 0x40(%r15,%r11,4),%ymm2,%ymm2
    65a7:	c4 82 65 3b 5c 9f 60 	vpminud 0x60(%r15,%r11,4),%ymm3,%ymm3
    65ae:	41 83 c1 20          	add    $0x20,%r9d
    65b2:	49 83 c2 e0          	add    $0xffffffffffffffe0,%r10
    65b6:	75 d8                	jne    6590 <main+0x24f0>
    65b8:	c4 e2 7d 3b c1       	vpminud %ymm1,%ymm0,%ymm0
    65bd:	c4 e2 6d 3b cb       	vpminud %ymm3,%ymm2,%ymm1
    65c2:	c4 e2 7d 3b c1       	vpminud %ymm1,%ymm0,%ymm0
    65c7:	c4 e3 7d 39 c1 01    	vextracti128 $0x1,%ymm0,%xmm1
    65cd:	c4 e2 79 3b c1       	vpminud %xmm1,%xmm0,%xmm0
    65d2:	c5 f9 70 c8 ee       	vpshufd $0xee,%xmm0,%xmm1
    65d7:	c4 e2 79 3b c1       	vpminud %xmm1,%xmm0,%xmm0
    65dc:	c5 f9 70 c8 55       	vpshufd $0x55,%xmm0,%xmm1
    65e1:	c4 e2 79 3b c1       	vpminud %xmm1,%xmm0,%xmm0
    65e6:	c4 c1 79 7e c1       	vmovd  %xmm0,%r9d
    65eb:	44 39 e1             	cmp    %r12d,%ecx
    65ee:	0f 84 6c fd ff ff    	je     6360 <main+0x22c0>
    65f4:	49 89 cb             	mov    %rcx,%r11
    65f7:	49 89 ca             	mov    %rcx,%r10
    65fa:	41 f6 c4 1c          	test   $0x1c,%r12b
    65fe:	0f 84 96 fd ff ff    	je     639a <main+0x22fa>
    6604:	62 d2 7d 08 7c c1    	vpbroadcastd %r9d,%xmm0
    660a:	4e 8d 0c 16          	lea    (%rsi,%r10,1),%r9
    660e:	41 01 fa             	add    %edi,%r10d
    6611:	66 66 66 66 66 66 2e 	data16 data16 data16 data16 data16 cs nopw 0x0(%rax,%rax,1)
    6618:	0f 1f 84 00 00 00 00 
    661f:	00 
    6620:	45 89 d3             	mov    %r10d,%r11d
    6623:	c4 82 79 3b 04 9f    	vpminud (%r15,%r11,4),%xmm0,%xmm0
    6629:	41 83 c2 04          	add    $0x4,%r10d
    662d:	49 83 c1 04          	add    $0x4,%r9
    6631:	75 ed                	jne    6620 <main+0x2580>
    6633:	c5 f9 70 c8 ee       	vpshufd $0xee,%xmm0,%xmm1
    6638:	c4 e2 79 3b c1       	vpminud %xmm1,%xmm0,%xmm0
    663d:	c5 f9 70 c8 55       	vpshufd $0x55,%xmm0,%xmm1
    6642:	c4 e2 79 3b c1       	vpminud %xmm1,%xmm0,%xmm0
    6647:	c4 c1 79 7e c1       	vmovd  %xmm0,%r9d
    664c:	49 89 d3             	mov    %rdx,%r11
    664f:	44 39 e2             	cmp    %r12d,%edx
    6652:	0f 84 08 fd ff ff    	je     6360 <main+0x22c0>
    6658:	e9 3d fd ff ff       	jmp    639a <main+0x22fa>
    665d:	62 d1 5e 08 7b c1    	vcvtusi2ss %r9d,%xmm4,%xmm0
    6663:	c5 fa 11 84 24 80 00 	vmovss %xmm0,0x80(%rsp)
    666a:	00 00 
    666c:	c5 f8 77             	vzeroupper
    666f:	e8 fc ba ff ff       	call   2170 <log2f@plt>
    6674:	c5 fa 11 44 24 10    	vmovss %xmm0,0x10(%rsp)
    667a:	62 f1 5e 08 7b c5    	vcvtusi2ss %ebp,%xmm4,%xmm0
    6680:	c5 fa 5e 84 24 80 00 	vdivss 0x80(%rsp),%xmm0,%xmm0
    6687:	00 00 
    6689:	e8 e2 ba ff ff       	call   2170 <log2f@plt>
    668e:	48 8b 84 24 18 01 00 	mov    0x118(%rsp),%rax
    6695:	00 
    6696:	48 85 c0             	test   %rax,%rax
    6699:	74 67                	je     6702 <main+0x2662>
    669b:	c5 fa 11 84 24 80 00 	vmovss %xmm0,0x80(%rsp)
    66a2:	00 00 
    66a4:	44 8d 2c 40          	lea    (%rax,%rax,2),%r13d
    66a8:	4c 89 ef             	mov    %r13,%rdi
    66ab:	e8 60 ba ff ff       	call   2110 <_Znwm@plt>
    66b0:	49 89 c6             	mov    %rax,%r14
    66b3:	48 89 84 24 20 01 00 	mov    %rax,0x120(%rsp)
    66ba:	00 
    66bb:	4e 8d 3c 28          	lea    (%rax,%r13,1),%r15
    66bf:	4c 89 bc 24 30 01 00 	mov    %r15,0x130(%rsp)
    66c6:	00 
    66c7:	c6 00 00             	movb   $0x0,(%rax)
    66ca:	48 89 c7             	mov    %rax,%rdi
    66cd:	48 ff c7             	inc    %rdi
    66d0:	49 ff cd             	dec    %r13
    66d3:	4c 89 7c 24 40       	mov    %r15,0x40(%rsp)
    66d8:	74 0d                	je     66e7 <main+0x2647>
    66da:	31 f6                	xor    %esi,%esi
    66dc:	4c 89 ea             	mov    %r13,%rdx
    66df:	e8 bc b9 ff ff       	call   20a0 <memset@plt>
    66e4:	4c 89 ff             	mov    %r15,%rdi
    66e7:	c5 fa 10 84 24 80 00 	vmovss 0x80(%rsp),%xmm0
    66ee:	00 00 
    66f0:	48 89 bc 24 28 01 00 	mov    %rdi,0x128(%rsp)
    66f7:	00 
    66f8:	4d 85 e4             	test   %r12,%r12
    66fb:	75 3d                	jne    673a <main+0x269a>
    66fd:	e9 1c 02 00 00       	jmp    691e <main+0x287e>
    6702:	c5 f0 57 c9          	vxorps %xmm1,%xmm1,%xmm1
    6706:	c5 f8 29 8c 24 20 01 	vmovaps %xmm1,0x120(%rsp)
    670d:	00 00 
    670f:	48 c7 84 24 30 01 00 	movq   $0x0,0x130(%rsp)
    6716:	00 00 00 00 00 
    671b:	48 c7 44 24 40 00 00 	movq   $0x0,0x40(%rsp)
    6722:	00 00 
    6724:	45 31 f6             	xor    %r14d,%r14d
    6727:	31 ff                	xor    %edi,%edi
    6729:	48 89 bc 24 28 01 00 	mov    %rdi,0x128(%rsp)
    6730:	00 
    6731:	4d 85 e4             	test   %r12,%r12
    6734:	0f 84 e4 01 00 00    	je     691e <main+0x287e>
    673a:	44 89 e0             	mov    %r12d,%eax
    673d:	83 e0 fe             	and    $0xfffffffe,%eax
    6740:	48 89 84 24 c0 00 00 	mov    %rax,0xc0(%rsp)
    6747:	00 
    6748:	c5 fa 10 0d b4 48 00 	vmovss 0x48b4(%rip),%xmm1        # b004 <_IO_stdin_used+0x4>
    674f:	00 
    6750:	c5 f2 5e c0          	vdivss %xmm0,%xmm1,%xmm0
    6754:	c5 fa 11 84 24 80 00 	vmovss %xmm0,0x80(%rsp)
    675b:	00 00 
    675d:	47 8d 2c 64          	lea    (%r12,%r12,2),%r13d
    6761:	31 c0                	xor    %eax,%eax
    6763:	b9 05 00 00 00       	mov    $0x5,%ecx
    6768:	c7 44 24 48 01 00 00 	movl   $0x1,0x48(%rsp)
    676f:	00 
    6770:	44 89 6c 24 60       	mov    %r13d,0x60(%rsp)
    6775:	eb 6b                	jmp    67e2 <main+0x2742>
    6777:	66 0f 1f 84 00 00 00 	nopw   0x0(%rax,%rax,1)
    677e:	00 00 
    6780:	62 f1 5e 08 7b c0    	vcvtusi2ss %eax,%xmm4,%xmm0
    6786:	e8 e5 b9 ff ff       	call   2170 <log2f@plt>
    678b:	c5 fa 5c 44 24 10    	vsubss 0x10(%rsp),%xmm0,%xmm0
    6791:	c5 fa 59 05 83 48 00 	vmulss 0x4883(%rip),%xmm0,%xmm0        # b01c <_IO_stdin_used+0x1c>
    6798:	00 
    6799:	c5 fa 59 84 24 80 00 	vmulss 0x80(%rsp),%xmm0,%xmm0
    67a0:	00 00 
    67a2:	c5 fa 2c c0          	vcvttss2si %xmm0,%eax
    67a6:	04 20                	add    $0x20,%al
    67a8:	b1 20                	mov    $0x20,%cl
    67aa:	8d 14 5b             	lea    (%rbx,%rbx,2),%edx
    67ad:	41 88 0c 16          	mov    %cl,(%r14,%rdx,1)
    67b1:	8d 14 5b             	lea    (%rbx,%rbx,2),%edx
    67b4:	ff c2                	inc    %edx
    67b6:	41 88 04 16          	mov    %al,(%r14,%rdx,1)
    67ba:	8d 44 5b 02          	lea    0x2(%rbx,%rbx,2),%eax
    67be:	41 88 0c 06          	mov    %cl,(%r14,%rax,1)
    67c2:	48 8b 1c 24          	mov    (%rsp),%rbx
    67c6:	48 8b 44 24 18       	mov    0x18(%rsp),%rax
    67cb:	8b 4c 24 50          	mov    0x50(%rsp),%ecx
    67cf:	ff c0                	inc    %eax
    67d1:	44 01 e9             	add    %r13d,%ecx
    67d4:	44 01 64 24 48       	add    %r12d,0x48(%rsp)
    67d9:	44 39 e0             	cmp    %r12d,%eax
    67dc:	0f 84 3c 01 00 00    	je     691e <main+0x287e>
    67e2:	41 bf 00 00 00 00    	mov    $0x0,%r15d
    67e8:	49 83 fc 01          	cmp    $0x1,%r12
    67ec:	48 89 44 24 18       	mov    %rax,0x18(%rsp)
    67f1:	89 4c 24 50          	mov    %ecx,0x50(%rsp)
    67f5:	0f 84 f7 00 00 00    	je     68f2 <main+0x2852>
    67fb:	44 8b 6c 24 48       	mov    0x48(%rsp),%r13d
    6800:	89 cb                	mov    %ecx,%ebx
    6802:	45 31 ff             	xor    %r15d,%r15d
    6805:	eb 5c                	jmp    6863 <main+0x27c3>
    6807:	66 0f 1f 84 00 00 00 	nopw   0x0(%rax,%rax,1)
    680e:	00 00 
    6810:	62 f1 5e 08 7b c0    	vcvtusi2ss %eax,%xmm4,%xmm0
    6816:	e8 55 b9 ff ff       	call   2170 <log2f@plt>
    681b:	c5 fa 5c 44 24 10    	vsubss 0x10(%rsp),%xmm0,%xmm0
    6821:	c5 fa 59 05 f3 47 00 	vmulss 0x47f3(%rip),%xmm0,%xmm0        # b01c <_IO_stdin_used+0x1c>
    6828:	00 
    6829:	c5 fa 59 84 24 80 00 	vmulss 0x80(%rsp),%xmm0,%xmm0
    6830:	00 00 
    6832:	c5 fa 2c c0          	vcvttss2si %xmm0,%eax
    6836:	04 20                	add    $0x20,%al
    6838:	b1 20                	mov    $0x20,%cl
    683a:	8d 53 fe             	lea    -0x2(%rbx),%edx
    683d:	41 88 0c 16          	mov    %cl,(%r14,%rdx,1)
    6841:	8d 53 ff             	lea    -0x1(%rbx),%edx
    6844:	41 88 04 16          	mov    %al,(%r14,%rdx,1)
    6848:	89 d8                	mov    %ebx,%eax
    684a:	41 88 0c 06          	mov    %cl,(%r14,%rax,1)
    684e:	49 83 c7 02          	add    $0x2,%r15
    6852:	83 c3 06             	add    $0x6,%ebx
    6855:	41 83 c5 02          	add    $0x2,%r13d
    6859:	4c 39 bc 24 c0 00 00 	cmp    %r15,0xc0(%rsp)
    6860:	00 
    6861:	74 7d                	je     68e0 <main+0x2840>
    6863:	41 8d 45 ff          	lea    -0x1(%r13),%eax
    6867:	48 8b 4c 24 08       	mov    0x8(%rsp),%rcx
    686c:	8b 04 81             	mov    (%rcx,%rax,4),%eax
    686f:	39 e8                	cmp    %ebp,%eax
    6871:	73 2d                	jae    68a0 <main+0x2800>
    6873:	62 f1 5e 08 7b c0    	vcvtusi2ss %eax,%xmm4,%xmm0
    6879:	e8 f2 b8 ff ff       	call   2170 <log2f@plt>
    687e:	c5 fa 5c 44 24 10    	vsubss 0x10(%rsp),%xmm0,%xmm0
    6884:	c5 fa 59 05 90 47 00 	vmulss 0x4790(%rip),%xmm0,%xmm0        # b01c <_IO_stdin_used+0x1c>
    688b:	00 
    688c:	c5 fa 59 84 24 80 00 	vmulss 0x80(%rsp),%xmm0,%xmm0
    6893:	00 00 
    6895:	c5 fa 2c c0          	vcvttss2si %xmm0,%eax
    6899:	04 20                	add    $0x20,%al
    689b:	b1 20                	mov    $0x20,%cl
    689d:	eb 05                	jmp    68a4 <main+0x2804>
    689f:	90                   	nop
    68a0:	31 c0                	xor    %eax,%eax
    68a2:	31 c9                	xor    %ecx,%ecx
    68a4:	8d 53 fb             	lea    -0x5(%rbx),%edx
    68a7:	41 88 0c 16          	mov    %cl,(%r14,%rdx,1)
    68ab:	8d 53 fc             	lea    -0x4(%rbx),%edx
    68ae:	41 88 04 16          	mov    %al,(%r14,%rdx,1)
    68b2:	8d 43 fd             	lea    -0x3(%rbx),%eax
    68b5:	41 88 0c 06          	mov    %cl,(%r14,%rax,1)
    68b9:	44 89 e8             	mov    %r13d,%eax
    68bc:	48 8b 4c 24 08       	mov    0x8(%rsp),%rcx
    68c1:	8b 04 81             	mov    (%rcx,%rax,4),%eax
    68c4:	39 e8                	cmp    %ebp,%eax
    68c6:	0f 82 44 ff ff ff    	jb     6810 <main+0x2770>
    68cc:	31 c0                	xor    %eax,%eax
    68ce:	31 c9                	xor    %ecx,%ecx
    68d0:	e9 65 ff ff ff       	jmp    683a <main+0x279a>
    68d5:	66 66 2e 0f 1f 84 00 	data16 cs nopw 0x0(%rax,%rax,1)
    68dc:	00 00 00 00 
    68e0:	48 8b 1c 24          	mov    (%rsp),%rbx
    68e4:	44 8b 6c 24 60       	mov    0x60(%rsp),%r13d
