
/tmp/tmpp14h26ee/out:     file format elf64-x86-64


Disassembly of section .init:

0000000000002000 <_init>:
    2000:	f3 0f 1e fa          	endbr64
    2004:	48 83 ec 08          	sub    $0x8,%rsp
    2008:	48 8b 05 b9 af 00 00 	mov    0xafb9(%rip),%rax        # cfc8 <__gmon_start__@Base>
    200f:	48 85 c0             	test   %rax,%rax
    2012:	74 02                	je     2016 <_init+0x16>
    2014:	ff d0                	call   *%rax
    2016:	48 83 c4 08          	add    $0x8,%rsp
    201a:	c3                   	ret

Disassembly of section .plt:

0000000000002020 <_ZNSo3putEc@plt-0x10>:
    2020:	ff 35 ca af 00 00    	push   0xafca(%rip)        # cff0 <_GLOBAL_OFFSET_TABLE_+0x8>
    2026:	ff 25 cc af 00 00    	jmp    *0xafcc(%rip)        # cff8 <_GLOBAL_OFFSET_TABLE_+0x10>
    202c:	0f 1f 40 00          	nopl   0x0(%rax)

0000000000002030 <_ZNSo3putEc@plt>:
    2030:	ff 25 ca af 00 00    	jmp    *0xafca(%rip)        # d000 <_ZNSo3putEc@GLIBCXX_3.4>
    2036:	68 00 00 00 00       	push   $0x0
    203b:	e9 e0 ff ff ff       	jmp    2020 <_init+0x20>

0000000000002040 <_ZNSt6chrono3_V212system_clock3nowEv@plt>:
    2040:	ff 25 c2 af 00 00    	jmp    *0xafc2(%rip)        # d008 <_ZNSt6chrono3_V212system_clock3nowEv@GLIBCXX_3.4.19>
    2046:	68 01 00 00 00       	push   $0x1
    204b:	e9 d0 ff ff ff       	jmp    2020 <_init+0x20>

0000000000002050 <_ZNSt8ios_baseD2Ev@plt>:
    2050:	ff 25 ba af 00 00    	jmp    *0xafba(%rip)        # d010 <_ZNSt8ios_baseD2Ev@GLIBCXX_3.4>
    2056:	68 02 00 00 00       	push   $0x2
    205b:	e9 c0 ff ff ff       	jmp    2020 <_init+0x20>

0000000000002060 <_ZSt17__throw_bad_allocv@plt>:
    2060:	ff 25 b2 af 00 00    	jmp    *0xafb2(%rip)        # d018 <_ZSt17__throw_bad_allocv@GLIBCXX_3.4>
    2066:	68 03 00 00 00       	push   $0x3
    206b:	e9 b0 ff ff ff       	jmp    2020 <_init+0x20>

0000000000002070 <strlen@plt>:
    2070:	ff 25 aa af 00 00    	jmp    *0xafaa(%rip)        # d020 <strlen@GLIBC_2.2.5>
    2076:	68 04 00 00 00       	push   $0x4
    207b:	e9 a0 ff ff ff       	jmp    2020 <_init+0x20>

0000000000002080 <_ZSt4endlIcSt11char_traitsIcEERSt13basic_ostreamIT_T0_ES6_@plt>:
    2080:	ff 25 a2 af 00 00    	jmp    *0xafa2(%rip)        # d028 <_ZSt4endlIcSt11char_traitsIcEERSt13basic_ostreamIT_T0_ES6_@GLIBCXX_3.4>
    2086:	68 05 00 00 00       	push   $0x5
    208b:	e9 90 ff ff ff       	jmp    2020 <_init+0x20>

0000000000002090 <_ZSt20__throw_length_errorPKc@plt>:
    2090:	ff 25 9a af 00 00    	jmp    *0xaf9a(%rip)        # d030 <_ZSt20__throw_length_errorPKc@GLIBCXX_3.4>
    2096:	68 06 00 00 00       	push   $0x6
    209b:	e9 80 ff ff ff       	jmp    2020 <_init+0x20>

00000000000020a0 <memset@plt>:
    20a0:	ff 25 92 af 00 00    	jmp    *0xaf92(%rip)        # d038 <memset@GLIBC_2.2.5>
    20a6:	68 07 00 00 00       	push   $0x7
    20ab:	e9 70 ff ff ff       	jmp    2020 <_init+0x20>

00000000000020b0 <_ZNSo9_M_insertImEERSoT_@plt>:
    20b0:	ff 25 8a af 00 00    	jmp    *0xaf8a(%rip)        # d040 <_ZNSo9_M_insertImEERSoT_@GLIBCXX_3.4.9>
    20b6:	68 08 00 00 00       	push   $0x8
    20bb:	e9 60 ff ff ff       	jmp    2020 <_init+0x20>

00000000000020c0 <_ZNSo5flushEv@plt>:
    20c0:	ff 25 82 af 00 00    	jmp    *0xaf82(%rip)        # d048 <_ZNSo5flushEv@GLIBCXX_3.4>
    20c6:	68 09 00 00 00       	push   $0x9
    20cb:	e9 50 ff ff ff       	jmp    2020 <_init+0x20>

00000000000020d0 <_ZNSt7__cxx1118basic_stringstreamIcSt11char_traitsIcESaIcEEC1Ev@plt>:
    20d0:	ff 25 7a af 00 00    	jmp    *0xaf7a(%rip)        # d050 <_ZNSt7__cxx1118basic_stringstreamIcSt11char_traitsIcESaIcEEC1Ev@GLIBCXX_3.4.26>
    20d6:	68 0a 00 00 00       	push   $0xa
    20db:	e9 40 ff ff ff       	jmp    2020 <_init+0x20>

00000000000020e0 <_ZNSt7__cxx1118basic_stringstreamIcSt11char_traitsIcESaIcEED1Ev@plt>:
    20e0:	ff 25 72 af 00 00    	jmp    *0xaf72(%rip)        # d058 <_ZNSt7__cxx1118basic_stringstreamIcSt11char_traitsIcESaIcEED1Ev@GLIBCXX_3.4.21>
    20e6:	68 0b 00 00 00       	push   $0xb
    20eb:	e9 30 ff ff ff       	jmp    2020 <_init+0x20>

00000000000020f0 <memcpy@plt>:
    20f0:	ff 25 6a af 00 00    	jmp    *0xaf6a(%rip)        # d060 <memcpy@GLIBC_2.14>
    20f6:	68 0c 00 00 00       	push   $0xc
    20fb:	e9 20 ff ff ff       	jmp    2020 <_init+0x20>

0000000000002100 <pthread_join@plt>:
    2100:	ff 25 62 af 00 00    	jmp    *0xaf62(%rip)        # d068 <pthread_join@GLIBC_2.34>
    2106:	68 0d 00 00 00       	push   $0xd
    210b:	e9 10 ff ff ff       	jmp    2020 <_init+0x20>

0000000000002110 <_Znwm@plt>:
    2110:	ff 25 5a af 00 00    	jmp    *0xaf5a(%rip)        # d070 <_Znwm@GLIBCXX_3.4>
    2116:	68 0e 00 00 00       	push   $0xe
    211b:	e9 00 ff ff ff       	jmp    2020 <_init+0x20>

0000000000002120 <_ZdlPvm@plt>:
    2120:	ff 25 52 af 00 00    	jmp    *0xaf52(%rip)        # d078 <_ZdlPvm@CXXABI_1.3.9>
    2126:	68 0f 00 00 00       	push   $0xf
    212b:	e9 f0 fe ff ff       	jmp    2020 <_init+0x20>

0000000000002130 <_ZNSt14basic_ofstreamIcSt11char_traitsIcEEC1EPKcSt13_Ios_Openmode@plt>:
    2130:	ff 25 4a af 00 00    	jmp    *0xaf4a(%rip)        # d080 <_ZNSt14basic_ofstreamIcSt11char_traitsIcEEC1EPKcSt13_Ios_Openmode@GLIBCXX_3.4>
    2136:	68 10 00 00 00       	push   $0x10
    213b:	e9 e0 fe ff ff       	jmp    2020 <_init+0x20>

0000000000002140 <_ZSt16__ostream_insertIcSt11char_traitsIcEERSt13basic_ostreamIT_T0_ES6_PKS3_l@plt>:
    2140:	ff 25 42 af 00 00    	jmp    *0xaf42(%rip)        # d088 <_ZSt16__ostream_insertIcSt11char_traitsIcEERSt13basic_ostreamIT_T0_ES6_PKS3_l@GLIBCXX_3.4.9>
    2146:	68 11 00 00 00       	push   $0x11
    214b:	e9 d0 fe ff ff       	jmp    2020 <_init+0x20>

0000000000002150 <_ZNKSt5ctypeIcE13_M_widen_initEv@plt>:
    2150:	ff 25 3a af 00 00    	jmp    *0xaf3a(%rip)        # d090 <_ZNKSt5ctypeIcE13_M_widen_initEv@GLIBCXX_3.4.11>
    2156:	68 12 00 00 00       	push   $0x12
    215b:	e9 c0 fe ff ff       	jmp    2020 <_init+0x20>

0000000000002160 <_ZSt16__throw_bad_castv@plt>:
    2160:	ff 25 32 af 00 00    	jmp    *0xaf32(%rip)        # d098 <_ZSt16__throw_bad_castv@GLIBCXX_3.4>
    2166:	68 13 00 00 00       	push   $0x13
    216b:	e9 b0 fe ff ff       	jmp    2020 <_init+0x20>

0000000000002170 <log2f@plt>:
    2170:	ff 25 2a af 00 00    	jmp    *0xaf2a(%rip)        # d0a0 <log2f@GLIBC_2.27>
    2176:	68 14 00 00 00       	push   $0x14
    217b:	e9 a0 fe ff ff       	jmp    2020 <_init+0x20>

0000000000002180 <_ZNSo5writeEPKcl@plt>:
    2180:	ff 25 22 af 00 00    	jmp    *0xaf22(%rip)        # d0a8 <_ZNSo5writeEPKcl@GLIBCXX_3.4>
    2186:	68 15 00 00 00       	push   $0x15
    218b:	e9 90 fe ff ff       	jmp    2020 <_init+0x20>

0000000000002190 <_ZNSt7__cxx1112basic_stringIcSt11char_traitsIcESaIcEE15_M_replace_coldEPcmPKcmm@plt>:
    2190:	ff 25 1a af 00 00    	jmp    *0xaf1a(%rip)        # d0b0 <_ZNSt7__cxx1112basic_stringIcSt11char_traitsIcESaIcEE15_M_replace_coldEPcmPKcmm@GLIBCXX_3.4.31>
    2196:	68 16 00 00 00       	push   $0x16
    219b:	e9 80 fe ff ff       	jmp    2020 <_init+0x20>

00000000000021a0 <strcmp@plt>:
    21a0:	ff 25 12 af 00 00    	jmp    *0xaf12(%rip)        # d0b8 <strcmp@GLIBC_2.2.5>
    21a6:	68 17 00 00 00       	push   $0x17
    21ab:	e9 70 fe ff ff       	jmp    2020 <_init+0x20>

00000000000021b0 <_ZNSt6localeD1Ev@plt>:
    21b0:	ff 25 0a af 00 00    	jmp    *0xaf0a(%rip)        # d0c0 <_ZNSt6localeD1Ev@GLIBCXX_3.4>
    21b6:	68 18 00 00 00       	push   $0x18
    21bb:	e9 60 fe ff ff       	jmp    2020 <_init+0x20>

00000000000021c0 <_ZNSt14basic_ofstreamIcSt11char_traitsIcEED1Ev@plt>:
    21c0:	ff 25 02 af 00 00    	jmp    *0xaf02(%rip)        # d0c8 <_ZNSt14basic_ofstreamIcSt11char_traitsIcEED1Ev@GLIBCXX_3.4>
    21c6:	68 19 00 00 00       	push   $0x19
    21cb:	e9 50 fe ff ff       	jmp    2020 <_init+0x20>

00000000000021d0 <_ZNSo9_M_insertIdEERSoT_@plt>:
    21d0:	ff 25 fa ae 00 00    	jmp    *0xaefa(%rip)        # d0d0 <_ZNSo9_M_insertIdEERSoT_@GLIBCXX_3.4.9>
    21d6:	68 1a 00 00 00       	push   $0x1a
    21db:	e9 40 fe ff ff       	jmp    2020 <_init+0x20>

00000000000021e0 <memmove@plt>:
    21e0:	ff 25 f2 ae 00 00    	jmp    *0xaef2(%rip)        # d0d8 <memmove@GLIBC_2.2.5>
    21e6:	68 1b 00 00 00       	push   $0x1b
    21eb:	e9 30 fe ff ff       	jmp    2020 <_init+0x20>

00000000000021f0 <_ZNSt9basic_iosIcSt11char_traitsIcEE5clearESt12_Ios_Iostate@plt>:
    21f0:	ff 25 ea ae 00 00    	jmp    *0xaeea(%rip)        # d0e0 <_ZNSt9basic_iosIcSt11char_traitsIcEE5clearESt12_Ios_Iostate@GLIBCXX_3.4>
    21f6:	68 1c 00 00 00       	push   $0x1c
    21fb:	e9 20 fe ff ff       	jmp    2020 <_init+0x20>

0000000000002200 <_Unwind_Resume@plt>:
    2200:	ff 25 e2 ae 00 00    	jmp    *0xaee2(%rip)        # d0e8 <_Unwind_Resume@GCC_3.0>
    2206:	68 1d 00 00 00       	push   $0x1d
    220b:	e9 10 fe ff ff       	jmp    2020 <_init+0x20>

0000000000002210 <pthread_create@plt>:
    2210:	ff 25 da ae 00 00    	jmp    *0xaeda(%rip)        # d0f0 <pthread_create@GLIBC_2.34>
    2216:	68 1e 00 00 00       	push   $0x1e
    221b:	e9 00 fe ff ff       	jmp    2020 <_init+0x20>

0000000000002220 <__isoc23_strtol@plt>:
    2220:	ff 25 d2 ae 00 00    	jmp    *0xaed2(%rip)        # d0f8 <__isoc23_strtol@GLIBC_2.38>
    2226:	68 1f 00 00 00       	push   $0x1f
    222b:	e9 f0 fd ff ff       	jmp    2020 <_init+0x20>

Disassembly of section .plt.got:

0000000000002230 <__cxa_finalize@plt>:
    2230:	ff 25 6a ad 00 00    	jmp    *0xad6a(%rip)        # cfa0 <__cxa_finalize@GLIBC_2.2.5>
    2236:	66 90                	xchg   %ax,%ax

Disassembly of section .text:

0000000000002240 <set_fast_math>:
    2240:	f3 0f 1e fa          	endbr64
    2244:	55                   	push   %rbp
    2245:	48 89 e5             	mov    %rsp,%rbp
    2248:	0f ae 5d fc          	stmxcsr -0x4(%rbp)
    224c:	81 4d fc 40 80 00 00 	orl    $0x8040,-0x4(%rbp)
    2253:	0f ae 55 fc          	ldmxcsr -0x4(%rbp)
    2257:	5d                   	pop    %rbp
    2258:	c3                   	ret
    2259:	0f 1f 80 00 00 00 00 	nopl   0x0(%rax)

0000000000002260 <_start>:
    2260:	f3 0f 1e fa          	endbr64
    2264:	31 ed                	xor    %ebp,%ebp
    2266:	49 89 d1             	mov    %rdx,%r9
    2269:	5e                   	pop    %rsi
    226a:	48 89 e2             	mov    %rsp,%rdx
    226d:	48 83 e4 f0          	and    $0xfffffffffffffff0,%rsp
    2271:	50                   	push   %rax
    2272:	54                   	push   %rsp
    2273:	45 31 c0             	xor    %r8d,%r8d
    2276:	31 c9                	xor    %ecx,%ecx
    2278:	48 8d 3d 21 1e 00 00 	lea    0x1e21(%rip),%rdi        # 40a0 <main>
    227f:	ff 15 2b ad 00 00    	call   *0xad2b(%rip)        # cfb0 <__libc_start_main@GLIBC_2.34>
    2285:	f4                   	hlt
    2286:	66 2e 0f 1f 84 00 00 	cs nopw 0x0(%rax,%rax,1)
    228d:	00 00 00 

0000000000002290 <deregister_tm_clones>:
    2290:	48 8d 3d 81 ae 00 00 	lea    0xae81(%rip),%rdi        # d118 <__TMC_END__>
    2297:	48 8d 05 7a ae 00 00 	lea    0xae7a(%rip),%rax        # d118 <__TMC_END__>
    229e:	48 39 f8             	cmp    %rdi,%rax
    22a1:	74 15                	je     22b8 <deregister_tm_clones+0x28>
    22a3:	48 8b 05 16 ad 00 00 	mov    0xad16(%rip),%rax        # cfc0 <_ITM_deregisterTMCloneTable@Base>
    22aa:	48 85 c0             	test   %rax,%rax
    22ad:	74 09                	je     22b8 <deregister_tm_clones+0x28>
    22af:	ff e0                	jmp    *%rax
    22b1:	0f 1f 80 00 00 00 00 	nopl   0x0(%rax)
    22b8:	c3                   	ret
    22b9:	0f 1f 80 00 00 00 00 	nopl   0x0(%rax)

00000000000022c0 <register_tm_clones>:
    22c0:	48 8d 3d 51 ae 00 00 	lea    0xae51(%rip),%rdi        # d118 <__TMC_END__>
    22c7:	48 8d 35 4a ae 00 00 	lea    0xae4a(%rip),%rsi        # d118 <__TMC_END__>
    22ce:	48 29 fe             	sub    %rdi,%rsi
    22d1:	48 89 f0             	mov    %rsi,%rax
    22d4:	48 c1 ee 3f          	shr    $0x3f,%rsi
    22d8:	48 c1 f8 03          	sar    $0x3,%rax
    22dc:	48 01 c6             	add    %rax,%rsi
    22df:	48 d1 fe             	sar    $1,%rsi
    22e2:	74 14                	je     22f8 <register_tm_clones+0x38>
    22e4:	48 8b 05 e5 ac 00 00 	mov    0xace5(%rip),%rax        # cfd0 <_ITM_registerTMCloneTable@Base>
    22eb:	48 85 c0             	test   %rax,%rax
    22ee:	74 08                	je     22f8 <register_tm_clones+0x38>
    22f0:	ff e0                	jmp    *%rax
    22f2:	66 0f 1f 44 00 00    	nopw   0x0(%rax,%rax,1)
    22f8:	c3                   	ret
    22f9:	0f 1f 80 00 00 00 00 	nopl   0x0(%rax)

0000000000002300 <__do_global_dtors_aux>:
    2300:	f3 0f 1e fa          	endbr64
    2304:	80 3d 0d ae 00 00 00 	cmpb   $0x0,0xae0d(%rip)        # d118 <__TMC_END__>
    230b:	75 2b                	jne    2338 <__do_global_dtors_aux+0x38>
    230d:	55                   	push   %rbp
    230e:	48 83 3d 8a ac 00 00 	cmpq   $0x0,0xac8a(%rip)        # cfa0 <__cxa_finalize@GLIBC_2.2.5>
    2315:	00 
    2316:	48 89 e5             	mov    %rsp,%rbp
    2319:	74 0c                	je     2327 <__do_global_dtors_aux+0x27>
    231b:	48 8b 3d e6 ad 00 00 	mov    0xade6(%rip),%rdi        # d108 <__dso_handle>
    2322:	e8 09 ff ff ff       	call   2230 <__cxa_finalize@plt>
    2327:	e8 64 ff ff ff       	call   2290 <deregister_tm_clones>
    232c:	c6 05 e5 ad 00 00 01 	movb   $0x1,0xade5(%rip)        # d118 <__TMC_END__>
    2333:	5d                   	pop    %rbp
    2334:	c3                   	ret
    2335:	0f 1f 00             	nopl   (%rax)
    2338:	c3                   	ret
    2339:	0f 1f 80 00 00 00 00 	nopl   0x0(%rax)

0000000000002340 <frame_dummy>:
    2340:	f3 0f 1e fa          	endbr64
    2344:	e9 77 ff ff ff       	jmp    22c0 <register_tm_clones>
    2349:	0f 1f 80 00 00 00 00 	nopl   0x0(%rax)

0000000000002350 <_Z21mandelbrot_cpu_scalarjjPj>:
    2350:	53                   	push   %rbx
    2351:	85 ff                	test   %edi,%edi
    2353:	0f 84 d5 01 00 00    	je     252e <_Z21mandelbrot_cpu_scalarjjPj+0x1de>
    2359:	89 f8                	mov    %edi,%eax
    235b:	85 f6                	test   %esi,%esi
    235d:	0f 84 cd 01 00 00    	je     2530 <_Z21mandelbrot_cpu_scalarjjPj+0x1e0>
    2363:	62 f1 7e 08 7b c7    	vcvtusi2ss %edi,%xmm0,%xmm0
    2369:	c5 fa 10 0d 93 8c 00 	vmovss 0x8c93(%rip),%xmm1        # b004 <_IO_stdin_used+0x4>
    2370:	00 
    2371:	c5 f2 5e c0          	vdivss %xmm0,%xmm1,%xmm0
    2375:	89 c1                	mov    %eax,%ecx
    2377:	83 e1 fe             	and    $0xfffffffe,%ecx
    237a:	45 31 c0             	xor    %r8d,%r8d
    237d:	c5 fa 10 0d 83 8c 00 	vmovss 0x8c83(%rip),%xmm1        # b008 <_IO_stdin_used+0x8>
    2384:	00 
    2385:	c5 fa 10 15 7f 8c 00 	vmovss 0x8c7f(%rip),%xmm2        # b00c <_IO_stdin_used+0xc>
    238c:	00 
    238d:	c5 fa 10 1d 7b 8c 00 	vmovss 0x8c7b(%rip),%xmm3        # b010 <_IO_stdin_used+0x10>
    2394:	00 
    2395:	c5 fa 10 25 77 8c 00 	vmovss 0x8c77(%rip),%xmm4        # b014 <_IO_stdin_used+0x14>
    239c:	00 
    239d:	eb 11                	jmp    23b0 <_Z21mandelbrot_cpu_scalarjjPj+0x60>
    239f:	90                   	nop
    23a0:	47 89 1c 91          	mov    %r11d,(%r9,%r10,4)
    23a4:	49 ff c0             	inc    %r8
    23a7:	49 39 c0             	cmp    %rax,%r8
    23aa:	0f 84 7e 01 00 00    	je     252e <_Z21mandelbrot_cpu_scalarjjPj+0x1de>
    23b0:	c4 c1 9a 2a e8       	vcvtsi2ss %r8,%xmm12,%xmm5
    23b5:	4d 89 c1             	mov    %r8,%r9
    23b8:	4c 0f af c8          	imul   %rax,%r9
    23bc:	c5 d2 59 e9          	vmulss %xmm1,%xmm5,%xmm5
    23c0:	c4 e2 79 a9 ea       	vfmadd213ss %xmm2,%xmm0,%xmm5
    23c5:	4e 8d 0c 8a          	lea    (%rdx,%r9,4),%r9
    23c9:	45 31 d2             	xor    %r10d,%r10d
    23cc:	83 ff 01             	cmp    $0x1,%edi
    23cf:	0f 85 78 00 00 00    	jne    244d <_Z21mandelbrot_cpu_scalarjjPj+0xfd>
    23d5:	a8 01                	test   $0x1,%al
    23d7:	74 cb                	je     23a4 <_Z21mandelbrot_cpu_scalarjjPj+0x54>
    23d9:	c4 c1 9a 2a f2       	vcvtsi2ss %r10,%xmm12,%xmm6
    23de:	c5 ca 59 f1          	vmulss %xmm1,%xmm6,%xmm6
    23e2:	c4 e2 79 a9 f3       	vfmadd213ss %xmm3,%xmm0,%xmm6
    23e7:	45 31 db             	xor    %r11d,%r11d
    23ea:	c4 41 30 57 c9       	vxorps %xmm9,%xmm9,%xmm9
    23ef:	c4 41 28 57 d2       	vxorps %xmm10,%xmm10,%xmm10
    23f4:	c5 c0 57 ff          	vxorps %xmm7,%xmm7,%xmm7
    23f8:	c4 41 38 57 c0       	vxorps %xmm8,%xmm8,%xmm8
    23fd:	0f 1f 00             	nopl   (%rax)
    2400:	c4 41 2a 5c c9       	vsubss %xmm9,%xmm10,%xmm9
    2405:	c5 ba 5c ff          	vsubss %xmm7,%xmm8,%xmm7
    2409:	c5 4a 58 d7          	vaddss %xmm7,%xmm6,%xmm10
    240d:	c5 32 58 dd          	vaddss %xmm5,%xmm9,%xmm11
    2411:	c4 41 2a 59 c2       	vmulss %xmm10,%xmm10,%xmm8
    2416:	c4 c1 22 59 fb       	vmulss %xmm11,%xmm11,%xmm7
    241b:	41 ff c3             	inc    %r11d
    241e:	c5 3a 58 cf          	vaddss %xmm7,%xmm8,%xmm9
    2422:	c5 78 2e cc          	vucomiss %xmm4,%xmm9
    2426:	0f 87 74 ff ff ff    	ja     23a0 <_Z21mandelbrot_cpu_scalarjjPj+0x50>
    242c:	c4 41 22 58 d2       	vaddss %xmm10,%xmm11,%xmm10
    2431:	c4 41 2a 59 d2       	vmulss %xmm10,%xmm10,%xmm10
    2436:	41 39 f3             	cmp    %esi,%r11d
    2439:	72 c5                	jb     2400 <_Z21mandelbrot_cpu_scalarjjPj+0xb0>
    243b:	e9 60 ff ff ff       	jmp    23a0 <_Z21mandelbrot_cpu_scalarjjPj+0x50>
    2440:	43 89 1c 99          	mov    %ebx,(%r9,%r11,4)
    2444:	49 83 c2 02          	add    $0x2,%r10
    2448:	49 39 ca             	cmp    %rcx,%r10
    244b:	74 88                	je     23d5 <_Z21mandelbrot_cpu_scalarjjPj+0x85>
    244d:	c4 c1 9a 2a f2       	vcvtsi2ss %r10,%xmm12,%xmm6
    2452:	c5 ca 59 f1          	vmulss %xmm1,%xmm6,%xmm6
    2456:	c4 e2 79 a9 f3       	vfmadd213ss %xmm3,%xmm0,%xmm6
    245b:	45 31 db             	xor    %r11d,%r11d
    245e:	c4 41 30 57 c9       	vxorps %xmm9,%xmm9,%xmm9
    2463:	c4 41 28 57 d2       	vxorps %xmm10,%xmm10,%xmm10
    2468:	c5 c0 57 ff          	vxorps %xmm7,%xmm7,%xmm7
    246c:	c4 41 38 57 c0       	vxorps %xmm8,%xmm8,%xmm8
    2471:	66 66 66 66 66 66 2e 	data16 data16 data16 data16 data16 cs nopw 0x0(%rax,%rax,1)
    2478:	0f 1f 84 00 00 00 00 
    247f:	00 
    2480:	c4 41 2a 5c c9       	vsubss %xmm9,%xmm10,%xmm9
    2485:	c5 ba 5c ff          	vsubss %xmm7,%xmm8,%xmm7
    2489:	c5 4a 58 d7          	vaddss %xmm7,%xmm6,%xmm10
    248d:	c5 32 58 dd          	vaddss %xmm5,%xmm9,%xmm11
    2491:	c4 41 2a 59 c2       	vmulss %xmm10,%xmm10,%xmm8
    2496:	c4 c1 22 59 fb       	vmulss %xmm11,%xmm11,%xmm7
    249b:	41 ff c3             	inc    %r11d
    249e:	c5 3a 58 cf          	vaddss %xmm7,%xmm8,%xmm9
    24a2:	c5 78 2e cc          	vucomiss %xmm4,%xmm9
    24a6:	77 0f                	ja     24b7 <_Z21mandelbrot_cpu_scalarjjPj+0x167>
    24a8:	c4 41 22 58 d2       	vaddss %xmm10,%xmm11,%xmm10
    24ad:	c4 41 2a 59 d2       	vmulss %xmm10,%xmm10,%xmm10
    24b2:	41 39 f3             	cmp    %esi,%r11d
    24b5:	72 c9                	jb     2480 <_Z21mandelbrot_cpu_scalarjjPj+0x130>
    24b7:	47 89 1c 91          	mov    %r11d,(%r9,%r10,4)
    24bb:	4d 89 d3             	mov    %r10,%r11
    24be:	49 83 cb 01          	or     $0x1,%r11
    24c2:	c4 c1 9a 2a f3       	vcvtsi2ss %r11,%xmm12,%xmm6
    24c7:	c5 ca 59 f1          	vmulss %xmm1,%xmm6,%xmm6
    24cb:	c4 e2 79 a9 f3       	vfmadd213ss %xmm3,%xmm0,%xmm6
    24d0:	31 db                	xor    %ebx,%ebx
    24d2:	c4 41 30 57 c9       	vxorps %xmm9,%xmm9,%xmm9
    24d7:	c4 41 28 57 d2       	vxorps %xmm10,%xmm10,%xmm10
    24dc:	c5 c0 57 ff          	vxorps %xmm7,%xmm7,%xmm7
    24e0:	c4 41 38 57 c0       	vxorps %xmm8,%xmm8,%xmm8
    24e5:	66 66 2e 0f 1f 84 00 	data16 cs nopw 0x0(%rax,%rax,1)
    24ec:	00 00 00 00 
    24f0:	c4 41 2a 5c c9       	vsubss %xmm9,%xmm10,%xmm9
    24f5:	c5 ba 5c ff          	vsubss %xmm7,%xmm8,%xmm7
    24f9:	c5 4a 58 d7          	vaddss %xmm7,%xmm6,%xmm10
    24fd:	c5 32 58 dd          	vaddss %xmm5,%xmm9,%xmm11
    2501:	c4 41 2a 59 c2       	vmulss %xmm10,%xmm10,%xmm8
    2506:	c4 c1 22 59 fb       	vmulss %xmm11,%xmm11,%xmm7
    250b:	ff c3                	inc    %ebx
    250d:	c5 3a 58 cf          	vaddss %xmm7,%xmm8,%xmm9
    2511:	c5 78 2e cc          	vucomiss %xmm4,%xmm9
    2515:	0f 87 25 ff ff ff    	ja     2440 <_Z21mandelbrot_cpu_scalarjjPj+0xf0>
    251b:	c4 41 22 58 d2       	vaddss %xmm10,%xmm11,%xmm10
    2520:	c4 41 2a 59 d2       	vmulss %xmm10,%xmm10,%xmm10
    2525:	39 f3                	cmp    %esi,%ebx
    2527:	72 c7                	jb     24f0 <_Z21mandelbrot_cpu_scalarjjPj+0x1a0>
    2529:	e9 12 ff ff ff       	jmp    2440 <_Z21mandelbrot_cpu_scalarjjPj+0xf0>
    252e:	5b                   	pop    %rbx
    252f:	c3                   	ret
    2530:	48 0f af c0          	imul   %rax,%rax
    2534:	48 c1 e0 02          	shl    $0x2,%rax
    2538:	48 89 d7             	mov    %rdx,%rdi
    253b:	31 f6                	xor    %esi,%esi
    253d:	48 89 c2             	mov    %rax,%rdx
    2540:	5b                   	pop    %rbx
    2541:	e9 5a fb ff ff       	jmp    20a0 <memset@plt>
    2546:	66 2e 0f 1f 84 00 00 	cs nopw 0x0(%rax,%rax,1)
    254d:	00 00 00 

0000000000002550 <_Z8ceil_divjj>:
    2550:	8d 04 37             	lea    (%rdi,%rsi,1),%eax
    2553:	ff c8                	dec    %eax
    2555:	31 d2                	xor    %edx,%edx
    2557:	f7 f6                	div    %esi
    2559:	c3                   	ret
    255a:	66 0f 1f 44 00 00    	nopw   0x0(%rax,%rax,1)

0000000000002560 <_Z21mandelbrot_cpu_vectorjjPj>:
    2560:	85 ff                	test   %edi,%edi
    2562:	0f 84 7d 01 00 00    	je     26e5 <_Z21mandelbrot_cpu_vectorjjPj+0x185>
    2568:	62 f2 7d 48 7c c6    	vpbroadcastd %esi,%zmm0
    256e:	89 f8                	mov    %edi,%eax
    2570:	62 f1 76 08 7b cf    	vcvtusi2ss %edi,%xmm1,%xmm1
    2576:	c5 fa 10 15 86 8a 00 	vmovss 0x8a86(%rip),%xmm2        # b004 <_IO_stdin_used+0x4>
    257d:	00 
    257e:	c5 ea 5e c9          	vdivss %xmm1,%xmm2,%xmm1
    2582:	c5 f2 59 15 7e 8a 00 	vmulss 0x8a7e(%rip),%xmm1,%xmm2        # b008 <_IO_stdin_used+0x8>
    2589:	00 
    258a:	62 f2 7d 48 18 d2    	vbroadcastss %xmm2,%zmm2
    2590:	31 c9                	xor    %ecx,%ecx
    2592:	c5 fa 10 1d 6e 8a 00 	vmovss 0x8a6e(%rip),%xmm3        # b008 <_IO_stdin_used+0x8>
    2599:	00 
    259a:	c5 fa 10 25 6a 8a 00 	vmovss 0x8a6a(%rip),%xmm4        # b00c <_IO_stdin_used+0xc>
    25a1:	00 
    25a2:	62 f2 7d 48 22 2d e4 	vpmovsxbq 0x8de4(%rip),%zmm5        # b390 <_IO_stdin_used+0x390>
    25a9:	8d 00 00 
    25ac:	c4 e2 7d 22 35 63 8a 	vpmovsxbq 0x8a63(%rip),%ymm6        # b018 <_IO_stdin_used+0x18>
    25b3:	00 00 
    25b5:	c4 e2 79 22 3d c2 8a 	vpmovsxbq 0x8ac2(%rip),%xmm7        # b080 <_IO_stdin_used+0x80>
    25bc:	00 00 
    25be:	62 72 7d 48 18 05 48 	vbroadcastss 0x8a48(%rip),%zmm8        # b010 <_IO_stdin_used+0x10>
    25c5:	8a 00 00 
    25c8:	62 72 7d 48 18 0d 42 	vbroadcastss 0x8a42(%rip),%zmm9        # b014 <_IO_stdin_used+0x14>
    25cf:	8a 00 00 
    25d2:	66 66 66 66 66 2e 0f 	data16 data16 data16 data16 cs nopw 0x0(%rax,%rax,1)
    25d9:	1f 84 00 00 00 00 00 
    25e0:	62 71 ee 00 2a d1    	vcvtsi2ss %rcx,%xmm18,%xmm10
    25e6:	c5 2a 59 d3          	vmulss %xmm3,%xmm10,%xmm10
    25ea:	c4 62 71 a9 d4       	vfmadd213ss %xmm4,%xmm1,%xmm10
    25ef:	62 52 7d 48 18 d2    	vbroadcastss %xmm10,%zmm10
    25f5:	48 89 ce             	mov    %rcx,%rsi
    25f8:	48 0f af f0          	imul   %rax,%rsi
    25fc:	48 8d 34 b2          	lea    (%rdx,%rsi,4),%rsi
    2600:	31 ff                	xor    %edi,%edi
    2602:	66 66 66 66 66 2e 0f 	data16 data16 data16 data16 cs nopw 0x0(%rax,%rax,1)
    2609:	1f 84 00 00 00 00 00 
    2610:	62 72 fd 48 7c df    	vpbroadcastq %rdi,%zmm11
    2616:	62 71 a5 48 eb e5    	vporq  %zmm5,%zmm11,%zmm12
    261c:	c5 25 eb ee          	vpor   %ymm6,%ymm11,%ymm13
    2620:	c5 21 eb f7          	vpor   %xmm7,%xmm11,%xmm14
    2624:	49 89 f8             	mov    %rdi,%r8
    2627:	49 83 c8 01          	or     $0x1,%r8
    262b:	c4 41 f9 6e f8       	vmovq  %r8,%xmm15
    2630:	c4 41 21 6c df       	vpunpcklqdq %xmm15,%xmm11,%xmm11
    2635:	62 53 a5 48 3a dd 01 	vinserti64x4 $0x1,%ymm13,%zmm11,%zmm11
    263c:	62 53 25 48 38 de 01 	vinserti32x4 $0x1,%xmm14,%zmm11,%zmm11
    2643:	62 51 ff 48 7a db    	vcvtuqq2ps %zmm11,%ymm11
    2649:	62 51 ff 48 7a e4    	vcvtuqq2ps %zmm12,%ymm12
    264f:	62 53 a5 48 1a dc 01 	vinsertf64x4 $0x1,%ymm12,%zmm11,%zmm11
    2656:	62 52 6d 48 a8 d8    	vfmadd213ps %zmm8,%zmm2,%zmm11
    265c:	c4 41 18 57 e4       	vxorps %xmm12,%xmm12,%xmm12
    2661:	c4 41 11 ef ed       	vpxor  %xmm13,%xmm13,%xmm13
    2666:	c4 41 09 ef f6       	vpxor  %xmm14,%xmm14,%xmm14
    266b:	c4 41 01 ef ff       	vpxor  %xmm15,%xmm15,%xmm15
    2670:	62 c1 14 48 58 c7    	vaddps %zmm15,%zmm13,%zmm16
    2676:	62 d1 7d 48 66 cc    	vpcmpgtd %zmm12,%zmm0,%k1
    267c:	62 d1 7c 41 c2 c9 02 	vcmpleps %zmm9,%zmm16,%k1{%k1}
    2683:	62 c1 14 48 5c cf    	vsubps %zmm15,%zmm13,%zmm17
    2689:	62 a1 24 48 58 c9    	vaddps %zmm17,%zmm11,%zmm17
    268f:	62 a1 0c 48 5c c0    	vsubps %zmm16,%zmm14,%zmm16
    2695:	62 c1 7c 40 58 c2    	vaddps %zmm10,%zmm16,%zmm16
    269b:	62 31 74 41 59 e9    	vmulps %zmm17,%zmm17,%zmm13{%k1}
    26a1:	62 31 7c 41 59 f8    	vmulps %zmm16,%zmm16,%zmm15{%k1}
    26a7:	62 a1 7c 40 58 c1    	vaddps %zmm17,%zmm16,%zmm16
    26ad:	62 31 7c 41 59 f0    	vmulps %zmm16,%zmm16,%zmm14{%k1}
    26b3:	62 e2 7e 48 38 c1    	vpmovm2d %k1,%zmm16
    26b9:	62 31 1d 48 fa e0    	vpsubd %zmm16,%zmm12,%zmm12
    26bf:	c5 f8 98 c9          	kortestw %k1,%k1
    26c3:	75 ab                	jne    2670 <_Z21mandelbrot_cpu_vectorjjPj+0x110>
    26c5:	62 71 fe 48 7f 24 be 	vmovdqu64 %zmm12,(%rsi,%rdi,4)
    26cc:	48 83 c7 10          	add    $0x10,%rdi
    26d0:	48 39 c7             	cmp    %rax,%rdi
    26d3:	0f 82 37 ff ff ff    	jb     2610 <_Z21mandelbrot_cpu_vectorjjPj+0xb0>
    26d9:	48 ff c1             	inc    %rcx
    26dc:	48 39 c1             	cmp    %rax,%rcx
    26df:	0f 85 fb fe ff ff    	jne    25e0 <_Z21mandelbrot_cpu_vectorjjPj+0x80>
    26e5:	c5 f8 77             	vzeroupper
    26e8:	c3                   	ret
    26e9:	0f 1f 80 00 00 00 00 	nopl   0x0(%rax)

00000000000026f0 <_Z25mandelbrot_cpu_vector_ilpjjPj>:
    26f0:	85 ff                	test   %edi,%edi
    26f2:	0f 84 86 03 00 00    	je     2a7e <_Z25mandelbrot_cpu_vector_ilpjjPj+0x38e>
    26f8:	53                   	push   %rbx
    26f9:	62 f2 7d 48 7c c6    	vpbroadcastd %esi,%zmm0
    26ff:	89 f8                	mov    %edi,%eax
    2701:	62 f1 76 08 7b cf    	vcvtusi2ss %edi,%xmm1,%xmm1
    2707:	c5 fa 10 15 f5 88 00 	vmovss 0x88f5(%rip),%xmm2        # b004 <_IO_stdin_used+0x4>
    270e:	00 
    270f:	c5 ea 5e c9          	vdivss %xmm1,%xmm2,%xmm1
    2713:	c5 fa 11 4c 24 fc    	vmovss %xmm1,-0x4(%rsp)
    2719:	c5 f2 59 0d e7 88 00 	vmulss 0x88e7(%rip),%xmm1,%xmm1        # b008 <_IO_stdin_used+0x8>
    2720:	00 
    2721:	62 f2 7d 48 18 d1    	vbroadcastss %xmm1,%zmm2
    2727:	48 8d 0c 85 00 00 00 	lea    0x0(,%rax,4),%rcx
    272e:	00 
    272f:	48 8d 70 ff          	lea    -0x1(%rax),%rsi
    2733:	48 c1 ee 06          	shr    $0x6,%rsi
    2737:	31 ff                	xor    %edi,%edi
    2739:	62 72 7d 48 22 0d 55 	vpmovsxbq 0x8c55(%rip),%zmm9        # b398 <_IO_stdin_used+0x398>
    2740:	8c 00 00 
    2743:	62 72 7d 48 22 15 53 	vpmovsxbq 0x8c53(%rip),%zmm10        # b3a0 <_IO_stdin_used+0x3a0>
    274a:	8c 00 00 
    274d:	62 72 7d 48 22 1d 51 	vpmovsxbq 0x8c51(%rip),%zmm11        # b3a8 <_IO_stdin_used+0x3a8>
    2754:	8c 00 00 
    2757:	62 72 7d 48 22 25 4f 	vpmovsxbq 0x8c4f(%rip),%zmm12        # b3b0 <_IO_stdin_used+0x3b0>
    275e:	8c 00 00 
    2761:	62 72 7d 48 22 2d 4d 	vpmovsxbq 0x8c4d(%rip),%zmm13        # b3b8 <_IO_stdin_used+0x3b8>
    2768:	8c 00 00 
    276b:	62 72 7d 48 18 35 9b 	vbroadcastss 0x889b(%rip),%zmm14        # b010 <_IO_stdin_used+0x10>
    2772:	88 00 00 
    2775:	62 72 7d 48 18 3d 95 	vbroadcastss 0x8895(%rip),%zmm15        # b014 <_IO_stdin_used+0x14>
    277c:	88 00 00 
    277f:	90                   	nop
    2780:	49 89 c8             	mov    %rcx,%r8
    2783:	4c 0f af c7          	imul   %rdi,%r8
    2787:	62 a1 7d 00 ef c0    	vpxord %xmm16,%xmm16,%xmm16
    278d:	62 f1 fe 00 2a cf    	vcvtsi2ss %rdi,%xmm16,%xmm1
    2793:	c5 f2 59 0d 6d 88 00 	vmulss 0x886d(%rip),%xmm1,%xmm1        # b008 <_IO_stdin_used+0x8>
    279a:	00 
    279b:	c5 fa 10 1d 69 88 00 	vmovss 0x8869(%rip),%xmm3        # b00c <_IO_stdin_used+0xc>
    27a2:	00 
    27a3:	c4 e2 61 99 4c 24 fc 	vfmadd132ss -0x4(%rsp),%xmm3,%xmm1
    27aa:	62 e2 7d 48 18 c1    	vbroadcastss %xmm1,%zmm16
    27b0:	49 01 d0             	add    %rdx,%r8
    27b3:	45 31 c9             	xor    %r9d,%r9d
    27b6:	45 31 d2             	xor    %r10d,%r10d
    27b9:	0f 1f 80 00 00 00 00 	nopl   0x0(%rax)
    27c0:	4d 89 cb             	mov    %r9,%r11
    27c3:	49 c1 e3 08          	shl    $0x8,%r11
    27c7:	62 d2 fd 48 7c ca    	vpbroadcastq %r10,%zmm1
    27cd:	62 f1 f5 48 eb 1d e9 	vporq  0x88e9(%rip),%zmm1,%zmm3        # b0c0 <_IO_stdin_used+0xc0>
    27d4:	88 00 00 
    27d7:	c5 f5 eb 25 81 8b 00 	vpor   0x8b81(%rip),%ymm1,%ymm4        # b360 <_IO_stdin_used+0x360>
    27de:	00 
    27df:	c5 f1 eb 2d 99 8b 00 	vpor   0x8b99(%rip),%xmm1,%xmm5        # b380 <_IO_stdin_used+0x380>
    27e6:	00 
    27e7:	4c 89 d3             	mov    %r10,%rbx
    27ea:	48 83 cb 01          	or     $0x1,%rbx
    27ee:	c4 e1 f9 6e f3       	vmovq  %rbx,%xmm6
    27f3:	c5 f1 6c f6          	vpunpcklqdq %xmm6,%xmm1,%xmm6
    27f7:	62 f3 cd 48 3a e4 01 	vinserti64x4 $0x1,%ymm4,%zmm6,%zmm4
    27fe:	62 f3 5d 48 38 e5 01 	vinserti32x4 $0x1,%xmm5,%zmm4,%zmm4
    2805:	62 f1 ff 48 7a e4    	vcvtuqq2ps %zmm4,%ymm4
    280b:	62 f1 ff 48 7a db    	vcvtuqq2ps %zmm3,%ymm3
    2811:	62 f1 f5 48 eb 2d e5 	vporq  0x88e5(%rip),%zmm1,%zmm5        # b100 <_IO_stdin_used+0x100>
    2818:	88 00 00 
    281b:	62 d1 f5 48 eb f1    	vporq  %zmm9,%zmm1,%zmm6
    2821:	62 f1 fc 48 5b f6    	vcvtqq2ps %zmm6,%ymm6
    2827:	62 f1 fc 48 5b ed    	vcvtqq2ps %zmm5,%ymm5
    282d:	62 e3 dd 48 1a cb 01 	vinsertf64x4 $0x1,%ymm3,%zmm4,%zmm17
    2834:	62 e3 cd 48 1a d5 01 	vinsertf64x4 $0x1,%ymm5,%zmm6,%zmm18
    283b:	62 d1 f5 48 eb da    	vporq  %zmm10,%zmm1,%zmm3
    2841:	62 d1 f5 48 eb e3    	vporq  %zmm11,%zmm1,%zmm4
    2847:	62 f1 fc 48 5b e4    	vcvtqq2ps %zmm4,%ymm4
    284d:	62 f1 fc 48 5b db    	vcvtqq2ps %zmm3,%ymm3
    2853:	62 e3 dd 48 1a db 01 	vinsertf64x4 $0x1,%ymm3,%zmm4,%zmm19
    285a:	62 d1 f5 48 eb dd    	vporq  %zmm13,%zmm1,%zmm3
    2860:	62 f1 fc 48 5b db    	vcvtqq2ps %zmm3,%ymm3
    2866:	62 d1 f5 48 eb cc    	vporq  %zmm12,%zmm1,%zmm1
    286c:	62 f1 fc 48 5b c9    	vcvtqq2ps %zmm1,%ymm1
    2872:	62 e3 e5 48 1a e1 01 	vinsertf64x4 $0x1,%ymm1,%zmm3,%zmm20
    2879:	62 c2 6d 48 a8 ce    	vfmadd213ps %zmm14,%zmm2,%zmm17
    287f:	62 c2 6d 48 a8 d6    	vfmadd213ps %zmm14,%zmm2,%zmm18
    2885:	62 c2 6d 48 a8 de    	vfmadd213ps %zmm14,%zmm2,%zmm19
    288b:	62 c2 6d 48 a8 e6    	vfmadd213ps %zmm14,%zmm2,%zmm20
    2891:	62 a1 55 00 ef ed    	vpxord %xmm21,%xmm21,%xmm21
    2897:	62 a1 4c 00 57 f6    	vxorps %xmm22,%xmm22,%xmm22
    289d:	62 a1 44 00 57 ff    	vxorps %xmm23,%xmm23,%xmm23
    28a3:	62 01 3c 00 57 c0    	vxorps %xmm24,%xmm24,%xmm24
    28a9:	62 01 34 00 57 c9    	vxorps %xmm25,%xmm25,%xmm25
    28af:	62 01 2c 00 57 d2    	vxorps %xmm26,%xmm26,%xmm26
    28b5:	62 01 24 00 57 db    	vxorps %xmm27,%xmm27,%xmm27
    28bb:	62 01 1c 00 57 e4    	vxorps %xmm28,%xmm28,%xmm28
    28c1:	62 01 14 00 57 ed    	vxorps %xmm29,%xmm29,%xmm29
    28c7:	62 01 0c 00 57 f6    	vxorps %xmm30,%xmm30,%xmm30
    28cd:	62 01 04 00 57 ff    	vxorps %xmm31,%xmm31,%xmm31
    28d3:	c5 d8 57 e4          	vxorps %xmm4,%xmm4,%xmm4
    28d7:	c5 f0 57 c9          	vxorps %xmm1,%xmm1,%xmm1
    28db:	c5 e0 57 db          	vxorps %xmm3,%xmm3,%xmm3
    28df:	c5 d0 57 ed          	vxorps %xmm5,%xmm5,%xmm5
    28e3:	c5 c8 57 f6          	vxorps %xmm6,%xmm6,%xmm6
    28e7:	66 0f 1f 84 00 00 00 	nopw   0x0(%rax,%rax,1)
    28ee:	00 00 
    28f0:	62 91 14 40 58 f9    	vaddps %zmm25,%zmm29,%zmm7
    28f6:	62 f1 7d 48 66 ce    	vpcmpgtd %zmm6,%zmm0,%k1
    28fc:	62 d1 44 49 c2 cf 02 	vcmpleps %zmm15,%zmm7,%k1{%k1}
    2903:	62 11 34 40 5c c5    	vsubps %zmm29,%zmm25,%zmm8
    2909:	62 51 74 40 58 c0    	vaddps %zmm8,%zmm17,%zmm8
    290f:	62 f1 74 48 5c ff    	vsubps %zmm7,%zmm1,%zmm7
    2915:	62 b1 44 48 58 f8    	vaddps %zmm16,%zmm7,%zmm7
    291b:	62 41 3c 49 59 c8    	vmulps %zmm8,%zmm8,%zmm25{%k1}
    2921:	62 61 44 49 59 ef    	vmulps %zmm7,%zmm7,%zmm29{%k1}
    2927:	62 d1 44 48 58 f8    	vaddps %zmm8,%zmm7,%zmm7
    292d:	62 f1 44 49 59 cf    	vmulps %zmm7,%zmm7,%zmm1{%k1}
    2933:	62 f2 7e 48 38 f9    	vpmovm2d %k1,%zmm7
    2939:	62 f1 4d 48 fa f7    	vpsubd %zmm7,%zmm6,%zmm6
    293f:	62 91 1c 40 58 f8    	vaddps %zmm24,%zmm28,%zmm7
    2945:	62 f1 7d 48 66 d5    	vpcmpgtd %zmm5,%zmm0,%k2
    294b:	62 d1 44 4a c2 d7 02 	vcmpleps %zmm15,%zmm7,%k2{%k2}
    2952:	62 11 3c 40 5c c4    	vsubps %zmm28,%zmm24,%zmm8
    2958:	62 51 6c 40 58 c0    	vaddps %zmm8,%zmm18,%zmm8
    295e:	62 f1 5c 48 5c ff    	vsubps %zmm7,%zmm4,%zmm7
    2964:	62 b1 44 48 58 f8    	vaddps %zmm16,%zmm7,%zmm7
    296a:	62 41 3c 4a 59 c0    	vmulps %zmm8,%zmm8,%zmm24{%k2}
    2970:	62 61 44 4a 59 e7    	vmulps %zmm7,%zmm7,%zmm28{%k2}
    2976:	62 d1 44 48 58 f8    	vaddps %zmm8,%zmm7,%zmm7
    297c:	62 f1 44 4a 59 e7    	vmulps %zmm7,%zmm7,%zmm4{%k2}
    2982:	62 f2 7e 48 38 fa    	vpmovm2d %k2,%zmm7
    2988:	62 f1 55 48 fa ef    	vpsubd %zmm7,%zmm5,%zmm5
    298e:	62 b1 24 40 58 ff    	vaddps %zmm23,%zmm27,%zmm7
    2994:	62 f1 7d 48 66 db    	vpcmpgtd %zmm3,%zmm0,%k3
    299a:	62 d1 44 4b c2 df 02 	vcmpleps %zmm15,%zmm7,%k3{%k3}
    29a1:	62 11 44 40 5c c3    	vsubps %zmm27,%zmm23,%zmm8
    29a7:	62 51 64 40 58 c0    	vaddps %zmm8,%zmm19,%zmm8
    29ad:	62 f1 04 40 5c ff    	vsubps %zmm7,%zmm31,%zmm7
    29b3:	62 b1 44 48 58 f8    	vaddps %zmm16,%zmm7,%zmm7
    29b9:	62 c1 3c 4b 59 f8    	vmulps %zmm8,%zmm8,%zmm23{%k3}
    29bf:	62 61 44 4b 59 df    	vmulps %zmm7,%zmm7,%zmm27{%k3}
    29c5:	62 d1 44 48 58 f8    	vaddps %zmm8,%zmm7,%zmm7
    29cb:	62 61 44 4b 59 ff    	vmulps %zmm7,%zmm7,%zmm31{%k3}
    29d1:	62 f2 7e 48 38 fb    	vpmovm2d %k3,%zmm7
    29d7:	62 f1 65 48 fa df    	vpsubd %zmm7,%zmm3,%zmm3
    29dd:	62 b1 2c 40 58 fe    	vaddps %zmm22,%zmm26,%zmm7
    29e3:	62 b1 7d 48 66 e5    	vpcmpgtd %zmm21,%zmm0,%k4
    29e9:	62 d1 44 4c c2 e7 02 	vcmpleps %zmm15,%zmm7,%k4{%k4}
    29f0:	62 11 4c 40 5c c2    	vsubps %zmm26,%zmm22,%zmm8
    29f6:	62 51 5c 40 58 c0    	vaddps %zmm8,%zmm20,%zmm8
    29fc:	62 f1 0c 40 5c ff    	vsubps %zmm7,%zmm30,%zmm7
    2a02:	62 b1 44 48 58 f8    	vaddps %zmm16,%zmm7,%zmm7
    2a08:	62 c1 3c 4c 59 f0    	vmulps %zmm8,%zmm8,%zmm22{%k4}
    2a0e:	62 61 44 4c 59 d7    	vmulps %zmm7,%zmm7,%zmm26{%k4}
    2a14:	62 d1 44 48 58 f8    	vaddps %zmm8,%zmm7,%zmm7
    2a1a:	62 61 44 4c 59 f7    	vmulps %zmm7,%zmm7,%zmm30{%k4}
    2a20:	62 f2 7e 48 38 fc    	vpmovm2d %k4,%zmm7
    2a26:	62 e1 55 40 fa ef    	vpsubd %zmm7,%zmm21,%zmm21
    2a2c:	c5 ec 45 c1          	korw   %k1,%k2,%k0
    2a30:	c5 e4 45 c0          	korw   %k0,%k3,%k0
    2a34:	c5 f8 98 e0          	kortestw %k0,%k4
    2a38:	0f 85 b2 fe ff ff    	jne    28f0 <_Z25mandelbrot_cpu_vector_ilpjjPj+0x200>
    2a3e:	62 91 fe 48 7f 34 18 	vmovdqu64 %zmm6,(%r8,%r11,1)
    2a45:	62 91 fe 48 7f 6c 18 	vmovdqu64 %zmm5,0x40(%r8,%r11,1)
    2a4c:	01 
    2a4d:	62 91 fe 48 7f 5c 18 	vmovdqu64 %zmm3,0x80(%r8,%r11,1)
    2a54:	02 
    2a55:	62 81 fe 48 7f 6c 18 	vmovdqu64 %zmm21,0xc0(%r8,%r11,1)
    2a5c:	03 
    2a5d:	49 83 c2 40          	add    $0x40,%r10
    2a61:	4d 8d 59 01          	lea    0x1(%r9),%r11
    2a65:	49 39 f1             	cmp    %rsi,%r9
    2a68:	4d 89 d9             	mov    %r11,%r9
    2a6b:	0f 85 4f fd ff ff    	jne    27c0 <_Z25mandelbrot_cpu_vector_ilpjjPj+0xd0>
    2a71:	48 ff c7             	inc    %rdi
    2a74:	48 39 c7             	cmp    %rax,%rdi
    2a77:	0f 85 03 fd ff ff    	jne    2780 <_Z25mandelbrot_cpu_vector_ilpjjPj+0x90>
    2a7d:	5b                   	pop    %rbx
    2a7e:	c5 f8 77             	vzeroupper
    2a81:	c3                   	ret
    2a82:	66 66 66 66 66 2e 0f 	data16 data16 data16 data16 cs nopw 0x0(%rax,%rax,1)
    2a89:	1f 84 00 00 00 00 00 

0000000000002a90 <_Z11thread_funcPv>:
    2a90:	8b 07                	mov    (%rdi),%eax
    2a92:	8b 4f 04             	mov    0x4(%rdi),%ecx
    2a95:	39 c8                	cmp    %ecx,%eax
    2a97:	0f 83 78 01 00 00    	jae    2c15 <_Z11thread_funcPv+0x185>
    2a9d:	62 f2 7d 48 18 47 02 	vbroadcastss 0x8(%rdi),%zmm0
    2aa4:	48 8b 57 10          	mov    0x10(%rdi),%rdx
    2aa8:	62 f1 76 08 7b c9    	vcvtusi2ss %ecx,%xmm1,%xmm1
    2aae:	8b 77 18             	mov    0x18(%rdi),%esi
    2ab1:	c5 fa 10 15 4b 85 00 	vmovss 0x854b(%rip),%xmm2        # b004 <_IO_stdin_used+0x4>
    2ab8:	00 
    2ab9:	c5 ea 5e c9          	vdivss %xmm1,%xmm2,%xmm1
    2abd:	c5 f2 59 15 43 85 00 	vmulss 0x8543(%rip),%xmm1,%xmm2        # b008 <_IO_stdin_used+0x8>
    2ac4:	00 
    2ac5:	62 f2 7d 48 18 d2    	vbroadcastss %xmm2,%zmm2
    2acb:	c5 fa 10 1d 35 85 00 	vmovss 0x8535(%rip),%xmm3        # b008 <_IO_stdin_used+0x8>
    2ad2:	00 
    2ad3:	c5 fa 10 25 31 85 00 	vmovss 0x8531(%rip),%xmm4        # b00c <_IO_stdin_used+0xc>
    2ada:	00 
    2adb:	62 f2 7d 48 22 2d ab 	vpmovsxbq 0x88ab(%rip),%zmm5        # b390 <_IO_stdin_used+0x390>
    2ae2:	88 00 00 
    2ae5:	c4 e2 7d 22 35 2a 85 	vpmovsxbq 0x852a(%rip),%ymm6        # b018 <_IO_stdin_used+0x18>
    2aec:	00 00 
    2aee:	c4 e2 79 22 3d c9 87 	vpmovsxbq 0x87c9(%rip),%xmm7        # b2c0 <_IO_stdin_used+0x2c0>
    2af5:	00 00 
    2af7:	62 72 7d 48 18 05 0f 	vbroadcastss 0x850f(%rip),%zmm8        # b010 <_IO_stdin_used+0x10>
    2afe:	85 00 00 
    2b01:	62 72 7d 48 18 0d 09 	vbroadcastss 0x8509(%rip),%zmm9        # b014 <_IO_stdin_used+0x14>
    2b08:	85 00 00 
    2b0b:	0f 1f 44 00 00       	nopl   0x0(%rax,%rax,1)
    2b10:	62 71 ee 00 2a d0    	vcvtsi2ss %rax,%xmm18,%xmm10
    2b16:	c5 2a 59 d3          	vmulss %xmm3,%xmm10,%xmm10
    2b1a:	c4 62 71 a9 d4       	vfmadd213ss %xmm4,%xmm1,%xmm10
    2b1f:	62 52 7d 48 18 d2    	vbroadcastss %xmm10,%zmm10
    2b25:	48 89 c7             	mov    %rax,%rdi
    2b28:	48 0f af f9          	imul   %rcx,%rdi
    2b2c:	48 8d 3c ba          	lea    (%rdx,%rdi,4),%rdi
    2b30:	45 31 c0             	xor    %r8d,%r8d
    2b33:	66 66 66 66 2e 0f 1f 	data16 data16 data16 cs nopw 0x0(%rax,%rax,1)
    2b3a:	84 00 00 00 00 00 
    2b40:	62 52 fd 48 7c d8    	vpbroadcastq %r8,%zmm11
    2b46:	62 71 a5 48 eb e5    	vporq  %zmm5,%zmm11,%zmm12
    2b4c:	c5 25 eb ee          	vpor   %ymm6,%ymm11,%ymm13
    2b50:	c5 21 eb f7          	vpor   %xmm7,%xmm11,%xmm14
    2b54:	4d 89 c1             	mov    %r8,%r9
    2b57:	49 83 c9 01          	or     $0x1,%r9
    2b5b:	c4 41 f9 6e f9       	vmovq  %r9,%xmm15
    2b60:	c4 41 21 6c df       	vpunpcklqdq %xmm15,%xmm11,%xmm11
    2b65:	62 53 a5 48 3a dd 01 	vinserti64x4 $0x1,%ymm13,%zmm11,%zmm11
    2b6c:	62 53 25 48 38 de 01 	vinserti32x4 $0x1,%xmm14,%zmm11,%zmm11
    2b73:	62 51 ff 48 7a db    	vcvtuqq2ps %zmm11,%ymm11
    2b79:	62 51 ff 48 7a e4    	vcvtuqq2ps %zmm12,%ymm12
    2b7f:	62 53 a5 48 1a dc 01 	vinsertf64x4 $0x1,%ymm12,%zmm11,%zmm11
    2b86:	62 52 6d 48 a8 d8    	vfmadd213ps %zmm8,%zmm2,%zmm11
    2b8c:	c4 41 18 57 e4       	vxorps %xmm12,%xmm12,%xmm12
    2b91:	c4 41 11 ef ed       	vpxor  %xmm13,%xmm13,%xmm13
    2b96:	c4 41 09 ef f6       	vpxor  %xmm14,%xmm14,%xmm14
    2b9b:	c4 41 01 ef ff       	vpxor  %xmm15,%xmm15,%xmm15
    2ba0:	62 c1 14 48 58 c7    	vaddps %zmm15,%zmm13,%zmm16
    2ba6:	62 d1 7d 48 66 cc    	vpcmpgtd %zmm12,%zmm0,%k1
    2bac:	62 d1 7c 41 c2 c9 02 	vcmpleps %zmm9,%zmm16,%k1{%k1}
    2bb3:	62 c1 14 48 5c cf    	vsubps %zmm15,%zmm13,%zmm17
    2bb9:	62 a1 24 48 58 c9    	vaddps %zmm17,%zmm11,%zmm17
    2bbf:	62 a1 0c 48 5c c0    	vsubps %zmm16,%zmm14,%zmm16
    2bc5:	62 c1 7c 40 58 c2    	vaddps %zmm10,%zmm16,%zmm16
    2bcb:	62 31 74 41 59 e9    	vmulps %zmm17,%zmm17,%zmm13{%k1}
    2bd1:	62 31 7c 41 59 f8    	vmulps %zmm16,%zmm16,%zmm15{%k1}
    2bd7:	62 a1 7c 40 58 c1    	vaddps %zmm17,%zmm16,%zmm16
    2bdd:	62 31 7c 41 59 f0    	vmulps %zmm16,%zmm16,%zmm14{%k1}
    2be3:	62 e2 7e 48 38 c1    	vpmovm2d %k1,%zmm16
    2be9:	62 31 1d 48 fa e0    	vpsubd %zmm16,%zmm12,%zmm12
    2bef:	c5 f8 98 c9          	kortestw %k1,%k1
    2bf3:	75 ab                	jne    2ba0 <_Z11thread_funcPv+0x110>
    2bf5:	62 31 fe 48 7f 24 87 	vmovdqu64 %zmm12,(%rdi,%r8,4)
    2bfc:	49 83 c0 10          	add    $0x10,%r8
    2c00:	49 39 c8             	cmp    %rcx,%r8
    2c03:	0f 82 37 ff ff ff    	jb     2b40 <_Z11thread_funcPv+0xb0>
    2c09:	48 01 f0             	add    %rsi,%rax
    2c0c:	48 39 c8             	cmp    %rcx,%rax
    2c0f:	0f 82 fb fe ff ff    	jb     2b10 <_Z11thread_funcPv+0x80>
    2c15:	31 c0                	xor    %eax,%eax
    2c17:	c5 f8 77             	vzeroupper
    2c1a:	c3                   	ret
    2c1b:	0f 1f 44 00 00       	nopl   0x0(%rax,%rax,1)

0000000000002c20 <_Z31mandelbrot_cpu_vector_multicorejjPj>:
    2c20:	55                   	push   %rbp
    2c21:	41 57                	push   %r15
    2c23:	41 56                	push   %r14
    2c25:	53                   	push   %rbx
    2c26:	48 81 ec 48 01 00 00 	sub    $0x148,%rsp
    2c2d:	48 89 d3             	mov    %rdx,%rbx
    2c30:	89 f5                	mov    %esi,%ebp
    2c32:	41 89 fe             	mov    %edi,%r14d
    2c35:	c7 44 24 58 08 00 00 	movl   $0x8,0x58(%rsp)
    2c3c:	00 
    2c3d:	c7 44 24 78 08 00 00 	movl   $0x8,0x78(%rsp)
    2c44:	00 
    2c45:	c7 84 24 98 00 00 00 	movl   $0x8,0x98(%rsp)
    2c4c:	08 00 00 00 
    2c50:	c7 84 24 b8 00 00 00 	movl   $0x8,0xb8(%rsp)
    2c57:	08 00 00 00 
    2c5b:	c7 84 24 d8 00 00 00 	movl   $0x8,0xd8(%rsp)
    2c62:	08 00 00 00 
    2c66:	c7 84 24 f8 00 00 00 	movl   $0x8,0xf8(%rsp)
    2c6d:	08 00 00 00 
    2c71:	c7 84 24 18 01 00 00 	movl   $0x8,0x118(%rsp)
    2c78:	08 00 00 00 
    2c7c:	c7 84 24 38 01 00 00 	movl   $0x8,0x138(%rsp)
    2c83:	08 00 00 00 
    2c87:	c7 44 24 40 00 00 00 	movl   $0x0,0x40(%rsp)
    2c8e:	00 
    2c8f:	89 7c 24 44          	mov    %edi,0x44(%rsp)
    2c93:	89 74 24 48          	mov    %esi,0x48(%rsp)
    2c97:	48 89 54 24 50       	mov    %rdx,0x50(%rsp)
    2c9c:	4c 8d 3d ed fd ff ff 	lea    -0x213(%rip),%r15        # 2a90 <_Z11thread_funcPv>
    2ca3:	48 89 e7             	mov    %rsp,%rdi
    2ca6:	48 8d 4c 24 40       	lea    0x40(%rsp),%rcx
    2cab:	31 f6                	xor    %esi,%esi
    2cad:	4c 89 fa             	mov    %r15,%rdx
    2cb0:	e8 5b f5 ff ff       	call   2210 <pthread_create@plt>
    2cb5:	48 8d 4c 24 60       	lea    0x60(%rsp),%rcx
    2cba:	c7 44 24 60 01 00 00 	movl   $0x1,0x60(%rsp)
    2cc1:	00 
    2cc2:	44 89 74 24 64       	mov    %r14d,0x64(%rsp)
    2cc7:	89 6c 24 68          	mov    %ebp,0x68(%rsp)
    2ccb:	48 89 5c 24 70       	mov    %rbx,0x70(%rsp)
    2cd0:	48 8d 7c 24 08       	lea    0x8(%rsp),%rdi
    2cd5:	31 f6                	xor    %esi,%esi
    2cd7:	4c 89 fa             	mov    %r15,%rdx
    2cda:	e8 31 f5 ff ff       	call   2210 <pthread_create@plt>
    2cdf:	48 8d 8c 24 80 00 00 	lea    0x80(%rsp),%rcx
    2ce6:	00 
    2ce7:	c7 84 24 80 00 00 00 	movl   $0x2,0x80(%rsp)
    2cee:	02 00 00 00 
    2cf2:	44 89 b4 24 84 00 00 	mov    %r14d,0x84(%rsp)
    2cf9:	00 
    2cfa:	89 ac 24 88 00 00 00 	mov    %ebp,0x88(%rsp)
    2d01:	48 89 9c 24 90 00 00 	mov    %rbx,0x90(%rsp)
    2d08:	00 
    2d09:	48 8d 7c 24 10       	lea    0x10(%rsp),%rdi
    2d0e:	31 f6                	xor    %esi,%esi
    2d10:	4c 89 fa             	mov    %r15,%rdx
    2d13:	e8 f8 f4 ff ff       	call   2210 <pthread_create@plt>
    2d18:	48 8d 8c 24 a0 00 00 	lea    0xa0(%rsp),%rcx
    2d1f:	00 
    2d20:	c7 84 24 a0 00 00 00 	movl   $0x3,0xa0(%rsp)
    2d27:	03 00 00 00 
    2d2b:	44 89 b4 24 a4 00 00 	mov    %r14d,0xa4(%rsp)
    2d32:	00 
    2d33:	89 ac 24 a8 00 00 00 	mov    %ebp,0xa8(%rsp)
    2d3a:	48 89 9c 24 b0 00 00 	mov    %rbx,0xb0(%rsp)
    2d41:	00 
    2d42:	48 8d 7c 24 18       	lea    0x18(%rsp),%rdi
    2d47:	31 f6                	xor    %esi,%esi
    2d49:	4c 89 fa             	mov    %r15,%rdx
    2d4c:	e8 bf f4 ff ff       	call   2210 <pthread_create@plt>
    2d51:	48 8d 8c 24 c0 00 00 	lea    0xc0(%rsp),%rcx
    2d58:	00 
    2d59:	c7 84 24 c0 00 00 00 	movl   $0x4,0xc0(%rsp)
    2d60:	04 00 00 00 
    2d64:	44 89 b4 24 c4 00 00 	mov    %r14d,0xc4(%rsp)
    2d6b:	00 
    2d6c:	89 ac 24 c8 00 00 00 	mov    %ebp,0xc8(%rsp)
    2d73:	48 89 9c 24 d0 00 00 	mov    %rbx,0xd0(%rsp)
    2d7a:	00 
    2d7b:	48 8d 7c 24 20       	lea    0x20(%rsp),%rdi
    2d80:	31 f6                	xor    %esi,%esi
    2d82:	4c 89 fa             	mov    %r15,%rdx
    2d85:	e8 86 f4 ff ff       	call   2210 <pthread_create@plt>
    2d8a:	48 8d 8c 24 e0 00 00 	lea    0xe0(%rsp),%rcx
    2d91:	00 
    2d92:	c7 84 24 e0 00 00 00 	movl   $0x5,0xe0(%rsp)
    2d99:	05 00 00 00 
    2d9d:	44 89 b4 24 e4 00 00 	mov    %r14d,0xe4(%rsp)
    2da4:	00 
    2da5:	89 ac 24 e8 00 00 00 	mov    %ebp,0xe8(%rsp)
    2dac:	48 89 9c 24 f0 00 00 	mov    %rbx,0xf0(%rsp)
    2db3:	00 
    2db4:	48 8d 7c 24 28       	lea    0x28(%rsp),%rdi
    2db9:	31 f6                	xor    %esi,%esi
    2dbb:	4c 89 fa             	mov    %r15,%rdx
    2dbe:	e8 4d f4 ff ff       	call   2210 <pthread_create@plt>
    2dc3:	48 8d 8c 24 00 01 00 	lea    0x100(%rsp),%rcx
    2dca:	00 
    2dcb:	c7 84 24 00 01 00 00 	movl   $0x6,0x100(%rsp)
    2dd2:	06 00 00 00 
    2dd6:	44 89 b4 24 04 01 00 	mov    %r14d,0x104(%rsp)
    2ddd:	00 
    2dde:	89 ac 24 08 01 00 00 	mov    %ebp,0x108(%rsp)
    2de5:	48 89 9c 24 10 01 00 	mov    %rbx,0x110(%rsp)
    2dec:	00 
    2ded:	48 8d 7c 24 30       	lea    0x30(%rsp),%rdi
    2df2:	31 f6                	xor    %esi,%esi
    2df4:	4c 89 fa             	mov    %r15,%rdx
    2df7:	e8 14 f4 ff ff       	call   2210 <pthread_create@plt>
    2dfc:	48 8d 8c 24 20 01 00 	lea    0x120(%rsp),%rcx
    2e03:	00 
    2e04:	c7 84 24 20 01 00 00 	movl   $0x7,0x120(%rsp)
    2e0b:	07 00 00 00 
    2e0f:	44 89 b4 24 24 01 00 	mov    %r14d,0x124(%rsp)
    2e16:	00 
    2e17:	89 ac 24 28 01 00 00 	mov    %ebp,0x128(%rsp)
    2e1e:	48 89 9c 24 30 01 00 	mov    %rbx,0x130(%rsp)
    2e25:	00 
    2e26:	48 8d 7c 24 38       	lea    0x38(%rsp),%rdi
    2e2b:	31 f6                	xor    %esi,%esi
    2e2d:	4c 89 fa             	mov    %r15,%rdx
    2e30:	e8 db f3 ff ff       	call   2210 <pthread_create@plt>
    2e35:	48 8b 3c 24          	mov    (%rsp),%rdi
    2e39:	31 f6                	xor    %esi,%esi
    2e3b:	e8 c0 f2 ff ff       	call   2100 <pthread_join@plt>
    2e40:	48 8b 7c 24 08       	mov    0x8(%rsp),%rdi
    2e45:	31 f6                	xor    %esi,%esi
    2e47:	e8 b4 f2 ff ff       	call   2100 <pthread_join@plt>
    2e4c:	48 8b 7c 24 10       	mov    0x10(%rsp),%rdi
    2e51:	31 f6                	xor    %esi,%esi
    2e53:	e8 a8 f2 ff ff       	call   2100 <pthread_join@plt>
    2e58:	48 8b 7c 24 18       	mov    0x18(%rsp),%rdi
    2e5d:	31 f6                	xor    %esi,%esi
    2e5f:	e8 9c f2 ff ff       	call   2100 <pthread_join@plt>
    2e64:	48 8b 7c 24 20       	mov    0x20(%rsp),%rdi
    2e69:	31 f6                	xor    %esi,%esi
    2e6b:	e8 90 f2 ff ff       	call   2100 <pthread_join@plt>
    2e70:	48 8b 7c 24 28       	mov    0x28(%rsp),%rdi
    2e75:	31 f6                	xor    %esi,%esi
    2e77:	e8 84 f2 ff ff       	call   2100 <pthread_join@plt>
    2e7c:	48 8b 7c 24 30       	mov    0x30(%rsp),%rdi
    2e81:	31 f6                	xor    %esi,%esi
    2e83:	e8 78 f2 ff ff       	call   2100 <pthread_join@plt>
    2e88:	48 8b 7c 24 38       	mov    0x38(%rsp),%rdi
    2e8d:	31 f6                	xor    %esi,%esi
    2e8f:	e8 6c f2 ff ff       	call   2100 <pthread_join@plt>
    2e94:	48 81 c4 48 01 00 00 	add    $0x148,%rsp
    2e9b:	5b                   	pop    %rbx
    2e9c:	41 5e                	pop    %r14
    2e9e:	41 5f                	pop    %r15
    2ea0:	5d                   	pop    %rbp
    2ea1:	c3                   	ret
    2ea2:	66 66 66 66 66 2e 0f 	data16 data16 data16 data16 cs nopw 0x0(%rax,%rax,1)
    2ea9:	1f 84 00 00 00 00 00 

0000000000002eb0 <_Z43mandelbrot_cpu_vector_multicore_multithreadjjPj>:
    2eb0:	55                   	push   %rbp
    2eb1:	41 57                	push   %r15
    2eb3:	41 56                	push   %r14
    2eb5:	53                   	push   %rbx
    2eb6:	48 81 ec 08 05 00 00 	sub    $0x508,%rsp
    2ebd:	48 89 d3             	mov    %rdx,%rbx
    2ec0:	89 f5                	mov    %esi,%ebp
    2ec2:	41 89 fe             	mov    %edi,%r14d
    2ec5:	c7 44 24 18 20 00 00 	movl   $0x20,0x18(%rsp)
    2ecc:	00 
    2ecd:	c7 44 24 38 20 00 00 	movl   $0x20,0x38(%rsp)
    2ed4:	00 
    2ed5:	c7 44 24 58 20 00 00 	movl   $0x20,0x58(%rsp)
    2edc:	00 
    2edd:	c7 44 24 78 20 00 00 	movl   $0x20,0x78(%rsp)
    2ee4:	00 
    2ee5:	c7 84 24 98 00 00 00 	movl   $0x20,0x98(%rsp)
    2eec:	20 00 00 00 
    2ef0:	c7 84 24 b8 00 00 00 	movl   $0x20,0xb8(%rsp)
    2ef7:	20 00 00 00 
    2efb:	c7 84 24 d8 00 00 00 	movl   $0x20,0xd8(%rsp)
    2f02:	20 00 00 00 
    2f06:	c7 84 24 f8 00 00 00 	movl   $0x20,0xf8(%rsp)
    2f0d:	20 00 00 00 
    2f11:	c7 84 24 18 01 00 00 	movl   $0x20,0x118(%rsp)
    2f18:	20 00 00 00 
    2f1c:	c7 84 24 38 01 00 00 	movl   $0x20,0x138(%rsp)
    2f23:	20 00 00 00 
    2f27:	c7 84 24 58 01 00 00 	movl   $0x20,0x158(%rsp)
    2f2e:	20 00 00 00 
    2f32:	c7 84 24 78 01 00 00 	movl   $0x20,0x178(%rsp)
    2f39:	20 00 00 00 
    2f3d:	c7 84 24 98 01 00 00 	movl   $0x20,0x198(%rsp)
    2f44:	20 00 00 00 
    2f48:	c7 84 24 b8 01 00 00 	movl   $0x20,0x1b8(%rsp)
    2f4f:	20 00 00 00 
    2f53:	c7 84 24 d8 01 00 00 	movl   $0x20,0x1d8(%rsp)
    2f5a:	20 00 00 00 
    2f5e:	c7 84 24 f8 01 00 00 	movl   $0x20,0x1f8(%rsp)
    2f65:	20 00 00 00 
    2f69:	c7 84 24 18 02 00 00 	movl   $0x20,0x218(%rsp)
    2f70:	20 00 00 00 
    2f74:	c7 84 24 38 02 00 00 	movl   $0x20,0x238(%rsp)
    2f7b:	20 00 00 00 
    2f7f:	c7 84 24 58 02 00 00 	movl   $0x20,0x258(%rsp)
    2f86:	20 00 00 00 
    2f8a:	c7 84 24 78 02 00 00 	movl   $0x20,0x278(%rsp)
    2f91:	20 00 00 00 
    2f95:	c7 84 24 98 02 00 00 	movl   $0x20,0x298(%rsp)
    2f9c:	20 00 00 00 
    2fa0:	c7 84 24 b8 02 00 00 	movl   $0x20,0x2b8(%rsp)
    2fa7:	20 00 00 00 
    2fab:	c7 84 24 d8 02 00 00 	movl   $0x20,0x2d8(%rsp)
    2fb2:	20 00 00 00 
    2fb6:	c7 84 24 f8 02 00 00 	movl   $0x20,0x2f8(%rsp)
    2fbd:	20 00 00 00 
    2fc1:	c7 84 24 18 03 00 00 	movl   $0x20,0x318(%rsp)
    2fc8:	20 00 00 00 
    2fcc:	c7 84 24 38 03 00 00 	movl   $0x20,0x338(%rsp)
    2fd3:	20 00 00 00 
    2fd7:	c7 84 24 58 03 00 00 	movl   $0x20,0x358(%rsp)
    2fde:	20 00 00 00 
    2fe2:	c7 84 24 78 03 00 00 	movl   $0x20,0x378(%rsp)
    2fe9:	20 00 00 00 
    2fed:	c7 84 24 98 03 00 00 	movl   $0x20,0x398(%rsp)
    2ff4:	20 00 00 00 
    2ff8:	c7 84 24 b8 03 00 00 	movl   $0x20,0x3b8(%rsp)
    2fff:	20 00 00 00 
    3003:	c7 84 24 d8 03 00 00 	movl   $0x20,0x3d8(%rsp)
    300a:	20 00 00 00 
    300e:	c7 84 24 f8 03 00 00 	movl   $0x20,0x3f8(%rsp)
    3015:	20 00 00 00 
    3019:	c7 04 24 00 00 00 00 	movl   $0x0,(%rsp)
    3020:	89 7c 24 04          	mov    %edi,0x4(%rsp)
    3024:	89 74 24 08          	mov    %esi,0x8(%rsp)
    3028:	48 89 54 24 10       	mov    %rdx,0x10(%rsp)
    302d:	4c 8d 3d 5c fa ff ff 	lea    -0x5a4(%rip),%r15        # 2a90 <_Z11thread_funcPv>
    3034:	48 8d bc 24 00 04 00 	lea    0x400(%rsp),%rdi
    303b:	00 
    303c:	48 89 e1             	mov    %rsp,%rcx
    303f:	31 f6                	xor    %esi,%esi
    3041:	4c 89 fa             	mov    %r15,%rdx
    3044:	e8 c7 f1 ff ff       	call   2210 <pthread_create@plt>
    3049:	48 8d 4c 24 20       	lea    0x20(%rsp),%rcx
    304e:	c7 44 24 20 01 00 00 	movl   $0x1,0x20(%rsp)
    3055:	00 
    3056:	44 89 74 24 24       	mov    %r14d,0x24(%rsp)
    305b:	89 6c 24 28          	mov    %ebp,0x28(%rsp)
    305f:	48 89 5c 24 30       	mov    %rbx,0x30(%rsp)
    3064:	48 8d bc 24 08 04 00 	lea    0x408(%rsp),%rdi
    306b:	00 
    306c:	31 f6                	xor    %esi,%esi
    306e:	4c 89 fa             	mov    %r15,%rdx
    3071:	e8 9a f1 ff ff       	call   2210 <pthread_create@plt>
    3076:	48 8d 4c 24 40       	lea    0x40(%rsp),%rcx
    307b:	c7 44 24 40 02 00 00 	movl   $0x2,0x40(%rsp)
    3082:	00 
    3083:	44 89 74 24 44       	mov    %r14d,0x44(%rsp)
    3088:	89 6c 24 48          	mov    %ebp,0x48(%rsp)
    308c:	48 89 5c 24 50       	mov    %rbx,0x50(%rsp)
    3091:	48 8d bc 24 10 04 00 	lea    0x410(%rsp),%rdi
    3098:	00 
    3099:	31 f6                	xor    %esi,%esi
    309b:	4c 89 fa             	mov    %r15,%rdx
    309e:	e8 6d f1 ff ff       	call   2210 <pthread_create@plt>
    30a3:	48 8d 4c 24 60       	lea    0x60(%rsp),%rcx
    30a8:	c7 44 24 60 03 00 00 	movl   $0x3,0x60(%rsp)
    30af:	00 
    30b0:	44 89 74 24 64       	mov    %r14d,0x64(%rsp)
    30b5:	89 6c 24 68          	mov    %ebp,0x68(%rsp)
    30b9:	48 89 5c 24 70       	mov    %rbx,0x70(%rsp)
    30be:	48 8d bc 24 18 04 00 	lea    0x418(%rsp),%rdi
    30c5:	00 
    30c6:	31 f6                	xor    %esi,%esi
    30c8:	4c 89 fa             	mov    %r15,%rdx
    30cb:	e8 40 f1 ff ff       	call   2210 <pthread_create@plt>
    30d0:	48 8d 8c 24 80 00 00 	lea    0x80(%rsp),%rcx
    30d7:	00 
    30d8:	c7 84 24 80 00 00 00 	movl   $0x4,0x80(%rsp)
    30df:	04 00 00 00 
    30e3:	44 89 b4 24 84 00 00 	mov    %r14d,0x84(%rsp)
    30ea:	00 
    30eb:	89 ac 24 88 00 00 00 	mov    %ebp,0x88(%rsp)
    30f2:	48 89 9c 24 90 00 00 	mov    %rbx,0x90(%rsp)
    30f9:	00 
    30fa:	48 8d bc 24 20 04 00 	lea    0x420(%rsp),%rdi
    3101:	00 
    3102:	31 f6                	xor    %esi,%esi
    3104:	4c 89 fa             	mov    %r15,%rdx
    3107:	e8 04 f1 ff ff       	call   2210 <pthread_create@plt>
    310c:	48 8d 8c 24 a0 00 00 	lea    0xa0(%rsp),%rcx
    3113:	00 
    3114:	c7 84 24 a0 00 00 00 	movl   $0x5,0xa0(%rsp)
    311b:	05 00 00 00 
    311f:	44 89 b4 24 a4 00 00 	mov    %r14d,0xa4(%rsp)
    3126:	00 
    3127:	89 ac 24 a8 00 00 00 	mov    %ebp,0xa8(%rsp)
    312e:	48 89 9c 24 b0 00 00 	mov    %rbx,0xb0(%rsp)
    3135:	00 
    3136:	48 8d bc 24 28 04 00 	lea    0x428(%rsp),%rdi
    313d:	00 
    313e:	31 f6                	xor    %esi,%esi
    3140:	4c 89 fa             	mov    %r15,%rdx
    3143:	e8 c8 f0 ff ff       	call   2210 <pthread_create@plt>
    3148:	48 8d 8c 24 c0 00 00 	lea    0xc0(%rsp),%rcx
    314f:	00 
    3150:	c7 84 24 c0 00 00 00 	movl   $0x6,0xc0(%rsp)
    3157:	06 00 00 00 
    315b:	44 89 b4 24 c4 00 00 	mov    %r14d,0xc4(%rsp)
    3162:	00 
    3163:	89 ac 24 c8 00 00 00 	mov    %ebp,0xc8(%rsp)
    316a:	48 89 9c 24 d0 00 00 	mov    %rbx,0xd0(%rsp)
    3171:	00 
    3172:	48 8d bc 24 30 04 00 	lea    0x430(%rsp),%rdi
    3179:	00 
    317a:	31 f6                	xor    %esi,%esi
    317c:	4c 89 fa             	mov    %r15,%rdx
    317f:	e8 8c f0 ff ff       	call   2210 <pthread_create@plt>
    3184:	48 8d 8c 24 e0 00 00 	lea    0xe0(%rsp),%rcx
    318b:	00 
    318c:	c7 84 24 e0 00 00 00 	movl   $0x7,0xe0(%rsp)
    3193:	07 00 00 00 
    3197:	44 89 b4 24 e4 00 00 	mov    %r14d,0xe4(%rsp)
    319e:	00 
    319f:	89 ac 24 e8 00 00 00 	mov    %ebp,0xe8(%rsp)
    31a6:	48 89 9c 24 f0 00 00 	mov    %rbx,0xf0(%rsp)
    31ad:	00 
    31ae:	48 8d bc 24 38 04 00 	lea    0x438(%rsp),%rdi
    31b5:	00 
    31b6:	31 f6                	xor    %esi,%esi
    31b8:	4c 89 fa             	mov    %r15,%rdx
    31bb:	e8 50 f0 ff ff       	call   2210 <pthread_create@plt>
    31c0:	48 8b bc 24 00 04 00 	mov    0x400(%rsp),%rdi
    31c7:	00 
    31c8:	31 f6                	xor    %esi,%esi
    31ca:	e8 31 ef ff ff       	call   2100 <pthread_join@plt>
    31cf:	48 8b bc 24 08 04 00 	mov    0x408(%rsp),%rdi
    31d6:	00 
    31d7:	31 f6                	xor    %esi,%esi
    31d9:	e8 22 ef ff ff       	call   2100 <pthread_join@plt>
    31de:	48 8b bc 24 10 04 00 	mov    0x410(%rsp),%rdi
    31e5:	00 
    31e6:	31 f6                	xor    %esi,%esi
    31e8:	e8 13 ef ff ff       	call   2100 <pthread_join@plt>
    31ed:	48 8b bc 24 18 04 00 	mov    0x418(%rsp),%rdi
    31f4:	00 
    31f5:	31 f6                	xor    %esi,%esi
    31f7:	e8 04 ef ff ff       	call   2100 <pthread_join@plt>
    31fc:	48 8b bc 24 20 04 00 	mov    0x420(%rsp),%rdi
    3203:	00 
    3204:	31 f6                	xor    %esi,%esi
    3206:	e8 f5 ee ff ff       	call   2100 <pthread_join@plt>
    320b:	48 8b bc 24 28 04 00 	mov    0x428(%rsp),%rdi
    3212:	00 
    3213:	31 f6                	xor    %esi,%esi
    3215:	e8 e6 ee ff ff       	call   2100 <pthread_join@plt>
    321a:	48 8b bc 24 30 04 00 	mov    0x430(%rsp),%rdi
    3221:	00 
    3222:	31 f6                	xor    %esi,%esi
    3224:	e8 d7 ee ff ff       	call   2100 <pthread_join@plt>
    3229:	48 8b bc 24 38 04 00 	mov    0x438(%rsp),%rdi
    3230:	00 
    3231:	31 f6                	xor    %esi,%esi
    3233:	e8 c8 ee ff ff       	call   2100 <pthread_join@plt>
    3238:	48 81 c4 08 05 00 00 	add    $0x508,%rsp
    323f:	5b                   	pop    %rbx
    3240:	41 5e                	pop    %r14
    3242:	41 5f                	pop    %r15
    3244:	5d                   	pop    %rbp
    3245:	c3                   	ret
    3246:	66 2e 0f 1f 84 00 00 	cs nopw 0x0(%rax,%rax,1)
    324d:	00 00 00 

0000000000003250 <_Z47mandelbrot_cpu_vector_multicore_multithread_ilpjjPj>:
    3250:	c3                   	ret
    3251:	66 66 66 66 66 66 2e 	data16 data16 data16 data16 data16 cs nopw 0x0(%rax,%rax,1)
    3258:	0f 1f 84 00 00 00 00 
    325f:	00 

0000000000003260 <_Z20ParseArgsAndMakeSpeciPPcPjS1_P14MandelbrotImpl>:
    3260:	55                   	push   %rbp
    3261:	41 57                	push   %r15
    3263:	41 56                	push   %r14
    3265:	41 55                	push   %r13
    3267:	41 54                	push   %r12
    3269:	53                   	push   %rbx
    326a:	48 83 ec 18          	sub    $0x18,%rsp
    326e:	48 89 4c 24 08       	mov    %rcx,0x8(%rsp)
    3273:	48 89 54 24 10       	mov    %rdx,0x10(%rsp)
    3278:	83 ff 02             	cmp    $0x2,%edi
    327b:	0f 8c e1 01 00 00    	jl     3462 <_Z20ParseArgsAndMakeSpeciPPcPjS1_P14MandelbrotImpl+0x202>
    3281:	4d 89 c4             	mov    %r8,%r12
    3284:	49 89 f7             	mov    %rsi,%r15
    3287:	89 fd                	mov    %edi,%ebp
    3289:	bb 01 00 00 00       	mov    $0x1,%ebx
    328e:	41 be 02 00 00 00    	mov    $0x2,%r14d
    3294:	eb 27                	jmp    32bd <_Z20ParseArgsAndMakeSpeciPPcPjS1_P14MandelbrotImpl+0x5d>
    3296:	66 2e 0f 1f 84 00 00 	cs nopw 0x0(%rax,%rax,1)
    329d:	00 00 00 
    32a0:	41 c7 04 24 00 00 00 	movl   $0x0,(%r12)
    32a7:	00 
    32a8:	ff c3                	inc    %ebx
    32aa:	41 8d 46 02          	lea    0x2(%r14),%eax
    32ae:	41 ff c6             	inc    %r14d
    32b1:	41 39 ee             	cmp    %ebp,%r14d
    32b4:	41 89 c6             	mov    %eax,%r14d
    32b7:	0f 8d a5 01 00 00    	jge    3462 <_Z20ParseArgsAndMakeSpeciPPcPjS1_P14MandelbrotImpl+0x202>
    32bd:	41 8d 46 ff          	lea    -0x1(%r14),%eax
    32c1:	4c 63 e8             	movslq %eax,%r13
    32c4:	4b 8b 04 ef          	mov    (%r15,%r13,8),%rax
    32c8:	80 38 2d             	cmpb   $0x2d,(%rax)
    32cb:	0f 85 3f 02 00 00    	jne    3510 <_Z20ParseArgsAndMakeSpeciPPcPjS1_P14MandelbrotImpl+0x2b0>
    32d1:	80 78 01 72          	cmpb   $0x72,0x1(%rax)
    32d5:	75 0a                	jne    32e1 <_Z20ParseArgsAndMakeSpeciPPcPjS1_P14MandelbrotImpl+0x81>
    32d7:	80 78 02 00          	cmpb   $0x0,0x2(%rax)
    32db:	0f 84 e4 00 00 00    	je     33c5 <_Z20ParseArgsAndMakeSpeciPPcPjS1_P14MandelbrotImpl+0x165>
    32e1:	80 78 01 62          	cmpb   $0x62,0x1(%rax)
    32e5:	75 0a                	jne    32f1 <_Z20ParseArgsAndMakeSpeciPPcPjS1_P14MandelbrotImpl+0x91>
    32e7:	80 78 02 00          	cmpb   $0x0,0x2(%rax)
    32eb:	0f 84 06 01 00 00    	je     33f7 <_Z20ParseArgsAndMakeSpeciPPcPjS1_P14MandelbrotImpl+0x197>
    32f1:	80 78 01 69          	cmpb   $0x69,0x1(%rax)
    32f5:	0f 85 15 02 00 00    	jne    3510 <_Z20ParseArgsAndMakeSpeciPPcPjS1_P14MandelbrotImpl+0x2b0>
    32fb:	80 78 02 00          	cmpb   $0x0,0x2(%rax)
    32ff:	0f 85 0b 02 00 00    	jne    3510 <_Z20ParseArgsAndMakeSpeciPPcPjS1_P14MandelbrotImpl+0x2b0>
    3305:	41 39 ee             	cmp    %ebp,%r14d
    3308:	0f 8d 89 02 00 00    	jge    3597 <_Z20ParseArgsAndMakeSpeciPPcPjS1_P14MandelbrotImpl+0x337>
    330e:	ff c3                	inc    %ebx
    3310:	49 63 c6             	movslq %r14d,%rax
    3313:	4d 8b 2c c7          	mov    (%r15,%rax,8),%r13
    3317:	4c 89 ef             	mov    %r13,%rdi
    331a:	48 8d 35 b1 81 00 00 	lea    0x81b1(%rip),%rsi        # b4d2 <_IO_stdin_used+0x4d2>
    3321:	e8 7a ee ff ff       	call   21a0 <strcmp@plt>
    3326:	85 c0                	test   %eax,%eax
    3328:	0f 84 72 ff ff ff    	je     32a0 <_Z20ParseArgsAndMakeSpeciPPcPjS1_P14MandelbrotImpl+0x40>
    332e:	4c 89 ef             	mov    %r13,%rdi
    3331:	48 8d 35 e4 81 00 00 	lea    0x81e4(%rip),%rsi        # b51c <_IO_stdin_used+0x51c>
    3338:	e8 63 ee ff ff       	call   21a0 <strcmp@plt>
    333d:	85 c0                	test   %eax,%eax
    333f:	0f 84 dc 00 00 00    	je     3421 <_Z20ParseArgsAndMakeSpeciPPcPjS1_P14MandelbrotImpl+0x1c1>
    3345:	4c 89 ef             	mov    %r13,%rdi
    3348:	48 8d 35 3c 82 00 00 	lea    0x823c(%rip),%rsi        # b58b <_IO_stdin_used+0x58b>
    334f:	e8 4c ee ff ff       	call   21a0 <strcmp@plt>
    3354:	85 c0                	test   %eax,%eax
    3356:	0f 84 d2 00 00 00    	je     342e <_Z20ParseArgsAndMakeSpeciPPcPjS1_P14MandelbrotImpl+0x1ce>
    335c:	4c 89 ef             	mov    %r13,%rdi
    335f:	48 8d 35 61 82 00 00 	lea    0x8261(%rip),%rsi        # b5c7 <_IO_stdin_used+0x5c7>
    3366:	e8 35 ee ff ff       	call   21a0 <strcmp@plt>
    336b:	85 c0                	test   %eax,%eax
    336d:	0f 84 c8 00 00 00    	je     343b <_Z20ParseArgsAndMakeSpeciPPcPjS1_P14MandelbrotImpl+0x1db>
    3373:	4c 89 ef             	mov    %r13,%rdi
    3376:	48 8d 35 92 82 00 00 	lea    0x8292(%rip),%rsi        # b60f <_IO_stdin_used+0x60f>
    337d:	e8 1e ee ff ff       	call   21a0 <strcmp@plt>
    3382:	85 c0                	test   %eax,%eax
    3384:	0f 84 be 00 00 00    	je     3448 <_Z20ParseArgsAndMakeSpeciPPcPjS1_P14MandelbrotImpl+0x1e8>
    338a:	4c 89 ef             	mov    %r13,%rdi
    338d:	48 8d 35 db 82 00 00 	lea    0x82db(%rip),%rsi        # b66f <_IO_stdin_used+0x66f>
    3394:	e8 07 ee ff ff       	call   21a0 <strcmp@plt>
    3399:	85 c0                	test   %eax,%eax
    339b:	0f 84 b4 00 00 00    	je     3455 <_Z20ParseArgsAndMakeSpeciPPcPjS1_P14MandelbrotImpl+0x1f5>
    33a1:	4c 89 ef             	mov    %r13,%rdi
    33a4:	48 8d 35 8b 80 00 00 	lea    0x808b(%rip),%rsi        # b436 <_IO_stdin_used+0x436>
    33ab:	e8 f0 ed ff ff       	call   21a0 <strcmp@plt>
    33b0:	85 c0                	test   %eax,%eax
    33b2:	0f 85 90 02 00 00    	jne    3648 <_Z20ParseArgsAndMakeSpeciPPcPjS1_P14MandelbrotImpl+0x3e8>
    33b8:	41 c7 04 24 06 00 00 	movl   $0x6,(%r12)
    33bf:	00 
    33c0:	e9 e3 fe ff ff       	jmp    32a8 <_Z20ParseArgsAndMakeSpeciPPcPjS1_P14MandelbrotImpl+0x48>
    33c5:	41 39 ee             	cmp    %ebp,%r14d
    33c8:	0f 8d d9 01 00 00    	jge    35a7 <_Z20ParseArgsAndMakeSpeciPPcPjS1_P14MandelbrotImpl+0x347>
    33ce:	49 63 c6             	movslq %r14d,%rax
    33d1:	49 8b 3c c7          	mov    (%r15,%rax,8),%rdi
    33d5:	31 f6                	xor    %esi,%esi
    33d7:	ba 0a 00 00 00       	mov    $0xa,%edx
    33dc:	e8 3f ee ff ff       	call   2220 <__isoc23_strtol@plt>
    33e1:	48 8b 4c 24 10       	mov    0x10(%rsp),%rcx
    33e6:	89 01                	mov    %eax,(%rcx)
    33e8:	a8 1f                	test   $0x1f,%al
    33ea:	0f 85 c7 01 00 00    	jne    35b7 <_Z20ParseArgsAndMakeSpeciPPcPjS1_P14MandelbrotImpl+0x357>
    33f0:	ff c3                	inc    %ebx
    33f2:	e9 b1 fe ff ff       	jmp    32a8 <_Z20ParseArgsAndMakeSpeciPPcPjS1_P14MandelbrotImpl+0x48>
    33f7:	41 39 ee             	cmp    %ebp,%r14d
    33fa:	0f 8d cc 01 00 00    	jge    35cc <_Z20ParseArgsAndMakeSpeciPPcPjS1_P14MandelbrotImpl+0x36c>
    3400:	ff c3                	inc    %ebx
    3402:	49 63 c6             	movslq %r14d,%rax
    3405:	49 8b 3c c7          	mov    (%r15,%rax,8),%rdi
    3409:	31 f6                	xor    %esi,%esi
    340b:	ba 0a 00 00 00       	mov    $0xa,%edx
    3410:	e8 0b ee ff ff       	call   2220 <__isoc23_strtol@plt>
    3415:	48 8b 4c 24 08       	mov    0x8(%rsp),%rcx
    341a:	89 01                	mov    %eax,(%rcx)
    341c:	e9 87 fe ff ff       	jmp    32a8 <_Z20ParseArgsAndMakeSpeciPPcPjS1_P14MandelbrotImpl+0x48>
    3421:	41 c7 04 24 01 00 00 	movl   $0x1,(%r12)
    3428:	00 
    3429:	e9 7a fe ff ff       	jmp    32a8 <_Z20ParseArgsAndMakeSpeciPPcPjS1_P14MandelbrotImpl+0x48>
    342e:	41 c7 04 24 02 00 00 	movl   $0x2,(%r12)
    3435:	00 
    3436:	e9 6d fe ff ff       	jmp    32a8 <_Z20ParseArgsAndMakeSpeciPPcPjS1_P14MandelbrotImpl+0x48>
    343b:	41 c7 04 24 03 00 00 	movl   $0x3,(%r12)
    3442:	00 
    3443:	e9 60 fe ff ff       	jmp    32a8 <_Z20ParseArgsAndMakeSpeciPPcPjS1_P14MandelbrotImpl+0x48>
    3448:	41 c7 04 24 04 00 00 	movl   $0x4,(%r12)
    344f:	00 
    3450:	e9 53 fe ff ff       	jmp    32a8 <_Z20ParseArgsAndMakeSpeciPPcPjS1_P14MandelbrotImpl+0x48>
    3455:	41 c7 04 24 05 00 00 	movl   $0x5,(%r12)
    345c:	00 
    345d:	e9 46 fe ff ff       	jmp    32a8 <_Z20ParseArgsAndMakeSpeciPPcPjS1_P14MandelbrotImpl+0x48>
    3462:	4c 8b 3d 4f 9b 00 00 	mov    0x9b4f(%rip),%r15        # cfb8 <_ZSt4cout@GLIBCXX_3.4>
    3469:	48 8d 35 18 80 00 00 	lea    0x8018(%rip),%rsi        # b488 <_IO_stdin_used+0x488>
    3470:	ba 18 00 00 00       	mov    $0x18,%edx
    3475:	4c 89 ff             	mov    %r15,%rdi
    3478:	e8 c3 ec ff ff       	call   2140 <_ZSt16__ostream_insertIcSt11char_traitsIcEERSt13basic_ostreamIT_T0_ES6_PKS3_l@plt>
    347d:	48 8b 5c 24 10       	mov    0x10(%rsp),%rbx
    3482:	8b 33                	mov    (%rbx),%esi
    3484:	4c 89 ff             	mov    %r15,%rdi
    3487:	e8 24 ec ff ff       	call   20b0 <_ZNSo9_M_insertImEERSoT_@plt>
    348c:	49 89 c7             	mov    %rax,%r15
    348f:	48 8d 35 0b 80 00 00 	lea    0x800b(%rip),%rsi        # b4a1 <_IO_stdin_used+0x4a1>
    3496:	ba 01 00 00 00       	mov    $0x1,%edx
    349b:	48 89 c7             	mov    %rax,%rdi
    349e:	e8 9d ec ff ff       	call   2140 <_ZSt16__ostream_insertIcSt11char_traitsIcEERSt13basic_ostreamIT_T0_ES6_PKS3_l@plt>
    34a3:	8b 33                	mov    (%rbx),%esi
    34a5:	4c 89 ff             	mov    %r15,%rdi
    34a8:	e8 03 ec ff ff       	call   20b0 <_ZNSo9_M_insertImEERSoT_@plt>
    34ad:	49 89 c6             	mov    %rax,%r14
    34b0:	48 8d 35 ec 7f 00 00 	lea    0x7fec(%rip),%rsi        # b4a3 <_IO_stdin_used+0x4a3>
    34b7:	ba 05 00 00 00       	mov    $0x5,%edx
    34bc:	48 89 c7             	mov    %rax,%rdi
    34bf:	e8 7c ec ff ff       	call   2140 <_ZSt16__ostream_insertIcSt11char_traitsIcEERSt13basic_ostreamIT_T0_ES6_PKS3_l@plt>
    34c4:	48 8b 44 24 08       	mov    0x8(%rsp),%rax
    34c9:	8b 30                	mov    (%rax),%esi
    34cb:	4c 89 f7             	mov    %r14,%rdi
    34ce:	e8 dd eb ff ff       	call   20b0 <_ZNSo9_M_insertImEERSoT_@plt>
    34d3:	48 89 c3             	mov    %rax,%rbx
    34d6:	48 8d 35 cc 7f 00 00 	lea    0x7fcc(%rip),%rsi        # b4a9 <_IO_stdin_used+0x4a9>
    34dd:	ba 10 00 00 00       	mov    $0x10,%edx
    34e2:	48 89 c7             	mov    %rax,%rdi
    34e5:	e8 56 ec ff ff       	call   2140 <_ZSt16__ostream_insertIcSt11char_traitsIcEERSt13basic_ostreamIT_T0_ES6_PKS3_l@plt>
    34ea:	48 8b 03             	mov    (%rbx),%rax
    34ed:	48 8b 40 e8          	mov    -0x18(%rax),%rax
    34f1:	4c 8b b4 03 f0 00 00 	mov    0xf0(%rbx,%rax,1),%r14
    34f8:	00 
    34f9:	4d 85 f6             	test   %r14,%r14
    34fc:	0f 84 6b 01 00 00    	je     366d <_Z20ParseArgsAndMakeSpeciPPcPjS1_P14MandelbrotImpl+0x40d>
    3502:	41 80 7e 38 00       	cmpb   $0x0,0x38(%r14)
    3507:	74 45                	je     354e <_Z20ParseArgsAndMakeSpeciPPcPjS1_P14MandelbrotImpl+0x2ee>
    3509:	41 0f b6 46 43       	movzbl 0x43(%r14),%eax
    350e:	eb 54                	jmp    3564 <_Z20ParseArgsAndMakeSpeciPPcPjS1_P14MandelbrotImpl+0x304>
    3510:	48 8b 1d c1 9a 00 00 	mov    0x9ac1(%rip),%rbx        # cfd8 <_ZSt4cerr@GLIBCXX_3.4>
    3517:	48 8d 35 5b 7f 00 00 	lea    0x7f5b(%rip),%rsi        # b479 <_IO_stdin_used+0x479>
    351e:	ba 0e 00 00 00       	mov    $0xe,%edx
    3523:	48 89 df             	mov    %rbx,%rdi
    3526:	e8 15 ec ff ff       	call   2140 <_ZSt16__ostream_insertIcSt11char_traitsIcEERSt13basic_ostreamIT_T0_ES6_PKS3_l@plt>
    352b:	4f 8b 34 ef          	mov    (%r15,%r13,8),%r14
    352f:	4d 85 f6             	test   %r14,%r14
    3532:	74 4a                	je     357e <_Z20ParseArgsAndMakeSpeciPPcPjS1_P14MandelbrotImpl+0x31e>
    3534:	4c 89 f7             	mov    %r14,%rdi
    3537:	e8 34 eb ff ff       	call   2070 <strlen@plt>
    353c:	48 8b 3d 95 9a 00 00 	mov    0x9a95(%rip),%rdi        # cfd8 <_ZSt4cerr@GLIBCXX_3.4>
    3543:	4c 89 f6             	mov    %r14,%rsi
    3546:	48 89 c2             	mov    %rax,%rdx
    3549:	e9 94 00 00 00       	jmp    35e2 <_Z20ParseArgsAndMakeSpeciPPcPjS1_P14MandelbrotImpl+0x382>
    354e:	4c 89 f7             	mov    %r14,%rdi
    3551:	e8 fa eb ff ff       	call   2150 <_ZNKSt5ctypeIcE13_M_widen_initEv@plt>
    3556:	49 8b 06             	mov    (%r14),%rax
    3559:	4c 89 f7             	mov    %r14,%rdi
    355c:	be 0a 00 00 00       	mov    $0xa,%esi
    3561:	ff 50 30             	call   *0x30(%rax)
    3564:	0f be f0             	movsbl %al,%esi
    3567:	48 89 df             	mov    %rbx,%rdi
    356a:	e8 c1 ea ff ff       	call   2030 <_ZNSo3putEc@plt>
    356f:	48 89 c7             	mov    %rax,%rdi
    3572:	e8 49 eb ff ff       	call   20c0 <_ZNSo5flushEv@plt>
    3577:	31 c0                	xor    %eax,%eax
    3579:	e9 bb 00 00 00       	jmp    3639 <_Z20ParseArgsAndMakeSpeciPPcPjS1_P14MandelbrotImpl+0x3d9>
    357e:	48 8b 03             	mov    (%rbx),%rax
    3581:	48 8b 40 e8          	mov    -0x18(%rax),%rax
    3585:	48 8d 3c 03          	lea    (%rbx,%rax,1),%rdi
    3589:	8b 74 03 20          	mov    0x20(%rbx,%rax,1),%esi
    358d:	83 ce 01             	or     $0x1,%esi
    3590:	e8 5b ec ff ff       	call   21f0 <_ZNSt9basic_iosIcSt11char_traitsIcEE5clearESt12_Ios_Iostate@plt>
    3595:	eb 50                	jmp    35e7 <_Z20ParseArgsAndMakeSpeciPPcPjS1_P14MandelbrotImpl+0x387>
    3597:	48 8b 1d 3a 9a 00 00 	mov    0x9a3a(%rip),%rbx        # cfd8 <_ZSt4cerr@GLIBCXX_3.4>
    359e:	48 8d 35 b3 7e 00 00 	lea    0x7eb3(%rip),%rsi        # b458 <_IO_stdin_used+0x458>
    35a5:	eb 33                	jmp    35da <_Z20ParseArgsAndMakeSpeciPPcPjS1_P14MandelbrotImpl+0x37a>
    35a7:	48 8b 1d 2a 9a 00 00 	mov    0x9a2a(%rip),%rbx        # cfd8 <_ZSt4cerr@GLIBCXX_3.4>
    35ae:	48 8d 35 3f 7e 00 00 	lea    0x7e3f(%rip),%rsi        # b3f4 <_IO_stdin_used+0x3f4>
    35b5:	eb 23                	jmp    35da <_Z20ParseArgsAndMakeSpeciPPcPjS1_P14MandelbrotImpl+0x37a>
    35b7:	48 8b 1d 1a 9a 00 00 	mov    0x9a1a(%rip),%rbx        # cfd8 <_ZSt4cerr@GLIBCXX_3.4>
    35be:	48 8d 35 03 7e 00 00 	lea    0x7e03(%rip),%rsi        # b3c8 <_IO_stdin_used+0x3c8>
    35c5:	ba 2b 00 00 00       	mov    $0x2b,%edx
    35ca:	eb 13                	jmp    35df <_Z20ParseArgsAndMakeSpeciPPcPjS1_P14MandelbrotImpl+0x37f>
    35cc:	48 8b 1d 05 9a 00 00 	mov    0x9a05(%rip),%rbx        # cfd8 <_ZSt4cerr@GLIBCXX_3.4>
    35d3:	48 8d 35 3b 7e 00 00 	lea    0x7e3b(%rip),%rsi        # b415 <_IO_stdin_used+0x415>
    35da:	ba 20 00 00 00       	mov    $0x20,%edx
    35df:	48 89 df             	mov    %rbx,%rdi
    35e2:	e8 59 eb ff ff       	call   2140 <_ZSt16__ostream_insertIcSt11char_traitsIcEERSt13basic_ostreamIT_T0_ES6_PKS3_l@plt>
    35e7:	48 8b 03             	mov    (%rbx),%rax
    35ea:	48 8b 40 e8          	mov    -0x18(%rax),%rax
    35ee:	48 8b 9c 03 f0 00 00 	mov    0xf0(%rbx,%rax,1),%rbx
    35f5:	00 
    35f6:	48 85 db             	test   %rbx,%rbx
    35f9:	74 72                	je     366d <_Z20ParseArgsAndMakeSpeciPPcPjS1_P14MandelbrotImpl+0x40d>
    35fb:	80 7b 38 00          	cmpb   $0x0,0x38(%rbx)
    35ff:	74 06                	je     3607 <_Z20ParseArgsAndMakeSpeciPPcPjS1_P14MandelbrotImpl+0x3a7>
    3601:	0f b6 43 43          	movzbl 0x43(%rbx),%eax
    3605:	eb 16                	jmp    361d <_Z20ParseArgsAndMakeSpeciPPcPjS1_P14MandelbrotImpl+0x3bd>
    3607:	48 89 df             	mov    %rbx,%rdi
    360a:	e8 41 eb ff ff       	call   2150 <_ZNKSt5ctypeIcE13_M_widen_initEv@plt>
    360f:	48 8b 03             	mov    (%rbx),%rax
    3612:	48 89 df             	mov    %rbx,%rdi
    3615:	be 0a 00 00 00       	mov    $0xa,%esi
    361a:	ff 50 30             	call   *0x30(%rax)
    361d:	0f be f0             	movsbl %al,%esi
    3620:	48 8b 3d b1 99 00 00 	mov    0x99b1(%rip),%rdi        # cfd8 <_ZSt4cerr@GLIBCXX_3.4>
    3627:	e8 04 ea ff ff       	call   2030 <_ZNSo3putEc@plt>
    362c:	48 89 c7             	mov    %rax,%rdi
    362f:	e8 8c ea ff ff       	call   20c0 <_ZNSo5flushEv@plt>
    3634:	b8 01 00 00 00       	mov    $0x1,%eax
    3639:	48 83 c4 18          	add    $0x18,%rsp
    363d:	5b                   	pop    %rbx
    363e:	41 5c                	pop    %r12
    3640:	41 5d                	pop    %r13
    3642:	41 5e                	pop    %r14
    3644:	41 5f                	pop    %r15
    3646:	5d                   	pop    %rbp
    3647:	c3                   	ret
    3648:	48 8b 1d 89 99 00 00 	mov    0x9989(%rip),%rbx        # cfd8 <_ZSt4cerr@GLIBCXX_3.4>
    364f:	48 8d 35 e4 7d 00 00 	lea    0x7de4(%rip),%rsi        # b43a <_IO_stdin_used+0x43a>
    3656:	ba 1d 00 00 00       	mov    $0x1d,%edx
    365b:	48 89 df             	mov    %rbx,%rdi
    365e:	e8 dd ea ff ff       	call   2140 <_ZSt16__ostream_insertIcSt11char_traitsIcEERSt13basic_ostreamIT_T0_ES6_PKS3_l@plt>
    3663:	48 89 df             	mov    %rbx,%rdi
    3666:	e8 15 ea ff ff       	call   2080 <_ZSt4endlIcSt11char_traitsIcEERSt13basic_ostreamIT_T0_ES6_@plt>
    366b:	eb c7                	jmp    3634 <_Z20ParseArgsAndMakeSpeciPPcPjS1_P14MandelbrotImpl+0x3d4>
    366d:	e8 ee ea ff ff       	call   2160 <_ZSt16__throw_bad_castv@plt>
    3672:	66 66 66 66 66 2e 0f 	data16 data16 data16 data16 cs nopw 0x0(%rax,%rax,1)
    3679:	1f 84 00 00 00 00 00 

0000000000003680 <_Z8writeBMPPKcjRKSt6vectorIhSaIhEE>:
    3680:	41 56                	push   %r14
    3682:	53                   	push   %rbx
    3683:	48 81 ec 38 02 00 00 	sub    $0x238,%rsp
    368a:	48 89 d3             	mov    %rdx,%rbx
    368d:	48 89 f8             	mov    %rdi,%rax
    3690:	66 c7 44 24 02 42 4d 	movw   $0x4d42,0x2(%rsp)
    3697:	48 c7 44 24 04 00 00 	movq   $0x0,0x4(%rsp)
    369e:	00 00 
    36a0:	48 b9 36 00 00 00 28 	movabs $0x2800000036,%rcx
    36a7:	00 00 00 
    36aa:	48 89 4c 24 0c       	mov    %rcx,0xc(%rsp)
    36af:	c7 44 24 1c 01 00 18 	movl   $0x180001,0x1c(%rsp)
    36b6:	00 
    36b7:	c5 f8 57 c0          	vxorps %xmm0,%xmm0,%xmm0
    36bb:	c5 f8 11 44 24 20    	vmovups %xmm0,0x20(%rsp)
    36c1:	48 c7 44 24 30 00 00 	movq   $0x0,0x30(%rsp)
    36c8:	00 00 
    36ca:	89 74 24 14          	mov    %esi,0x14(%rsp)
    36ce:	89 74 24 18          	mov    %esi,0x18(%rsp)
    36d2:	0f af f6             	imul   %esi,%esi
    36d5:	8d 0c 76             	lea    (%rsi,%rsi,2),%ecx
    36d8:	89 4c 24 24          	mov    %ecx,0x24(%rsp)
    36dc:	8d 0c 76             	lea    (%rsi,%rsi,2),%ecx
    36df:	83 c1 36             	add    $0x36,%ecx
    36e2:	89 4c 24 04          	mov    %ecx,0x4(%rsp)
    36e6:	4c 8d 74 24 38       	lea    0x38(%rsp),%r14
    36eb:	4c 89 f7             	mov    %r14,%rdi
    36ee:	48 89 c6             	mov    %rax,%rsi
    36f1:	ba 04 00 00 00       	mov    $0x4,%edx
    36f6:	e8 35 ea ff ff       	call   2130 <_ZNSt14basic_ofstreamIcSt11char_traitsIcEEC1EPKcSt13_Ios_Openmode@plt>
    36fb:	48 8d 74 24 02       	lea    0x2(%rsp),%rsi
    3700:	ba 36 00 00 00       	mov    $0x36,%edx
    3705:	4c 89 f7             	mov    %r14,%rdi
    3708:	e8 73 ea ff ff       	call   2180 <_ZNSo5writeEPKcl@plt>
    370d:	48 8b 33             	mov    (%rbx),%rsi
    3710:	48 8b 53 08          	mov    0x8(%rbx),%rdx
    3714:	48 29 f2             	sub    %rsi,%rdx
    3717:	48 8d 7c 24 38       	lea    0x38(%rsp),%rdi
    371c:	e8 5f ea ff ff       	call   2180 <_ZNSo5writeEPKcl@plt>
    3721:	48 8d 7c 24 38       	lea    0x38(%rsp),%rdi
    3726:	e8 95 ea ff ff       	call   21c0 <_ZNSt14basic_ofstreamIcSt11char_traitsIcEED1Ev@plt>
    372b:	48 81 c4 38 02 00 00 	add    $0x238,%rsp
    3732:	5b                   	pop    %rbx
    3733:	41 5e                	pop    %r14
    3735:	c3                   	ret
    3736:	48 89 c3             	mov    %rax,%rbx
    3739:	48 8d 7c 24 38       	lea    0x38(%rsp),%rdi
    373e:	e8 7d ea ff ff       	call   21c0 <_ZNSt14basic_ofstreamIcSt11char_traitsIcEED1Ev@plt>
    3743:	48 89 df             	mov    %rbx,%rdi
    3746:	e8 b5 ea ff ff       	call   2200 <_Unwind_Resume@plt>
    374b:	0f 1f 44 00 00       	nopl   0x0(%rax,%rax,1)

0000000000003750 <_Z15iters_to_colorsjjRKSt6vectorIjSaIjEE>:
    3750:	55                   	push   %rbp
    3751:	41 57                	push   %r15
    3753:	41 56                	push   %r14
    3755:	41 55                	push   %r13
    3757:	41 54                	push   %r12
    3759:	53                   	push   %rbx
    375a:	48 83 ec 48          	sub    $0x48,%rsp
    375e:	48 89 4c 24 18       	mov    %rcx,0x18(%rsp)
    3763:	41 89 f7             	mov    %esi,%r15d
    3766:	49 89 fc             	mov    %rdi,%r12
    3769:	41 89 f5             	mov    %esi,%r13d
    376c:	89 54 24 04          	mov    %edx,0x4(%rsp)
    3770:	41 89 d2             	mov    %edx,%r10d
    3773:	85 f6                	test   %esi,%esi
    3775:	4c 89 7c 24 38       	mov    %r15,0x38(%rsp)
    377a:	0f 84 0d 03 00 00    	je     3a8d <_Z15iters_to_colorsjjRKSt6vectorIjSaIjEE+0x33d>
    3780:	48 8b 44 24 18       	mov    0x18(%rsp),%rax
    3785:	48 8b 00             	mov    (%rax),%rax
    3788:	49 8d 4d ff          	lea    -0x1(%r13),%rcx
    378c:	44 89 ea             	mov    %r13d,%edx
    378f:	83 e2 e0             	and    $0xffffffe0,%edx
    3792:	44 89 ee             	mov    %r13d,%esi
    3795:	83 e6 fc             	and    $0xfffffffc,%esi
    3798:	48 89 f7             	mov    %rsi,%rdi
    379b:	48 f7 df             	neg    %rdi
    379e:	45 31 c0             	xor    %r8d,%r8d
    37a1:	45 31 c9             	xor    %r9d,%r9d
    37a4:	44 8b 54 24 04       	mov    0x4(%rsp),%r10d
    37a9:	eb 14                	jmp    37bf <_Z15iters_to_colorsjjRKSt6vectorIjSaIjEE+0x6f>
    37ab:	0f 1f 44 00 00       	nopl   0x0(%rax,%rax,1)
    37b0:	41 ff c1             	inc    %r9d
    37b3:	4d 01 e8             	add    %r13,%r8
    37b6:	45 39 f9             	cmp    %r15d,%r9d
    37b9:	0f 84 ce 02 00 00    	je     3a8d <_Z15iters_to_colorsjjRKSt6vectorIjSaIjEE+0x33d>
    37bf:	41 83 ff 03          	cmp    $0x3,%r15d
    37c3:	76 20                	jbe    37e5 <_Z15iters_to_colorsjjRKSt6vectorIjSaIjEE+0x95>
    37c5:	49 89 cb             	mov    %rcx,%r11
    37c8:	49 c1 eb 20          	shr    $0x20,%r11
    37cc:	41 0f 95 c3          	setne  %r11b
    37d0:	44 89 fb             	mov    %r15d,%ebx
    37d3:	41 0f af d9          	imul   %r9d,%ebx
    37d7:	01 cb                	add    %ecx,%ebx
    37d9:	0f 92 c3             	setb   %bl
    37dc:	44 08 db             	or     %r11b,%bl
    37df:	0f 84 ab 01 00 00    	je     3990 <_Z15iters_to_colorsjjRKSt6vectorIjSaIjEE+0x240>
    37e5:	31 db                	xor    %ebx,%ebx
    37e7:	45 89 ee             	mov    %r13d,%r14d
    37ea:	41 29 de             	sub    %ebx,%r14d
    37ed:	49 89 db             	mov    %rbx,%r11
    37f0:	41 83 e6 07          	and    $0x7,%r14d
    37f4:	74 21                	je     3817 <_Z15iters_to_colorsjjRKSt6vectorIjSaIjEE+0xc7>
    37f6:	66 2e 0f 1f 84 00 00 	cs nopw 0x0(%rax,%rax,1)
    37fd:	00 00 00 
    3800:	47 8d 3c 18          	lea    (%r8,%r11,1),%r15d
    3804:	42 8b 2c b8          	mov    (%rax,%r15,4),%ebp
    3808:	44 39 d5             	cmp    %r10d,%ebp
    380b:	44 0f 42 d5          	cmovb  %ebp,%r10d
    380f:	49 ff c3             	inc    %r11
    3812:	49 ff ce             	dec    %r14
    3815:	75 e9                	jne    3800 <_Z15iters_to_colorsjjRKSt6vectorIjSaIjEE+0xb0>
    3817:	4c 29 eb             	sub    %r13,%rbx
    381a:	48 83 fb f8          	cmp    $0xfffffffffffffff8,%rbx
    381e:	4c 8b 7c 24 38       	mov    0x38(%rsp),%r15
    3823:	76 18                	jbe    383d <_Z15iters_to_colorsjjRKSt6vectorIjSaIjEE+0xed>
    3825:	eb 89                	jmp    37b0 <_Z15iters_to_colorsjjRKSt6vectorIjSaIjEE+0x60>
    3827:	66 0f 1f 84 00 00 00 	nopw   0x0(%rax,%rax,1)
    382e:	00 00 
    3830:	49 83 c3 08          	add    $0x8,%r11
    3834:	4d 39 dd             	cmp    %r11,%r13
    3837:	0f 84 73 ff ff ff    	je     37b0 <_Z15iters_to_colorsjjRKSt6vectorIjSaIjEE+0x60>
    383d:	43 8d 1c 18          	lea    (%r8,%r11,1),%ebx
    3841:	8b 1c 98             	mov    (%rax,%rbx,4),%ebx
    3844:	44 39 d3             	cmp    %r10d,%ebx
    3847:	0f 83 93 00 00 00    	jae    38e0 <_Z15iters_to_colorsjjRKSt6vectorIjSaIjEE+0x190>
    384d:	47 8d 14 18          	lea    (%r8,%r11,1),%r10d
    3851:	41 ff c2             	inc    %r10d
    3854:	46 8b 14 90          	mov    (%rax,%r10,4),%r10d
    3858:	41 39 da             	cmp    %ebx,%r10d
    385b:	0f 83 96 00 00 00    	jae    38f7 <_Z15iters_to_colorsjjRKSt6vectorIjSaIjEE+0x1a7>
    3861:	43 8d 1c 18          	lea    (%r8,%r11,1),%ebx
    3865:	83 c3 02             	add    $0x2,%ebx
    3868:	8b 1c 98             	mov    (%rax,%rbx,4),%ebx
    386b:	44 39 d3             	cmp    %r10d,%ebx
    386e:	0f 83 99 00 00 00    	jae    390d <_Z15iters_to_colorsjjRKSt6vectorIjSaIjEE+0x1bd>
    3874:	47 8d 14 18          	lea    (%r8,%r11,1),%r10d
    3878:	41 83 c2 03          	add    $0x3,%r10d
    387c:	46 8b 14 90          	mov    (%rax,%r10,4),%r10d
    3880:	41 39 da             	cmp    %ebx,%r10d
    3883:	0f 83 9c 00 00 00    	jae    3925 <_Z15iters_to_colorsjjRKSt6vectorIjSaIjEE+0x1d5>
    3889:	43 8d 1c 18          	lea    (%r8,%r11,1),%ebx
    388d:	83 c3 04             	add    $0x4,%ebx
    3890:	8b 1c 98             	mov    (%rax,%rbx,4),%ebx
    3893:	44 39 d3             	cmp    %r10d,%ebx
    3896:	0f 83 9f 00 00 00    	jae    393b <_Z15iters_to_colorsjjRKSt6vectorIjSaIjEE+0x1eb>
    389c:	47 8d 14 18          	lea    (%r8,%r11,1),%r10d
    38a0:	41 83 c2 05          	add    $0x5,%r10d
    38a4:	46 8b 14 90          	mov    (%rax,%r10,4),%r10d
    38a8:	41 39 da             	cmp    %ebx,%r10d
    38ab:	0f 83 a2 00 00 00    	jae    3953 <_Z15iters_to_colorsjjRKSt6vectorIjSaIjEE+0x203>
    38b1:	43 8d 1c 18          	lea    (%r8,%r11,1),%ebx
    38b5:	83 c3 06             	add    $0x6,%ebx
    38b8:	8b 1c 98             	mov    (%rax,%rbx,4),%ebx
    38bb:	44 39 d3             	cmp    %r10d,%ebx
    38be:	0f 83 a5 00 00 00    	jae    3969 <_Z15iters_to_colorsjjRKSt6vectorIjSaIjEE+0x219>
    38c4:	47 8d 14 18          	lea    (%r8,%r11,1),%r10d
    38c8:	41 83 c2 07          	add    $0x7,%r10d
    38cc:	46 8b 14 90          	mov    (%rax,%r10,4),%r10d
    38d0:	41 39 da             	cmp    %ebx,%r10d
    38d3:	0f 82 57 ff ff ff    	jb     3830 <_Z15iters_to_colorsjjRKSt6vectorIjSaIjEE+0xe0>
    38d9:	e9 a3 00 00 00       	jmp    3981 <_Z15iters_to_colorsjjRKSt6vectorIjSaIjEE+0x231>
    38de:	66 90                	xchg   %ax,%ax
    38e0:	44 89 d3             	mov    %r10d,%ebx
    38e3:	47 8d 14 18          	lea    (%r8,%r11,1),%r10d
    38e7:	41 ff c2             	inc    %r10d
    38ea:	46 8b 14 90          	mov    (%rax,%r10,4),%r10d
    38ee:	41 39 da             	cmp    %ebx,%r10d
    38f1:	0f 82 6a ff ff ff    	jb     3861 <_Z15iters_to_colorsjjRKSt6vectorIjSaIjEE+0x111>
    38f7:	41 89 da             	mov    %ebx,%r10d
    38fa:	43 8d 1c 18          	lea    (%r8,%r11,1),%ebx
    38fe:	83 c3 02             	add    $0x2,%ebx
    3901:	8b 1c 98             	mov    (%rax,%rbx,4),%ebx
    3904:	44 39 d3             	cmp    %r10d,%ebx
    3907:	0f 82 67 ff ff ff    	jb     3874 <_Z15iters_to_colorsjjRKSt6vectorIjSaIjEE+0x124>
    390d:	44 89 d3             	mov    %r10d,%ebx
    3910:	47 8d 14 18          	lea    (%r8,%r11,1),%r10d
    3914:	41 83 c2 03          	add    $0x3,%r10d
    3918:	46 8b 14 90          	mov    (%rax,%r10,4),%r10d
    391c:	41 39 da             	cmp    %ebx,%r10d
    391f:	0f 82 64 ff ff ff    	jb     3889 <_Z15iters_to_colorsjjRKSt6vectorIjSaIjEE+0x139>
    3925:	41 89 da             	mov    %ebx,%r10d
    3928:	43 8d 1c 18          	lea    (%r8,%r11,1),%ebx
    392c:	83 c3 04             	add    $0x4,%ebx
    392f:	8b 1c 98             	mov    (%rax,%rbx,4),%ebx
    3932:	44 39 d3             	cmp    %r10d,%ebx
    3935:	0f 82 61 ff ff ff    	jb     389c <_Z15iters_to_colorsjjRKSt6vectorIjSaIjEE+0x14c>
    393b:	44 89 d3             	mov    %r10d,%ebx
    393e:	47 8d 14 18          	lea    (%r8,%r11,1),%r10d
    3942:	41 83 c2 05          	add    $0x5,%r10d
    3946:	46 8b 14 90          	mov    (%rax,%r10,4),%r10d
    394a:	41 39 da             	cmp    %ebx,%r10d
    394d:	0f 82 5e ff ff ff    	jb     38b1 <_Z15iters_to_colorsjjRKSt6vectorIjSaIjEE+0x161>
    3953:	41 89 da             	mov    %ebx,%r10d
    3956:	43 8d 1c 18          	lea    (%r8,%r11,1),%ebx
    395a:	83 c3 06             	add    $0x6,%ebx
    395d:	8b 1c 98             	mov    (%rax,%rbx,4),%ebx
    3960:	44 39 d3             	cmp    %r10d,%ebx
    3963:	0f 82 5b ff ff ff    	jb     38c4 <_Z15iters_to_colorsjjRKSt6vectorIjSaIjEE+0x174>
    3969:	44 89 d3             	mov    %r10d,%ebx
    396c:	47 8d 14 18          	lea    (%r8,%r11,1),%r10d
    3970:	41 83 c2 07          	add    $0x7,%r10d
    3974:	46 8b 14 90          	mov    (%rax,%r10,4),%r10d
    3978:	41 39 da             	cmp    %ebx,%r10d
    397b:	0f 82 af fe ff ff    	jb     3830 <_Z15iters_to_colorsjjRKSt6vectorIjSaIjEE+0xe0>
    3981:	41 89 da             	mov    %ebx,%r10d
    3984:	e9 a7 fe ff ff       	jmp    3830 <_Z15iters_to_colorsjjRKSt6vectorIjSaIjEE+0xe0>
    3989:	0f 1f 80 00 00 00 00 	nopl   0x0(%rax)
    3990:	41 83 ff 20          	cmp    $0x20,%r15d
    3994:	73 08                	jae    399e <_Z15iters_to_colorsjjRKSt6vectorIjSaIjEE+0x24e>
    3996:	45 31 db             	xor    %r11d,%r11d
    3999:	e9 96 00 00 00       	jmp    3a34 <_Z15iters_to_colorsjjRKSt6vectorIjSaIjEE+0x2e4>
    399e:	62 d2 7d 28 7c c2    	vpbroadcastd %r10d,%ymm0
    39a4:	45 89 c2             	mov    %r8d,%r10d
    39a7:	49 89 d3             	mov    %rdx,%r11
    39aa:	c5 fd 6f c8          	vmovdqa %ymm0,%ymm1
    39ae:	c5 fd 6f d0          	vmovdqa %ymm0,%ymm2
    39b2:	c5 fd 6f d8          	vmovdqa %ymm0,%ymm3
    39b6:	66 2e 0f 1f 84 00 00 	cs nopw 0x0(%rax,%rax,1)
    39bd:	00 00 00 
    39c0:	44 89 d3             	mov    %r10d,%ebx
    39c3:	c4 e2 7d 3b 04 98    	vpminud (%rax,%rbx,4),%ymm0,%ymm0
    39c9:	c4 e2 75 3b 4c 98 20 	vpminud 0x20(%rax,%rbx,4),%ymm1,%ymm1
    39d0:	c4 e2 6d 3b 54 98 40 	vpminud 0x40(%rax,%rbx,4),%ymm2,%ymm2
    39d7:	c4 e2 65 3b 5c 98 60 	vpminud 0x60(%rax,%rbx,4),%ymm3,%ymm3
    39de:	41 83 c2 20          	add    $0x20,%r10d
    39e2:	49 83 c3 e0          	add    $0xffffffffffffffe0,%r11
    39e6:	75 d8                	jne    39c0 <_Z15iters_to_colorsjjRKSt6vectorIjSaIjEE+0x270>
    39e8:	c4 e2 7d 3b c1       	vpminud %ymm1,%ymm0,%ymm0
    39ed:	c4 e2 6d 3b cb       	vpminud %ymm3,%ymm2,%ymm1
    39f2:	c4 e2 7d 3b c1       	vpminud %ymm1,%ymm0,%ymm0
    39f7:	c4 e3 7d 39 c1 01    	vextracti128 $0x1,%ymm0,%xmm1
    39fd:	c4 e2 79 3b c1       	vpminud %xmm1,%xmm0,%xmm0
    3a02:	c5 f9 70 c8 ee       	vpshufd $0xee,%xmm0,%xmm1
    3a07:	c4 e2 79 3b c1       	vpminud %xmm1,%xmm0,%xmm0
    3a0c:	c5 f9 70 c8 55       	vpshufd $0x55,%xmm0,%xmm1
    3a11:	c4 e2 79 3b c1       	vpminud %xmm1,%xmm0,%xmm0
    3a16:	c4 c1 79 7e c2       	vmovd  %xmm0,%r10d
    3a1b:	44 39 ea             	cmp    %r13d,%edx
    3a1e:	0f 84 8c fd ff ff    	je     37b0 <_Z15iters_to_colorsjjRKSt6vectorIjSaIjEE+0x60>
    3a24:	48 89 d3             	mov    %rdx,%rbx
    3a27:	49 89 d3             	mov    %rdx,%r11
    3a2a:	41 f6 c5 1c          	test   $0x1c,%r13b
    3a2e:	0f 84 b3 fd ff ff    	je     37e7 <_Z15iters_to_colorsjjRKSt6vectorIjSaIjEE+0x97>
    3a34:	62 d2 7d 08 7c c2    	vpbroadcastd %r10d,%xmm0
    3a3a:	4e 8d 14 1f          	lea    (%rdi,%r11,1),%r10
    3a3e:	45 01 c3             	add    %r8d,%r11d
    3a41:	66 66 66 66 66 66 2e 	data16 data16 data16 data16 data16 cs nopw 0x0(%rax,%rax,1)
    3a48:	0f 1f 84 00 00 00 00 
    3a4f:	00 
    3a50:	44 89 db             	mov    %r11d,%ebx
    3a53:	c4 e2 79 3b 04 98    	vpminud (%rax,%rbx,4),%xmm0,%xmm0
    3a59:	41 83 c3 04          	add    $0x4,%r11d
    3a5d:	49 83 c2 04          	add    $0x4,%r10
    3a61:	75 ed                	jne    3a50 <_Z15iters_to_colorsjjRKSt6vectorIjSaIjEE+0x300>
    3a63:	c5 f9 70 c8 ee       	vpshufd $0xee,%xmm0,%xmm1
    3a68:	c4 e2 79 3b c1       	vpminud %xmm1,%xmm0,%xmm0
    3a6d:	c5 f9 70 c8 55       	vpshufd $0x55,%xmm0,%xmm1
    3a72:	c4 e2 79 3b c1       	vpminud %xmm1,%xmm0,%xmm0
    3a77:	c4 c1 79 7e c2       	vmovd  %xmm0,%r10d
    3a7c:	48 89 f3             	mov    %rsi,%rbx
    3a7f:	44 39 ee             	cmp    %r13d,%esi
    3a82:	0f 84 28 fd ff ff    	je     37b0 <_Z15iters_to_colorsjjRKSt6vectorIjSaIjEE+0x60>
    3a88:	e9 5a fd ff ff       	jmp    37e7 <_Z15iters_to_colorsjjRKSt6vectorIjSaIjEE+0x97>
    3a8d:	4c 89 6c 24 30       	mov    %r13,0x30(%rsp)
    3a92:	62 d1 5e 08 7b c2    	vcvtusi2ss %r10d,%xmm4,%xmm0
    3a98:	c5 fa 11 44 24 08    	vmovss %xmm0,0x8(%rsp)
    3a9e:	c5 f8 77             	vzeroupper
    3aa1:	e8 ca e6 ff ff       	call   2170 <log2f@plt>
    3aa6:	c5 fa 11 44 24 14    	vmovss %xmm0,0x14(%rsp)
    3aac:	62 f1 5e 08 7b 44 24 	vcvtusi2ssl 0x4(%rsp),%xmm4,%xmm0
    3ab3:	01 
    3ab4:	c5 fa 5e 44 24 08    	vdivss 0x8(%rsp),%xmm0,%xmm0
    3aba:	e8 b1 e6 ff ff       	call   2170 <log2f@plt>
    3abf:	44 89 f8             	mov    %r15d,%eax
    3ac2:	0f af c0             	imul   %eax,%eax
    3ac5:	85 c0                	test   %eax,%eax
    3ac7:	74 3b                	je     3b04 <_Z15iters_to_colorsjjRKSt6vectorIjSaIjEE+0x3b4>
    3ac9:	c5 fa 11 44 24 08    	vmovss %xmm0,0x8(%rsp)
    3acf:	8d 2c 40             	lea    (%rax,%rax,2),%ebp
    3ad2:	48 89 ef             	mov    %rbp,%rdi
    3ad5:	e8 36 e6 ff ff       	call   2110 <_Znwm@plt>
    3ada:	49 89 c5             	mov    %rax,%r13
    3add:	49 89 04 24          	mov    %rax,(%r12)
    3ae1:	48 8d 1c 28          	lea    (%rax,%rbp,1),%rbx
    3ae5:	49 89 5c 24 10       	mov    %rbx,0x10(%r12)
    3aea:	c6 00 00             	movb   $0x0,(%rax)
    3aed:	48 89 c7             	mov    %rax,%rdi
    3af0:	48 ff c7             	inc    %rdi
    3af3:	48 ff cd             	dec    %rbp
    3af6:	74 38                	je     3b30 <_Z15iters_to_colorsjjRKSt6vectorIjSaIjEE+0x3e0>
    3af8:	31 f6                	xor    %esi,%esi
    3afa:	48 89 ea             	mov    %rbp,%rdx
    3afd:	e8 9e e5 ff ff       	call   20a0 <memset@plt>
    3b02:	eb 2f                	jmp    3b33 <_Z15iters_to_colorsjjRKSt6vectorIjSaIjEE+0x3e3>
    3b04:	c5 f1 ef c9          	vpxor  %xmm1,%xmm1,%xmm1
    3b08:	c4 c1 7a 7f 0c 24    	vmovdqu %xmm1,(%r12)
    3b0e:	49 c7 44 24 10 00 00 	movq   $0x0,0x10(%r12)
    3b15:	00 00 
    3b17:	45 31 ed             	xor    %r13d,%r13d
    3b1a:	31 db                	xor    %ebx,%ebx
    3b1c:	4c 89 64 24 40       	mov    %r12,0x40(%rsp)
    3b21:	49 89 5c 24 08       	mov    %rbx,0x8(%r12)
    3b26:	45 85 ff             	test   %r15d,%r15d
    3b29:	75 21                	jne    3b4c <_Z15iters_to_colorsjjRKSt6vectorIjSaIjEE+0x3fc>
    3b2b:	e9 fb 01 00 00       	jmp    3d2b <_Z15iters_to_colorsjjRKSt6vectorIjSaIjEE+0x5db>
    3b30:	48 89 fb             	mov    %rdi,%rbx
    3b33:	c5 fa 10 44 24 08    	vmovss 0x8(%rsp),%xmm0
    3b39:	4c 89 64 24 40       	mov    %r12,0x40(%rsp)
    3b3e:	49 89 5c 24 08       	mov    %rbx,0x8(%r12)
    3b43:	45 85 ff             	test   %r15d,%r15d
    3b46:	0f 84 df 01 00 00    	je     3d2b <_Z15iters_to_colorsjjRKSt6vectorIjSaIjEE+0x5db>
    3b4c:	48 8b 44 24 18       	mov    0x18(%rsp),%rax
    3b51:	48 8b 28             	mov    (%rax),%rbp
    3b54:	4c 8b 64 24 30       	mov    0x30(%rsp),%r12
    3b59:	41 83 e4 fe          	and    $0xfffffffe,%r12d
    3b5d:	c5 fa 10 0d 9f 74 00 	vmovss 0x749f(%rip),%xmm1        # b004 <_IO_stdin_used+0x4>
    3b64:	00 
    3b65:	c5 f2 5e c0          	vdivss %xmm0,%xmm1,%xmm0
    3b69:	c5 fa 11 44 24 18    	vmovss %xmm0,0x18(%rsp)
    3b6f:	43 8d 04 7f          	lea    (%r15,%r15,2),%eax
    3b73:	89 44 24 2c          	mov    %eax,0x2c(%rsp)
    3b77:	31 db                	xor    %ebx,%ebx
    3b79:	b8 05 00 00 00       	mov    $0x5,%eax
    3b7e:	b9 01 00 00 00       	mov    $0x1,%ecx
    3b83:	eb 6c                	jmp    3bf1 <_Z15iters_to_colorsjjRKSt6vectorIjSaIjEE+0x4a1>
    3b85:	66 66 2e 0f 1f 84 00 	data16 cs nopw 0x0(%rax,%rax,1)
    3b8c:	00 00 00 00 
    3b90:	62 f1 5e 08 7b c0    	vcvtusi2ss %eax,%xmm4,%xmm0
    3b96:	e8 d5 e5 ff ff       	call   2170 <log2f@plt>
    3b9b:	c5 fa 5c 44 24 14    	vsubss 0x14(%rsp),%xmm0,%xmm0
    3ba1:	c5 fa 59 05 73 74 00 	vmulss 0x7473(%rip),%xmm0,%xmm0        # b01c <_IO_stdin_used+0x1c>
    3ba8:	00 
    3ba9:	c5 fa 59 44 24 18    	vmulss 0x18(%rsp),%xmm0,%xmm0
    3baf:	c5 fa 2c c0          	vcvttss2si %xmm0,%eax
    3bb3:	04 20                	add    $0x20,%al
    3bb5:	b1 20                	mov    $0x20,%cl
    3bb7:	8d 14 5b             	lea    (%rbx,%rbx,2),%edx
    3bba:	41 88 4c 15 00       	mov    %cl,0x0(%r13,%rdx,1)
    3bbf:	8d 14 5b             	lea    (%rbx,%rbx,2),%edx
    3bc2:	ff c2                	inc    %edx
    3bc4:	41 88 44 15 00       	mov    %al,0x0(%r13,%rdx,1)
    3bc9:	8d 44 5b 02          	lea    0x2(%rbx,%rbx,2),%eax
    3bcd:	41 88 4c 05 00       	mov    %cl,0x0(%r13,%rax,1)
    3bd2:	48 8b 5c 24 08       	mov    0x8(%rsp),%rbx
    3bd7:	8b 44 24 28          	mov    0x28(%rsp),%eax
    3bdb:	8b 4c 24 24          	mov    0x24(%rsp),%ecx
    3bdf:	ff c3                	inc    %ebx
    3be1:	03 44 24 2c          	add    0x2c(%rsp),%eax
    3be5:	44 01 f9             	add    %r15d,%ecx
    3be8:	44 39 fb             	cmp    %r15d,%ebx
    3beb:	0f 84 3a 01 00 00    	je     3d2b <_Z15iters_to_colorsjjRKSt6vectorIjSaIjEE+0x5db>
    3bf1:	41 be 00 00 00 00    	mov    $0x0,%r14d
    3bf7:	41 83 ff 01          	cmp    $0x1,%r15d
    3bfb:	48 89 5c 24 08       	mov    %rbx,0x8(%rsp)
    3c00:	89 44 24 28          	mov    %eax,0x28(%rsp)
    3c04:	89 4c 24 24          	mov    %ecx,0x24(%rsp)
    3c08:	0f 84 f4 00 00 00    	je     3d02 <_Z15iters_to_colorsjjRKSt6vectorIjSaIjEE+0x5b2>
    3c0e:	41 89 cf             	mov    %ecx,%r15d
    3c11:	89 c3                	mov    %eax,%ebx
    3c13:	45 31 f6             	xor    %r14d,%r14d
    3c16:	eb 5a                	jmp    3c72 <_Z15iters_to_colorsjjRKSt6vectorIjSaIjEE+0x522>
    3c18:	0f 1f 84 00 00 00 00 	nopl   0x0(%rax,%rax,1)
    3c1f:	00 
    3c20:	62 f1 5e 08 7b c0    	vcvtusi2ss %eax,%xmm4,%xmm0
    3c26:	e8 45 e5 ff ff       	call   2170 <log2f@plt>
    3c2b:	c5 fa 5c 44 24 14    	vsubss 0x14(%rsp),%xmm0,%xmm0
    3c31:	c5 fa 59 05 e3 73 00 	vmulss 0x73e3(%rip),%xmm0,%xmm0        # b01c <_IO_stdin_used+0x1c>
    3c38:	00 
    3c39:	c5 fa 59 44 24 18    	vmulss 0x18(%rsp),%xmm0,%xmm0
    3c3f:	c5 fa 2c c0          	vcvttss2si %xmm0,%eax
    3c43:	04 20                	add    $0x20,%al
    3c45:	b1 20                	mov    $0x20,%cl
    3c47:	8d 53 fe             	lea    -0x2(%rbx),%edx
    3c4a:	41 88 4c 15 00       	mov    %cl,0x0(%r13,%rdx,1)
    3c4f:	8d 53 ff             	lea    -0x1(%rbx),%edx
    3c52:	41 88 44 15 00       	mov    %al,0x0(%r13,%rdx,1)
    3c57:	89 d8                	mov    %ebx,%eax
    3c59:	41 88 4c 05 00       	mov    %cl,0x0(%r13,%rax,1)
    3c5e:	49 83 c6 02          	add    $0x2,%r14
    3c62:	83 c3 06             	add    $0x6,%ebx
    3c65:	41 83 c7 02          	add    $0x2,%r15d
    3c69:	4d 39 f4             	cmp    %r14,%r12
    3c6c:	0f 84 7e 00 00 00    	je     3cf0 <_Z15iters_to_colorsjjRKSt6vectorIjSaIjEE+0x5a0>
    3c72:	41 8d 47 ff          	lea    -0x1(%r15),%eax
    3c76:	8b 44 85 00          	mov    0x0(%rbp,%rax,4),%eax
    3c7a:	3b 44 24 04          	cmp    0x4(%rsp),%eax
    3c7e:	73 30                	jae    3cb0 <_Z15iters_to_colorsjjRKSt6vectorIjSaIjEE+0x560>
    3c80:	62 f1 5e 08 7b c0    	vcvtusi2ss %eax,%xmm4,%xmm0
    3c86:	e8 e5 e4 ff ff       	call   2170 <log2f@plt>
    3c8b:	c5 fa 5c 44 24 14    	vsubss 0x14(%rsp),%xmm0,%xmm0
    3c91:	c5 fa 59 05 83 73 00 	vmulss 0x7383(%rip),%xmm0,%xmm0        # b01c <_IO_stdin_used+0x1c>
    3c98:	00 
    3c99:	c5 fa 59 44 24 18    	vmulss 0x18(%rsp),%xmm0,%xmm0
    3c9f:	c5 fa 2c c0          	vcvttss2si %xmm0,%eax
    3ca3:	04 20                	add    $0x20,%al
    3ca5:	b1 20                	mov    $0x20,%cl
    3ca7:	eb 0b                	jmp    3cb4 <_Z15iters_to_colorsjjRKSt6vectorIjSaIjEE+0x564>
    3ca9:	0f 1f 80 00 00 00 00 	nopl   0x0(%rax)
    3cb0:	31 c0                	xor    %eax,%eax
    3cb2:	31 c9                	xor    %ecx,%ecx
    3cb4:	8d 53 fb             	lea    -0x5(%rbx),%edx
    3cb7:	41 88 4c 15 00       	mov    %cl,0x0(%r13,%rdx,1)
    3cbc:	8d 53 fc             	lea    -0x4(%rbx),%edx
    3cbf:	41 88 44 15 00       	mov    %al,0x0(%r13,%rdx,1)
    3cc4:	8d 43 fd             	lea    -0x3(%rbx),%eax
    3cc7:	41 88 4c 05 00       	mov    %cl,0x0(%r13,%rax,1)
    3ccc:	44 89 f8             	mov    %r15d,%eax
    3ccf:	8b 44 85 00          	mov    0x0(%rbp,%rax,4),%eax
    3cd3:	3b 44 24 04          	cmp    0x4(%rsp),%eax
    3cd7:	0f 82 43 ff ff ff    	jb     3c20 <_Z15iters_to_colorsjjRKSt6vectorIjSaIjEE+0x4d0>
    3cdd:	31 c0                	xor    %eax,%eax
    3cdf:	31 c9                	xor    %ecx,%ecx
    3ce1:	e9 61 ff ff ff       	jmp    3c47 <_Z15iters_to_colorsjjRKSt6vectorIjSaIjEE+0x4f7>
    3ce6:	66 2e 0f 1f 84 00 00 	cs nopw 0x0(%rax,%rax,1)
    3ced:	00 00 00 
    3cf0:	4c 8b 7c 24 38       	mov    0x38(%rsp),%r15
    3cf5:	48 8b 5c 24 08       	mov    0x8(%rsp),%rbx
    3cfa:	8b 44 24 28          	mov    0x28(%rsp),%eax
    3cfe:	8b 4c 24 24          	mov    0x24(%rsp),%ecx
    3d02:	f6 44 24 30 01       	testb  $0x1,0x30(%rsp)
    3d07:	0f 84 d2 fe ff ff    	je     3bdf <_Z15iters_to_colorsjjRKSt6vectorIjSaIjEE+0x48f>
    3d0d:	41 0f af df          	imul   %r15d,%ebx
    3d11:	44 01 f3             	add    %r14d,%ebx
    3d14:	8b 44 9d 00          	mov    0x0(%rbp,%rbx,4),%eax
    3d18:	3b 44 24 04          	cmp    0x4(%rsp),%eax
    3d1c:	0f 82 6e fe ff ff    	jb     3b90 <_Z15iters_to_colorsjjRKSt6vectorIjSaIjEE+0x440>
    3d22:	31 c0                	xor    %eax,%eax
    3d24:	31 c9                	xor    %ecx,%ecx
    3d26:	e9 8c fe ff ff       	jmp    3bb7 <_Z15iters_to_colorsjjRKSt6vectorIjSaIjEE+0x467>
    3d2b:	48 8b 44 24 40       	mov    0x40(%rsp),%rax
    3d30:	48 83 c4 48          	add    $0x48,%rsp
    3d34:	5b                   	pop    %rbx
    3d35:	41 5c                	pop    %r12
    3d37:	41 5d                	pop    %r13
    3d39:	41 5e                	pop    %r14
    3d3b:	41 5f                	pop    %r15
    3d3d:	5d                   	pop    %rbp
    3d3e:	c3                   	ret
    3d3f:	90                   	nop

0000000000003d40 <_Z10differencejjRSt6vectorIjSaIjEES2_>:
    3d40:	85 ff                	test   %edi,%edi
    3d42:	0f 84 bf 02 00 00    	je     4007 <_Z10differencejjRSt6vectorIjSaIjEES2_+0x2c7>
    3d48:	55                   	push   %rbp
    3d49:	41 57                	push   %r15
    3d4b:	41 56                	push   %r14
    3d4d:	41 55                	push   %r13
    3d4f:	41 54                	push   %r12
    3d51:	53                   	push   %rbx
    3d52:	89 74 24 e4          	mov    %esi,-0x1c(%rsp)
    3d56:	48 8b 02             	mov    (%rdx),%rax
    3d59:	48 8b 09             	mov    (%rcx),%rcx
    3d5c:	89 fa                	mov    %edi,%edx
    3d5e:	4c 8d 42 ff          	lea    -0x1(%rdx),%r8
    3d62:	89 d6                	mov    %edx,%esi
    3d64:	83 e6 f0             	and    $0xfffffff0,%esi
    3d67:	48 89 74 24 e8       	mov    %rsi,-0x18(%rsp)
    3d6c:	89 d6                	mov    %edx,%esi
    3d6e:	83 e6 fc             	and    $0xfffffffc,%esi
    3d71:	89 d3                	mov    %edx,%ebx
    3d73:	83 e3 03             	and    $0x3,%ebx
    3d76:	48 89 74 24 f8       	mov    %rsi,-0x8(%rsp)
    3d7b:	48 f7 de             	neg    %rsi
    3d7e:	48 89 74 24 f0       	mov    %rsi,-0x10(%rsp)
    3d83:	45 31 f6             	xor    %r14d,%r14d
    3d86:	31 ed                	xor    %ebp,%ebp
    3d88:	45 31 ff             	xor    %r15d,%r15d
    3d8b:	eb 10                	jmp    3d9d <_Z10differencejjRSt6vectorIjSaIjEES2_+0x5d>
    3d8d:	0f 1f 00             	nopl   (%rax)
    3d90:	ff c5                	inc    %ebp
    3d92:	49 01 d6             	add    %rdx,%r14
    3d95:	39 fd                	cmp    %edi,%ebp
    3d97:	0f 84 55 02 00 00    	je     3ff2 <_Z10differencejjRSt6vectorIjSaIjEES2_+0x2b2>
    3d9d:	83 ff 03             	cmp    $0x3,%edi
    3da0:	76 22                	jbe    3dc4 <_Z10differencejjRSt6vectorIjSaIjEES2_+0x84>
    3da2:	4c 89 c6             	mov    %r8,%rsi
    3da5:	48 c1 ee 20          	shr    $0x20,%rsi
    3da9:	40 0f 95 c6          	setne  %sil
    3dad:	41 89 f9             	mov    %edi,%r9d
    3db0:	44 0f af cd          	imul   %ebp,%r9d
    3db4:	45 01 c1             	add    %r8d,%r9d
    3db7:	41 0f 92 c1          	setb   %r9b
    3dbb:	41 08 f1             	or     %sil,%r9b
    3dbe:	0f 84 ec 00 00 00    	je     3eb0 <_Z10differencejjRSt6vectorIjSaIjEES2_+0x170>
    3dc4:	45 31 ed             	xor    %r13d,%r13d
    3dc7:	48 85 db             	test   %rbx,%rbx
    3dca:	74 44                	je     3e10 <_Z10differencejjRSt6vectorIjSaIjEES2_+0xd0>
    3dcc:	49 89 db             	mov    %rbx,%r11
    3dcf:	4d 89 ec             	mov    %r13,%r12
    3dd2:	66 66 66 66 66 2e 0f 	data16 data16 data16 data16 cs nopw 0x0(%rax,%rax,1)
    3dd9:	1f 84 00 00 00 00 00 
    3de0:	43 8d 34 26          	lea    (%r14,%r12,1),%esi
    3de4:	44 8b 0c b0          	mov    (%rax,%rsi,4),%r9d
    3de8:	8b 34 b1             	mov    (%rcx,%rsi,4),%esi
    3deb:	45 89 ca             	mov    %r9d,%r10d
    3dee:	41 29 f2             	sub    %esi,%r10d
    3df1:	44 29 ce             	sub    %r9d,%esi
    3df4:	41 0f 4c f2          	cmovl  %r10d,%esi
    3df8:	49 01 f7             	add    %rsi,%r15
    3dfb:	49 ff c4             	inc    %r12
    3dfe:	49 ff cb             	dec    %r11
    3e01:	75 dd                	jne    3de0 <_Z10differencejjRSt6vectorIjSaIjEES2_+0xa0>
    3e03:	49 29 d5             	sub    %rdx,%r13
    3e06:	49 83 fd fc          	cmp    $0xfffffffffffffffc,%r13
    3e0a:	76 14                	jbe    3e20 <_Z10differencejjRSt6vectorIjSaIjEES2_+0xe0>
    3e0c:	eb 82                	jmp    3d90 <_Z10differencejjRSt6vectorIjSaIjEES2_+0x50>
    3e0e:	66 90                	xchg   %ax,%ax
    3e10:	4d 89 ec             	mov    %r13,%r12
    3e13:	49 29 d5             	sub    %rdx,%r13
    3e16:	49 83 fd fc          	cmp    $0xfffffffffffffffc,%r13
    3e1a:	0f 87 70 ff ff ff    	ja     3d90 <_Z10differencejjRSt6vectorIjSaIjEES2_+0x50>
    3e20:	43 8d 34 26          	lea    (%r14,%r12,1),%esi
    3e24:	44 8b 0c b0          	mov    (%rax,%rsi,4),%r9d
    3e28:	44 8b 2c b1          	mov    (%rcx,%rsi,4),%r13d
    3e2c:	44 89 ce             	mov    %r9d,%esi
    3e2f:	44 29 ee             	sub    %r13d,%esi
    3e32:	45 29 cd             	sub    %r9d,%r13d
    3e35:	44 0f 4c ee          	cmovl  %esi,%r13d
    3e39:	4d 01 fd             	add    %r15,%r13
    3e3c:	43 8d 34 26          	lea    (%r14,%r12,1),%esi
    3e40:	ff c6                	inc    %esi
    3e42:	44 8b 0c b0          	mov    (%rax,%rsi,4),%r9d
    3e46:	8b 34 b1             	mov    (%rcx,%rsi,4),%esi
    3e49:	45 89 ca             	mov    %r9d,%r10d
    3e4c:	41 29 f2             	sub    %esi,%r10d
    3e4f:	44 29 ce             	sub    %r9d,%esi
    3e52:	41 0f 4c f2          	cmovl  %r10d,%esi
    3e56:	47 8d 4c 26 02       	lea    0x2(%r14,%r12,1),%r9d
    3e5b:	46 8b 14 88          	mov    (%rax,%r9,4),%r10d
    3e5f:	46 8b 0c 89          	mov    (%rcx,%r9,4),%r9d
    3e63:	45 89 d3             	mov    %r10d,%r11d
    3e66:	45 29 cb             	sub    %r9d,%r11d
    3e69:	45 29 d1             	sub    %r10d,%r9d
    3e6c:	45 0f 4c cb          	cmovl  %r11d,%r9d
    3e70:	49 01 f1             	add    %rsi,%r9
    3e73:	4d 01 e9             	add    %r13,%r9
    3e76:	43 8d 34 26          	lea    (%r14,%r12,1),%esi
    3e7a:	83 c6 03             	add    $0x3,%esi
    3e7d:	44 8b 14 b0          	mov    (%rax,%rsi,4),%r10d
    3e81:	44 8b 3c b1          	mov    (%rcx,%rsi,4),%r15d
    3e85:	44 89 d6             	mov    %r10d,%esi
    3e88:	44 29 fe             	sub    %r15d,%esi
    3e8b:	45 29 d7             	sub    %r10d,%r15d
    3e8e:	44 0f 4c fe          	cmovl  %esi,%r15d
    3e92:	4d 01 cf             	add    %r9,%r15
    3e95:	49 83 c4 04          	add    $0x4,%r12
    3e99:	4c 39 e2             	cmp    %r12,%rdx
    3e9c:	75 82                	jne    3e20 <_Z10differencejjRSt6vectorIjSaIjEES2_+0xe0>
    3e9e:	e9 ed fe ff ff       	jmp    3d90 <_Z10differencejjRSt6vectorIjSaIjEES2_+0x50>
    3ea3:	66 66 66 66 2e 0f 1f 	data16 data16 data16 cs nopw 0x0(%rax,%rax,1)
    3eaa:	84 00 00 00 00 00 
    3eb0:	83 ff 10             	cmp    $0x10,%edi
    3eb3:	73 08                	jae    3ebd <_Z10differencejjRSt6vectorIjSaIjEES2_+0x17d>
    3eb5:	45 31 e4             	xor    %r12d,%r12d
    3eb8:	e9 d2 00 00 00       	jmp    3f8f <_Z10differencejjRSt6vectorIjSaIjEES2_+0x24f>
    3ebd:	c4 c1 f9 6e c7       	vmovq  %r15,%xmm0
    3ec2:	c5 f1 ef c9          	vpxor  %xmm1,%xmm1,%xmm1
    3ec6:	45 89 f7             	mov    %r14d,%r15d
    3ec9:	4c 8b 4c 24 e8       	mov    -0x18(%rsp),%r9
    3ece:	4d 89 cc             	mov    %r9,%r12
    3ed1:	c5 e9 ef d2          	vpxor  %xmm2,%xmm2,%xmm2
    3ed5:	c5 e1 ef db          	vpxor  %xmm3,%xmm3,%xmm3
    3ed9:	0f 1f 80 00 00 00 00 	nopl   0x0(%rax)
    3ee0:	44 89 fe             	mov    %r15d,%esi
    3ee3:	c5 fa 6f 24 b0       	vmovdqu (%rax,%rsi,4),%xmm4
    3ee8:	c5 fa 6f 6c b0 10    	vmovdqu 0x10(%rax,%rsi,4),%xmm5
    3eee:	c5 fa 6f 74 b0 20    	vmovdqu 0x20(%rax,%rsi,4),%xmm6
    3ef4:	c5 fa 6f 7c b0 30    	vmovdqu 0x30(%rax,%rsi,4),%xmm7
    3efa:	c5 d9 fa 24 b1       	vpsubd (%rcx,%rsi,4),%xmm4,%xmm4
    3eff:	c5 d1 fa 6c b1 10    	vpsubd 0x10(%rcx,%rsi,4),%xmm5,%xmm5
    3f05:	c5 c9 fa 74 b1 20    	vpsubd 0x20(%rcx,%rsi,4),%xmm6,%xmm6
    3f0b:	c5 c1 fa 7c b1 30    	vpsubd 0x30(%rcx,%rsi,4),%xmm7,%xmm7
    3f11:	c4 e2 79 1e e4       	vpabsd %xmm4,%xmm4
    3f16:	c4 e2 79 1e ed       	vpabsd %xmm5,%xmm5
    3f1b:	c4 e2 79 1e f6       	vpabsd %xmm6,%xmm6
    3f20:	c4 e2 79 1e ff       	vpabsd %xmm7,%xmm7
    3f25:	c4 e2 7d 35 e4       	vpmovzxdq %xmm4,%ymm4
    3f2a:	c5 fd d4 c4          	vpaddq %ymm4,%ymm0,%ymm0
    3f2e:	c4 e2 7d 35 e5       	vpmovzxdq %xmm5,%ymm4
    3f33:	c5 f5 d4 cc          	vpaddq %ymm4,%ymm1,%ymm1
    3f37:	c4 e2 7d 35 e6       	vpmovzxdq %xmm6,%ymm4
    3f3c:	c5 ed d4 d4          	vpaddq %ymm4,%ymm2,%ymm2
    3f40:	c4 e2 7d 35 e7       	vpmovzxdq %xmm7,%ymm4
    3f45:	c5 e5 d4 dc          	vpaddq %ymm4,%ymm3,%ymm3
    3f49:	41 83 c7 10          	add    $0x10,%r15d
    3f4d:	49 83 c4 f0          	add    $0xfffffffffffffff0,%r12
    3f51:	75 8d                	jne    3ee0 <_Z10differencejjRSt6vectorIjSaIjEES2_+0x1a0>
    3f53:	c5 f5 d4 c0          	vpaddq %ymm0,%ymm1,%ymm0
    3f57:	c5 ed d4 c0          	vpaddq %ymm0,%ymm2,%ymm0
    3f5b:	c5 e5 d4 c0          	vpaddq %ymm0,%ymm3,%ymm0
    3f5f:	c4 e3 7d 39 c1 01    	vextracti128 $0x1,%ymm0,%xmm1
    3f65:	c5 f9 d4 c1          	vpaddq %xmm1,%xmm0,%xmm0
    3f69:	c5 f9 70 c8 ee       	vpshufd $0xee,%xmm0,%xmm1
    3f6e:	c5 f9 d4 c1          	vpaddq %xmm1,%xmm0,%xmm0
    3f72:	c4 c1 f9 7e c7       	vmovq  %xmm0,%r15
    3f77:	41 39 d1             	cmp    %edx,%r9d
    3f7a:	0f 84 10 fe ff ff    	je     3d90 <_Z10differencejjRSt6vectorIjSaIjEES2_+0x50>
    3f80:	4d 89 cd             	mov    %r9,%r13
    3f83:	4d 89 cc             	mov    %r9,%r12
    3f86:	f6 c2 0c             	test   $0xc,%dl
    3f89:	0f 84 38 fe ff ff    	je     3dc7 <_Z10differencejjRSt6vectorIjSaIjEES2_+0x87>
    3f8f:	c4 c1 f9 6e c7       	vmovq  %r15,%xmm0
    3f94:	48 8b 74 24 f0       	mov    -0x10(%rsp),%rsi
    3f99:	4e 8d 1c 26          	lea    (%rsi,%r12,1),%r11
    3f9d:	45 01 f4             	add    %r14d,%r12d
    3fa0:	44 89 e6             	mov    %r12d,%esi
    3fa3:	c5 fa 6f 0c b0       	vmovdqu (%rax,%rsi,4),%xmm1
    3fa8:	c5 f1 fa 0c b1       	vpsubd (%rcx,%rsi,4),%xmm1,%xmm1
    3fad:	c4 e2 79 1e c9       	vpabsd %xmm1,%xmm1
    3fb2:	c4 e2 7d 35 c9       	vpmovzxdq %xmm1,%ymm1
    3fb7:	c5 fd d4 c1          	vpaddq %ymm1,%ymm0,%ymm0
    3fbb:	41 83 c4 04          	add    $0x4,%r12d
    3fbf:	49 83 c3 04          	add    $0x4,%r11
    3fc3:	75 db                	jne    3fa0 <_Z10differencejjRSt6vectorIjSaIjEES2_+0x260>
    3fc5:	c4 e3 7d 39 c1 01    	vextracti128 $0x1,%ymm0,%xmm1
    3fcb:	c5 f9 d4 c1          	vpaddq %xmm1,%xmm0,%xmm0
    3fcf:	c5 f9 70 c8 ee       	vpshufd $0xee,%xmm0,%xmm1
    3fd4:	c5 f9 d4 c1          	vpaddq %xmm1,%xmm0,%xmm0
    3fd8:	c4 c1 f9 7e c7       	vmovq  %xmm0,%r15
    3fdd:	48 8b 74 24 f8       	mov    -0x8(%rsp),%rsi
    3fe2:	49 89 f5             	mov    %rsi,%r13
    3fe5:	39 d6                	cmp    %edx,%esi
    3fe7:	0f 84 a3 fd ff ff    	je     3d90 <_Z10differencejjRSt6vectorIjSaIjEES2_+0x50>
    3fed:	e9 d5 fd ff ff       	jmp    3dc7 <_Z10differencejjRSt6vectorIjSaIjEES2_+0x87>
    3ff2:	c4 c1 bb 2a c7       	vcvtsi2sd %r15,%xmm8,%xmm0
    3ff7:	8b 74 24 e4          	mov    -0x1c(%rsp),%esi
    3ffb:	5b                   	pop    %rbx
    3ffc:	41 5c                	pop    %r12
    3ffe:	41 5d                	pop    %r13
    4000:	41 5e                	pop    %r14
    4002:	41 5f                	pop    %r15
    4004:	5d                   	pop    %rbp
    4005:	eb 04                	jmp    400b <_Z10differencejjRSt6vectorIjSaIjEES2_+0x2cb>
    4007:	c5 f9 57 c0          	vxorpd %xmm0,%xmm0,%xmm0
    400b:	0f af ff             	imul   %edi,%edi
    400e:	0f af fe             	imul   %esi,%edi
    4011:	62 f1 3f 08 7b cf    	vcvtusi2sd %edi,%xmm8,%xmm1
    4017:	c5 fb 5e c1          	vdivsd %xmm1,%xmm0,%xmm0
    401b:	c5 f8 77             	vzeroupper
    401e:	c3                   	ret
    401f:	90                   	nop

0000000000004020 <_Z10dump_imagePKcjjRKSt6vectorIjSaIjEE>:
    4020:	41 57                	push   %r15
    4022:	41 56                	push   %r14
    4024:	53                   	push   %rbx
    4025:	48 83 ec 20          	sub    $0x20,%rsp
    4029:	89 f3                	mov    %esi,%ebx
    402b:	49 89 fe             	mov    %rdi,%r14
    402e:	4c 8d 7c 24 08       	lea    0x8(%rsp),%r15
    4033:	4c 89 ff             	mov    %r15,%rdi
    4036:	e8 15 f7 ff ff       	call   3750 <_Z15iters_to_colorsjjRKSt6vectorIjSaIjEE>
    403b:	4c 89 f7             	mov    %r14,%rdi
    403e:	89 de                	mov    %ebx,%esi
    4040:	4c 89 fa             	mov    %r15,%rdx
    4043:	e8 38 f6 ff ff       	call   3680 <_Z8writeBMPPKcjRKSt6vectorIhSaIhEE>
    4048:	48 8b 7c 24 08       	mov    0x8(%rsp),%rdi
    404d:	48 85 ff             	test   %rdi,%rdi
    4050:	74 16                	je     4068 <_Z10dump_imagePKcjjRKSt6vectorIjSaIjEE+0x48>
    4052:	48 8b 74 24 18       	mov    0x18(%rsp),%rsi
    4057:	48 29 fe             	sub    %rdi,%rsi
    405a:	48 83 c4 20          	add    $0x20,%rsp
    405e:	5b                   	pop    %rbx
    405f:	41 5e                	pop    %r14
    4061:	41 5f                	pop    %r15
    4063:	e9 b8 e0 ff ff       	jmp    2120 <_ZdlPvm@plt>
    4068:	48 83 c4 20          	add    $0x20,%rsp
    406c:	5b                   	pop    %rbx
    406d:	41 5e                	pop    %r14
    406f:	41 5f                	pop    %r15
    4071:	c3                   	ret
    4072:	48 89 c3             	mov    %rax,%rbx
    4075:	48 8b 7c 24 08       	mov    0x8(%rsp),%rdi
    407a:	48 85 ff             	test   %rdi,%rdi
    407d:	74 0d                	je     408c <_Z10dump_imagePKcjjRKSt6vectorIjSaIjEE+0x6c>
    407f:	48 8b 74 24 18       	mov    0x18(%rsp),%rsi
    4084:	48 29 fe             	sub    %rdi,%rsi
    4087:	e8 94 e0 ff ff       	call   2120 <_ZdlPvm@plt>
    408c:	48 89 df             	mov    %rbx,%rdi
    408f:	e8 6c e1 ff ff       	call   2200 <_Unwind_Resume@plt>
    4094:	66 66 66 2e 0f 1f 84 	data16 data16 cs nopw 0x0(%rax,%rax,1)
    409b:	00 00 00 00 00 

00000000000040a0 <main>:
    40a0:	55                   	push   %rbp
    40a1:	41 57                	push   %r15
    40a3:	41 56                	push   %r14
    40a5:	41 55                	push   %r13
    40a7:	41 54                	push   %r12
    40a9:	53                   	push   %rbx
    40aa:	48 81 ec a8 02 00 00 	sub    $0x2a8,%rsp
    40b1:	c7 44 24 5c 00 04 00 	movl   $0x400,0x5c(%rsp)
    40b8:	00 
    40b9:	c7 44 24 6c d0 07 00 	movl   $0x7d0,0x6c(%rsp)
    40c0:	00 
    40c1:	c7 44 24 7c 06 00 00 	movl   $0x6,0x7c(%rsp)
    40c8:	00 
    40c9:	48 8d 54 24 5c       	lea    0x5c(%rsp),%rdx
    40ce:	48 8d 4c 24 6c       	lea    0x6c(%rsp),%rcx
    40d3:	4c 8d 44 24 7c       	lea    0x7c(%rsp),%r8
    40d8:	e8 83 f1 ff ff       	call   3260 <_Z20ParseArgsAndMakeSpeciPPcPjS1_P14MandelbrotImpl>
    40dd:	89 c1                	mov    %eax,%ecx
    40df:	b8 ff ff ff ff       	mov    $0xffffffff,%eax
    40e4:	85 c9                	test   %ecx,%ecx
    40e6:	0f 85 60 57 00 00    	jne    984c <main+0x57ac>
    40ec:	44 8b 64 24 5c       	mov    0x5c(%rsp),%r12d
    40f1:	45 89 e5             	mov    %r12d,%r13d
    40f4:	45 0f af ed          	imul   %r13d,%r13d
    40f8:	45 85 ed             	test   %r13d,%r13d
    40fb:	4c 89 ac 24 18 01 00 	mov    %r13,0x118(%rsp)
    4102:	00 
    4103:	0f 84 80 00 00 00    	je     4189 <main+0xe9>
    4109:	4e 8d 34 ad 00 00 00 	lea    0x0(,%r13,4),%r14
    4110:	00 
    4111:	4c 89 f7             	mov    %r14,%rdi
    4114:	e8 f7 df ff ff       	call   2110 <_Znwm@plt>
    4119:	49 89 c7             	mov    %rax,%r15
    411c:	c7 00 00 00 00 00    	movl   $0x0,(%rax)
    4122:	49 83 fd 01          	cmp    $0x1,%r13
    4126:	74 0f                	je     4137 <main+0x97>
    4128:	49 8d 7f 04          	lea    0x4(%r15),%rdi
    412c:	49 8d 56 fc          	lea    -0x4(%r14),%rdx
    4130:	31 f6                	xor    %esi,%esi
    4132:	e8 69 df ff ff       	call   20a0 <memset@plt>
    4137:	4b 8d 04 af          	lea    (%r15,%r13,4),%rax
    413b:	48 89 84 24 10 01 00 	mov    %rax,0x110(%rsp)
    4142:	00 
    4143:	4c 89 f7             	mov    %r14,%rdi
    4146:	e8 c5 df ff ff       	call   2110 <_Znwm@plt>
    414b:	48 89 c3             	mov    %rax,%rbx
    414e:	4a 8d 04 a8          	lea    (%rax,%r13,4),%rax
    4152:	48 89 84 24 08 01 00 	mov    %rax,0x108(%rsp)
    4159:	00 
    415a:	c7 03 00 00 00 00    	movl   $0x0,(%rbx)
    4160:	49 83 fd 01          	cmp    $0x1,%r13
    4164:	74 15                	je     417b <main+0xdb>
    4166:	48 89 df             	mov    %rbx,%rdi
    4169:	48 83 c7 04          	add    $0x4,%rdi
    416d:	49 83 c6 fc          	add    $0xfffffffffffffffc,%r14
    4171:	31 f6                	xor    %esi,%esi
    4173:	4c 89 f2             	mov    %r14,%rdx
    4176:	e8 25 df ff ff       	call   20a0 <memset@plt>
    417b:	8b 6c 24 6c          	mov    0x6c(%rsp),%ebp
    417f:	4d 85 e4             	test   %r12,%r12
    4182:	75 2f                	jne    41b3 <main+0x113>
    4184:	e9 1c 02 00 00       	jmp    43a5 <main+0x305>
    4189:	45 31 ff             	xor    %r15d,%r15d
    418c:	48 c7 84 24 10 01 00 	movq   $0x0,0x110(%rsp)
    4193:	00 00 00 00 00 
    4198:	48 c7 84 24 08 01 00 	movq   $0x0,0x108(%rsp)
    419f:	00 00 00 00 00 
    41a4:	31 db                	xor    %ebx,%ebx
    41a6:	8b 6c 24 6c          	mov    0x6c(%rsp),%ebp
    41aa:	4d 85 e4             	test   %r12,%r12
    41ad:	0f 84 f2 01 00 00    	je     43a5 <main+0x305>
    41b3:	85 ed                	test   %ebp,%ebp
    41b5:	0f 84 d5 01 00 00    	je     4390 <main+0x2f0>
    41bb:	62 d1 7e 08 7b c4    	vcvtusi2ss %r12d,%xmm0,%xmm0
    41c1:	c5 fa 10 0d 3b 6e 00 	vmovss 0x6e3b(%rip),%xmm1        # b004 <_IO_stdin_used+0x4>
    41c8:	00 
    41c9:	c5 f2 5e c0          	vdivss %xmm0,%xmm1,%xmm0
    41cd:	44 89 e0             	mov    %r12d,%eax
    41d0:	83 e0 fe             	and    $0xfffffffe,%eax
    41d3:	31 c9                	xor    %ecx,%ecx
    41d5:	c5 fa 10 0d 2b 6e 00 	vmovss 0x6e2b(%rip),%xmm1        # b008 <_IO_stdin_used+0x8>
    41dc:	00 
    41dd:	c5 fa 10 15 27 6e 00 	vmovss 0x6e27(%rip),%xmm2        # b00c <_IO_stdin_used+0xc>
    41e4:	00 
    41e5:	c5 fa 10 1d 23 6e 00 	vmovss 0x6e23(%rip),%xmm3        # b010 <_IO_stdin_used+0x10>
    41ec:	00 
    41ed:	c5 fa 10 25 1f 6e 00 	vmovss 0x6e1f(%rip),%xmm4        # b014 <_IO_stdin_used+0x14>
    41f4:	00 
    41f5:	eb 18                	jmp    420f <main+0x16f>
    41f7:	66 0f 1f 84 00 00 00 	nopw   0x0(%rax,%rax,1)
    41fe:	00 00 
    4200:	89 3c b2             	mov    %edi,(%rdx,%rsi,4)
    4203:	48 ff c1             	inc    %rcx
    4206:	4c 39 e1             	cmp    %r12,%rcx
    4209:	0f 84 96 01 00 00    	je     43a5 <main+0x305>
    420f:	c4 e1 9a 2a e9       	vcvtsi2ss %rcx,%xmm12,%xmm5
    4214:	48 89 ca             	mov    %rcx,%rdx
    4217:	49 0f af d4          	imul   %r12,%rdx
    421b:	c5 d2 59 e9          	vmulss %xmm1,%xmm5,%xmm5
    421f:	c4 e2 79 a9 ea       	vfmadd213ss %xmm2,%xmm0,%xmm5
    4224:	48 8d 14 93          	lea    (%rbx,%rdx,4),%rdx
    4228:	31 f6                	xor    %esi,%esi
    422a:	49 83 fc 01          	cmp    $0x1,%r12
    422e:	0f 85 7d 00 00 00    	jne    42b1 <main+0x211>
    4234:	41 f6 c4 01          	test   $0x1,%r12b
    4238:	74 c9                	je     4203 <main+0x163>
    423a:	c4 e1 9a 2a f6       	vcvtsi2ss %rsi,%xmm12,%xmm6
    423f:	c5 ca 59 f1          	vmulss %xmm1,%xmm6,%xmm6
    4243:	c4 e2 79 a9 f3       	vfmadd213ss %xmm3,%xmm0,%xmm6
    4248:	31 ff                	xor    %edi,%edi
    424a:	c4 41 30 57 c9       	vxorps %xmm9,%xmm9,%xmm9
    424f:	c4 41 28 57 d2       	vxorps %xmm10,%xmm10,%xmm10
    4254:	c5 c0 57 ff          	vxorps %xmm7,%xmm7,%xmm7
    4258:	c4 41 38 57 c0       	vxorps %xmm8,%xmm8,%xmm8
    425d:	0f 1f 00             	nopl   (%rax)
    4260:	c4 41 2a 5c c9       	vsubss %xmm9,%xmm10,%xmm9
    4265:	c5 ba 5c ff          	vsubss %xmm7,%xmm8,%xmm7
    4269:	c5 4a 58 d7          	vaddss %xmm7,%xmm6,%xmm10
    426d:	c5 32 58 dd          	vaddss %xmm5,%xmm9,%xmm11
    4271:	c4 41 2a 59 c2       	vmulss %xmm10,%xmm10,%xmm8
    4276:	c4 c1 22 59 fb       	vmulss %xmm11,%xmm11,%xmm7
    427b:	ff c7                	inc    %edi
    427d:	c5 3a 58 cf          	vaddss %xmm7,%xmm8,%xmm9
    4281:	c5 78 2e cc          	vucomiss %xmm4,%xmm9
    4285:	0f 87 75 ff ff ff    	ja     4200 <main+0x160>
    428b:	c4 41 2a 58 d3       	vaddss %xmm11,%xmm10,%xmm10
    4290:	c4 41 2a 59 d2       	vmulss %xmm10,%xmm10,%xmm10
    4295:	39 ef                	cmp    %ebp,%edi
    4297:	72 c7                	jb     4260 <main+0x1c0>
    4299:	e9 62 ff ff ff       	jmp    4200 <main+0x160>
    429e:	66 90                	xchg   %ax,%ax
    42a0:	44 89 04 ba          	mov    %r8d,(%rdx,%rdi,4)
    42a4:	48 83 c6 02          	add    $0x2,%rsi
    42a8:	48 39 c6             	cmp    %rax,%rsi
    42ab:	0f 84 83 ff ff ff    	je     4234 <main+0x194>
    42b1:	c4 e1 9a 2a f6       	vcvtsi2ss %rsi,%xmm12,%xmm6
    42b6:	c5 ca 59 f1          	vmulss %xmm1,%xmm6,%xmm6
    42ba:	c4 e2 79 a9 f3       	vfmadd213ss %xmm3,%xmm0,%xmm6
    42bf:	31 ff                	xor    %edi,%edi
    42c1:	c4 41 30 57 c9       	vxorps %xmm9,%xmm9,%xmm9
    42c6:	c4 41 28 57 d2       	vxorps %xmm10,%xmm10,%xmm10
    42cb:	c5 c0 57 ff          	vxorps %xmm7,%xmm7,%xmm7
    42cf:	c4 41 38 57 c0       	vxorps %xmm8,%xmm8,%xmm8
    42d4:	66 66 66 2e 0f 1f 84 	data16 data16 cs nopw 0x0(%rax,%rax,1)
    42db:	00 00 00 00 00 
    42e0:	c4 41 2a 5c c9       	vsubss %xmm9,%xmm10,%xmm9
    42e5:	c5 ba 5c ff          	vsubss %xmm7,%xmm8,%xmm7
    42e9:	c5 4a 58 d7          	vaddss %xmm7,%xmm6,%xmm10
    42ed:	c5 32 58 dd          	vaddss %xmm5,%xmm9,%xmm11
    42f1:	c4 41 2a 59 c2       	vmulss %xmm10,%xmm10,%xmm8
    42f6:	c4 c1 22 59 fb       	vmulss %xmm11,%xmm11,%xmm7
    42fb:	ff c7                	inc    %edi
    42fd:	c5 3a 58 cf          	vaddss %xmm7,%xmm8,%xmm9
    4301:	c5 78 2e cc          	vucomiss %xmm4,%xmm9
    4305:	77 0e                	ja     4315 <main+0x275>
    4307:	c4 41 2a 58 d3       	vaddss %xmm11,%xmm10,%xmm10
    430c:	c4 41 2a 59 d2       	vmulss %xmm10,%xmm10,%xmm10
    4311:	39 ef                	cmp    %ebp,%edi
    4313:	72 cb                	jb     42e0 <main+0x240>
    4315:	89 3c b2             	mov    %edi,(%rdx,%rsi,4)
    4318:	48 89 f7             	mov    %rsi,%rdi
    431b:	48 83 cf 01          	or     $0x1,%rdi
    431f:	c4 e1 9a 2a f7       	vcvtsi2ss %rdi,%xmm12,%xmm6
    4324:	c5 ca 59 f1          	vmulss %xmm1,%xmm6,%xmm6
    4328:	c4 e2 79 a9 f3       	vfmadd213ss %xmm3,%xmm0,%xmm6
    432d:	45 31 c0             	xor    %r8d,%r8d
    4330:	c4 41 30 57 c9       	vxorps %xmm9,%xmm9,%xmm9
    4335:	c4 41 28 57 d2       	vxorps %xmm10,%xmm10,%xmm10
    433a:	c5 c0 57 ff          	vxorps %xmm7,%xmm7,%xmm7
    433e:	c4 41 38 57 c0       	vxorps %xmm8,%xmm8,%xmm8
    4343:	66 66 66 66 2e 0f 1f 	data16 data16 data16 cs nopw 0x0(%rax,%rax,1)
    434a:	84 00 00 00 00 00 
    4350:	c4 41 2a 5c c9       	vsubss %xmm9,%xmm10,%xmm9
    4355:	c5 ba 5c ff          	vsubss %xmm7,%xmm8,%xmm7
    4359:	c5 4a 58 d7          	vaddss %xmm7,%xmm6,%xmm10
    435d:	c5 32 58 dd          	vaddss %xmm5,%xmm9,%xmm11
    4361:	c4 41 2a 59 c2       	vmulss %xmm10,%xmm10,%xmm8
    4366:	c4 c1 22 59 fb       	vmulss %xmm11,%xmm11,%xmm7
    436b:	41 ff c0             	inc    %r8d
    436e:	c5 3a 58 cf          	vaddss %xmm7,%xmm8,%xmm9
    4372:	c5 78 2e cc          	vucomiss %xmm4,%xmm9
    4376:	0f 87 24 ff ff ff    	ja     42a0 <main+0x200>
    437c:	c4 41 2a 58 d3       	vaddss %xmm11,%xmm10,%xmm10
    4381:	c4 41 2a 59 d2       	vmulss %xmm10,%xmm10,%xmm10
    4386:	41 39 e8             	cmp    %ebp,%r8d
    4389:	72 c5                	jb     4350 <main+0x2b0>
    438b:	e9 10 ff ff ff       	jmp    42a0 <main+0x200>
    4390:	4c 89 e2             	mov    %r12,%rdx
    4393:	49 0f af d4          	imul   %r12,%rdx
    4397:	48 c1 e2 02          	shl    $0x2,%rdx
    439b:	48 89 df             	mov    %rbx,%rdi
    439e:	31 f6                	xor    %esi,%esi
    43a0:	e8 fb dc ff ff       	call   20a0 <memset@plt>
    43a5:	8b 44 24 7c          	mov    0x7c(%rsp),%eax
    43a9:	89 44 24 70          	mov    %eax,0x70(%rsp)
    43ad:	83 f8 06             	cmp    $0x6,%eax
    43b0:	4c 89 7c 24 08       	mov    %r15,0x8(%rsp)
    43b5:	48 89 1c 24          	mov    %rbx,(%rsp)
    43b9:	74 16                	je     43d1 <main+0x331>
    43bb:	83 7c 24 70 01       	cmpl   $0x1,0x70(%rsp)
    43c0:	0f 84 be 0b 00 00    	je     4f84 <main+0xee4>
    43c6:	83 7c 24 70 00       	cmpl   $0x0,0x70(%rsp)
    43cb:	0f 85 77 1a 00 00    	jne    5e48 <main+0x1da8>
    43d1:	4c 89 e2             	mov    %r12,%rdx
    43d4:	49 0f af d4          	imul   %r12,%rdx
    43d8:	48 c1 e2 02          	shl    $0x2,%rdx
    43dc:	4c 89 ff             	mov    %r15,%rdi
    43df:	31 f6                	xor    %esi,%esi
    43e1:	48 89 54 24 18       	mov    %rdx,0x18(%rsp)
    43e6:	e8 b5 dc ff ff       	call   20a0 <memset@plt>
    43eb:	48 8b 05 c6 8b 00 00 	mov    0x8bc6(%rip),%rax        # cfb8 <_ZSt4cout@GLIBCXX_3.4>
    43f2:	48 8b 08             	mov    (%rax),%rcx
    43f5:	48 8b 49 e8          	mov    -0x18(%rcx),%rcx
    43f9:	4c 8b b4 08 f0 00 00 	mov    0xf0(%rax,%rcx,1),%r14
    4400:	00 
    4401:	4d 85 f6             	test   %r14,%r14
    4404:	0f 84 54 54 00 00    	je     985e <main+0x57be>
    440a:	41 80 7e 38 00       	cmpb   $0x0,0x38(%r14)
    440f:	74 07                	je     4418 <main+0x378>
    4411:	41 0f b6 46 43       	movzbl 0x43(%r14),%eax
    4416:	eb 16                	jmp    442e <main+0x38e>
    4418:	4c 89 f7             	mov    %r14,%rdi
    441b:	e8 30 dd ff ff       	call   2150 <_ZNKSt5ctypeIcE13_M_widen_initEv@plt>
    4420:	49 8b 06             	mov    (%r14),%rax
    4423:	4c 89 f7             	mov    %r14,%rdi
    4426:	be 0a 00 00 00       	mov    $0xa,%esi
    442b:	ff 50 30             	call   *0x30(%rax)
    442e:	0f be f0             	movsbl %al,%esi
    4431:	48 8b 3d 80 8b 00 00 	mov    0x8b80(%rip),%rdi        # cfb8 <_ZSt4cout@GLIBCXX_3.4>
    4438:	e8 f3 db ff ff       	call   2030 <_ZNSo3putEc@plt>
    443d:	48 89 c7             	mov    %rax,%rdi
    4440:	e8 7b dc ff ff       	call   20c0 <_ZNSo5flushEv@plt>
    4445:	49 89 c6             	mov    %rax,%r14
    4448:	48 8d 35 6b 70 00 00 	lea    0x706b(%rip),%rsi        # b4ba <_IO_stdin_used+0x4ba>
    444f:	ba 08 00 00 00       	mov    $0x8,%edx
    4454:	48 89 c7             	mov    %rax,%rdi
    4457:	e8 e4 dc ff ff       	call   2140 <_ZSt16__ostream_insertIcSt11char_traitsIcEERSt13basic_ostreamIT_T0_ES6_PKS3_l@plt>
    445c:	48 8d 35 60 70 00 00 	lea    0x7060(%rip),%rsi        # b4c3 <_IO_stdin_used+0x4c3>
    4463:	ba 15 00 00 00       	mov    $0x15,%edx
    4468:	4c 89 f7             	mov    %r14,%rdi
    446b:	e8 d0 dc ff ff       	call   2140 <_ZSt16__ostream_insertIcSt11char_traitsIcEERSt13basic_ostreamIT_T0_ES6_PKS3_l@plt>
    4470:	48 8d 35 62 70 00 00 	lea    0x7062(%rip),%rsi        # b4d9 <_IO_stdin_used+0x4d9>
    4477:	ba 05 00 00 00       	mov    $0x5,%edx
    447c:	4c 89 f7             	mov    %r14,%rdi
    447f:	e8 bc dc ff ff       	call   2140 <_ZSt16__ostream_insertIcSt11char_traitsIcEERSt13basic_ostreamIT_T0_ES6_PKS3_l@plt>
    4484:	bf 50 00 00 00       	mov    $0x50,%edi
    4489:	e8 82 dc ff ff       	call   2110 <_Znwm@plt>
    448e:	48 89 44 24 50       	mov    %rax,0x50(%rsp)
    4493:	62 d1 1e 08 7b c4    	vcvtusi2ss %r12d,%xmm12,%xmm0
    4499:	c5 f0 57 c9          	vxorps %xmm1,%xmm1,%xmm1
    449d:	c5 fc 11 48 30       	vmovups %ymm1,0x30(%rax)
    44a2:	c5 fc 11 48 20       	vmovups %ymm1,0x20(%rax)
    44a7:	48 89 84 24 80 00 00 	mov    %rax,0x80(%rsp)
    44ae:	00 
    44af:	c5 fc 11 08          	vmovups %ymm1,(%rax)
    44b3:	c5 fa 10 0d 49 6b 00 	vmovss 0x6b49(%rip),%xmm1        # b004 <_IO_stdin_used+0x4>
    44ba:	00 
    44bb:	49 8d 5c 24 ff       	lea    -0x1(%r12),%rbx
    44c0:	c5 f2 5e c0          	vdivss %xmm0,%xmm1,%xmm0
    44c4:	c5 fa 11 84 24 c0 00 	vmovss %xmm0,0xc0(%rsp)
    44cb:	00 00 
    44cd:	45 89 e5             	mov    %r12d,%r13d
    44d0:	41 83 e5 fe          	and    $0xfffffffe,%r13d
    44d4:	45 31 f6             	xor    %r14d,%r14d
    44d7:	eb 41                	jmp    451a <main+0x47a>
    44d9:	0f 1f 80 00 00 00 00 	nopl   0x0(%rax)
    44e0:	4c 89 ff             	mov    %r15,%rdi
    44e3:	31 f6                	xor    %esi,%esi
    44e5:	48 8b 54 24 18       	mov    0x18(%rsp),%rdx
    44ea:	e8 b1 db ff ff       	call   20a0 <memset@plt>
    44ef:	e8 4c db ff ff       	call   2040 <_ZNSt6chrono3_V212system_clock3nowEv@plt>
    44f4:	48 2b 44 24 10       	sub    0x10(%rsp),%rax
    44f9:	62 f1 9f 08 7b c0    	vcvtusi2sd %rax,%xmm12,%xmm0
    44ff:	48 8b 84 24 80 00 00 	mov    0x80(%rsp),%rax
    4506:	00 
    4507:	c4 a1 7b 11 04 f0    	vmovsd %xmm0,(%rax,%r14,8)
    450d:	49 ff c6             	inc    %r14
    4510:	49 83 fe 0a          	cmp    $0xa,%r14
    4514:	0f 84 b0 01 00 00    	je     46ca <main+0x62a>
    451a:	c5 f8 77             	vzeroupper
    451d:	e8 1e db ff ff       	call   2040 <_ZNSt6chrono3_V212system_clock3nowEv@plt>
    4522:	48 89 44 24 10       	mov    %rax,0x10(%rsp)
    4527:	4d 85 e4             	test   %r12,%r12
    452a:	c5 fa 10 bc 24 c0 00 	vmovss 0xc0(%rsp),%xmm7
    4531:	00 00 
    4533:	c5 7a 10 05 cd 6a 00 	vmovss 0x6acd(%rip),%xmm8        # b008 <_IO_stdin_used+0x8>
    453a:	00 
    453b:	c5 7a 10 0d c9 6a 00 	vmovss 0x6ac9(%rip),%xmm9        # b00c <_IO_stdin_used+0xc>
    4542:	00 
    4543:	c5 7a 10 15 c5 6a 00 	vmovss 0x6ac5(%rip),%xmm10        # b010 <_IO_stdin_used+0x10>
    454a:	00 
    454b:	c5 7a 10 1d c1 6a 00 	vmovss 0x6ac1(%rip),%xmm11        # b014 <_IO_stdin_used+0x14>
    4552:	00 
    4553:	74 9a                	je     44ef <main+0x44f>
    4555:	85 ed                	test   %ebp,%ebp
    4557:	74 87                	je     44e0 <main+0x440>
    4559:	31 c0                	xor    %eax,%eax
    455b:	eb 0e                	jmp    456b <main+0x4cb>
    455d:	0f 1f 00             	nopl   (%rax)
    4560:	89 34 91             	mov    %esi,(%rcx,%rdx,4)
    4563:	48 ff c0             	inc    %rax
    4566:	4c 39 e0             	cmp    %r12,%rax
    4569:	74 84                	je     44ef <main+0x44f>
    456b:	c4 e1 9a 2a c0       	vcvtsi2ss %rax,%xmm12,%xmm0
    4570:	48 89 c1             	mov    %rax,%rcx
    4573:	49 0f af cc          	imul   %r12,%rcx
    4577:	c5 ba 59 c0          	vmulss %xmm0,%xmm8,%xmm0
    457b:	c4 c2 41 a9 c1       	vfmadd213ss %xmm9,%xmm7,%xmm0
    4580:	49 8d 0c 8f          	lea    (%r15,%rcx,4),%rcx
    4584:	31 d2                	xor    %edx,%edx
    4586:	48 85 db             	test   %rbx,%rbx
    4589:	0f 85 81 00 00 00    	jne    4610 <main+0x570>
    458f:	41 f6 c4 01          	test   $0x1,%r12b
    4593:	74 ce                	je     4563 <main+0x4c3>
    4595:	c4 e1 9a 2a ca       	vcvtsi2ss %rdx,%xmm12,%xmm1
    459a:	c5 ba 59 c9          	vmulss %xmm1,%xmm8,%xmm1
    459e:	c4 c2 41 a9 ca       	vfmadd213ss %xmm10,%xmm7,%xmm1
    45a3:	31 f6                	xor    %esi,%esi
    45a5:	c5 d8 57 e4          	vxorps %xmm4,%xmm4,%xmm4
    45a9:	c5 d0 57 ed          	vxorps %xmm5,%xmm5,%xmm5
    45ad:	c5 e8 57 d2          	vxorps %xmm2,%xmm2,%xmm2
    45b1:	c5 e0 57 db          	vxorps %xmm3,%xmm3,%xmm3
    45b5:	66 66 2e 0f 1f 84 00 	data16 cs nopw 0x0(%rax,%rax,1)
    45bc:	00 00 00 00 
    45c0:	c5 d2 5c e4          	vsubss %xmm4,%xmm5,%xmm4
    45c4:	c5 e2 5c d2          	vsubss %xmm2,%xmm3,%xmm2
    45c8:	c5 f2 58 ea          	vaddss %xmm2,%xmm1,%xmm5
    45cc:	c5 fa 58 f4          	vaddss %xmm4,%xmm0,%xmm6
    45d0:	c5 d2 59 dd          	vmulss %xmm5,%xmm5,%xmm3
    45d4:	c5 ca 59 d6          	vmulss %xmm6,%xmm6,%xmm2
    45d8:	ff c6                	inc    %esi
    45da:	c5 e2 58 e2          	vaddss %xmm2,%xmm3,%xmm4
    45de:	c4 c1 78 2e e3       	vucomiss %xmm11,%xmm4
    45e3:	0f 87 77 ff ff ff    	ja     4560 <main+0x4c0>
    45e9:	c5 d2 58 ee          	vaddss %xmm6,%xmm5,%xmm5
    45ed:	c5 d2 59 ed          	vmulss %xmm5,%xmm5,%xmm5
    45f1:	39 ee                	cmp    %ebp,%esi
    45f3:	72 cb                	jb     45c0 <main+0x520>
    45f5:	e9 66 ff ff ff       	jmp    4560 <main+0x4c0>
    45fa:	66 0f 1f 44 00 00    	nopw   0x0(%rax,%rax,1)
    4600:	89 3c b1             	mov    %edi,(%rcx,%rsi,4)
    4603:	48 83 c2 02          	add    $0x2,%rdx
    4607:	4c 39 ea             	cmp    %r13,%rdx
    460a:	0f 84 7f ff ff ff    	je     458f <main+0x4ef>
    4610:	c4 e1 9a 2a ca       	vcvtsi2ss %rdx,%xmm12,%xmm1
    4615:	c5 ba 59 c9          	vmulss %xmm1,%xmm8,%xmm1
    4619:	c4 c2 41 a9 ca       	vfmadd213ss %xmm10,%xmm7,%xmm1
    461e:	31 f6                	xor    %esi,%esi
    4620:	c5 d8 57 e4          	vxorps %xmm4,%xmm4,%xmm4
    4624:	c5 d0 57 ed          	vxorps %xmm5,%xmm5,%xmm5
    4628:	c5 e8 57 d2          	vxorps %xmm2,%xmm2,%xmm2
    462c:	c5 e0 57 db          	vxorps %xmm3,%xmm3,%xmm3
    4630:	c5 d2 5c e4          	vsubss %xmm4,%xmm5,%xmm4
    4634:	c5 e2 5c d2          	vsubss %xmm2,%xmm3,%xmm2
    4638:	c5 f2 58 ea          	vaddss %xmm2,%xmm1,%xmm5
    463c:	c5 fa 58 f4          	vaddss %xmm4,%xmm0,%xmm6
    4640:	c5 d2 59 dd          	vmulss %xmm5,%xmm5,%xmm3
    4644:	c5 ca 59 d6          	vmulss %xmm6,%xmm6,%xmm2
    4648:	ff c6                	inc    %esi
    464a:	c5 e2 58 e2          	vaddss %xmm2,%xmm3,%xmm4
    464e:	c4 c1 78 2e e3       	vucomiss %xmm11,%xmm4
    4653:	77 0c                	ja     4661 <main+0x5c1>
    4655:	c5 d2 58 ee          	vaddss %xmm6,%xmm5,%xmm5
    4659:	c5 d2 59 ed          	vmulss %xmm5,%xmm5,%xmm5
    465d:	39 ee                	cmp    %ebp,%esi
    465f:	72 cf                	jb     4630 <main+0x590>
    4661:	89 34 91             	mov    %esi,(%rcx,%rdx,4)
    4664:	48 89 d6             	mov    %rdx,%rsi
    4667:	48 83 ce 01          	or     $0x1,%rsi
    466b:	c4 e1 9a 2a ce       	vcvtsi2ss %rsi,%xmm12,%xmm1
    4670:	c5 ba 59 c9          	vmulss %xmm1,%xmm8,%xmm1
    4674:	c4 c2 41 a9 ca       	vfmadd213ss %xmm10,%xmm7,%xmm1
    4679:	31 ff                	xor    %edi,%edi
    467b:	c5 d8 57 e4          	vxorps %xmm4,%xmm4,%xmm4
    467f:	c5 d0 57 ed          	vxorps %xmm5,%xmm5,%xmm5
    4683:	c5 e8 57 d2          	vxorps %xmm2,%xmm2,%xmm2
    4687:	c5 e0 57 db          	vxorps %xmm3,%xmm3,%xmm3
    468b:	0f 1f 44 00 00       	nopl   0x0(%rax,%rax,1)
    4690:	c5 d2 5c e4          	vsubss %xmm4,%xmm5,%xmm4
    4694:	c5 e2 5c d2          	vsubss %xmm2,%xmm3,%xmm2
    4698:	c5 f2 58 ea          	vaddss %xmm2,%xmm1,%xmm5
    469c:	c5 fa 58 f4          	vaddss %xmm4,%xmm0,%xmm6
    46a0:	c5 d2 59 dd          	vmulss %xmm5,%xmm5,%xmm3
    46a4:	c5 ca 59 d6          	vmulss %xmm6,%xmm6,%xmm2
    46a8:	ff c7                	inc    %edi
    46aa:	c5 e2 58 e2          	vaddss %xmm2,%xmm3,%xmm4
    46ae:	c4 c1 78 2e e3       	vucomiss %xmm11,%xmm4
    46b3:	0f 87 47 ff ff ff    	ja     4600 <main+0x560>
    46b9:	c5 d2 58 ee          	vaddss %xmm6,%xmm5,%xmm5
    46bd:	c5 d2 59 ed          	vmulss %xmm5,%xmm5,%xmm5
    46c1:	39 ef                	cmp    %ebp,%edi
    46c3:	72 cb                	jb     4690 <main+0x5f0>
    46c5:	e9 36 ff ff ff       	jmp    4600 <main+0x560>
    46ca:	4c 8b 6c 24 50       	mov    0x50(%rsp),%r13
    46cf:	49 83 c5 50          	add    $0x50,%r13
    46d3:	ba 06 00 00 00       	mov    $0x6,%edx
    46d8:	4c 8b b4 24 80 00 00 	mov    0x80(%rsp),%r14
    46df:	00 
    46e0:	4c 89 f7             	mov    %r14,%rdi
    46e3:	4c 89 ee             	mov    %r13,%rsi
    46e6:	e8 05 54 00 00       	call   9af0 <_ZSt16__introsort_loopIN9__gnu_cxx17__normal_iteratorIPdSt6vectorIdSaIdEEEElNS0_5__ops15_Iter_less_iterEEvT_S9_T0_T1_>
    46eb:	4c 89 f7             	mov    %r14,%rdi
    46ee:	4c 89 ee             	mov    %r13,%rsi
    46f1:	e8 9a 56 00 00       	call   9d90 <_ZSt22__final_insertion_sortIN9__gnu_cxx17__normal_iteratorIPdSt6vectorIdSaIdEEEENS0_5__ops15_Iter_less_iterEEvT_S9_T0_>
    46f6:	48 8d bc 24 20 01 00 	lea    0x120(%rsp),%rdi
    46fd:	00 
    46fe:	e8 cd d9 ff ff       	call   20d0 <_ZNSt7__cxx1118basic_stringstreamIcSt11char_traitsIcESaIcEEC1Ev@plt>
    4703:	48 8d bc 24 30 01 00 	lea    0x130(%rsp),%rdi
    470a:	00 
    470b:	48 8b 84 24 30 01 00 	mov    0x130(%rsp),%rax
    4712:	00 
    4713:	48 8b 48 e8          	mov    -0x18(%rax),%rcx
    4717:	ba fb fe ff ff       	mov    $0xfffffefb,%edx
    471c:	23 94 0c 48 01 00 00 	and    0x148(%rsp,%rcx,1),%edx
    4723:	83 ca 04             	or     $0x4,%edx
    4726:	89 94 0c 48 01 00 00 	mov    %edx,0x148(%rsp,%rcx,1)
    472d:	48 8b 48 e8          	mov    -0x18(%rax),%rcx
    4731:	48 c7 84 0c 40 01 00 	movq   $0x6,0x140(%rsp,%rcx,1)
    4738:	00 06 00 00 00 
    473d:	48 8b 40 e8          	mov    -0x18(%rax),%rax
    4741:	48 c7 84 04 38 01 00 	movq   $0x2,0x138(%rsp,%rax,1)
    4748:	00 02 00 00 00 
    474d:	c4 c1 7b 10 06       	vmovsd (%r14),%xmm0
    4752:	c5 fb 59 05 66 6c 00 	vmulsd 0x6c66(%rip),%xmm0,%xmm0        # b3c0 <_IO_stdin_used+0x3c0>
    4759:	00 
    475a:	e8 71 da ff ff       	call   21d0 <_ZNSo9_M_insertIdEERSoT_@plt>
    475f:	48 8b 3d 52 88 00 00 	mov    0x8852(%rip),%rdi        # cfb8 <_ZSt4cout@GLIBCXX_3.4>
    4766:	48 8d 35 72 6d 00 00 	lea    0x6d72(%rip),%rsi        # b4df <_IO_stdin_used+0x4df>
    476d:	ba 0b 00 00 00       	mov    $0xb,%edx
    4772:	e8 c9 d9 ff ff       	call   2140 <_ZSt16__ostream_insertIcSt11char_traitsIcEERSt13basic_ostreamIT_T0_ES6_PKS3_l@plt>
    4777:	48 8d 44 24 30       	lea    0x30(%rsp),%rax
    477c:	48 89 44 24 20       	mov    %rax,0x20(%rsp)
    4781:	48 c7 44 24 28 00 00 	movq   $0x0,0x28(%rsp)
    4788:	00 00 
    478a:	c6 44 24 30 00       	movb   $0x0,0x30(%rsp)
    478f:	4c 8b 84 24 50 01 00 	mov    0x150(%rsp),%r8
    4796:	00 
    4797:	48 8b 84 24 60 01 00 	mov    0x160(%rsp),%rax
    479e:	00 
    479f:	48 85 c0             	test   %rax,%rax
    47a2:	0f 94 c1             	sete   %cl
    47a5:	4c 39 c0             	cmp    %r8,%rax
    47a8:	4c 0f 47 c0          	cmova  %rax,%r8
    47ac:	4d 85 c0             	test   %r8,%r8
    47af:	0f 94 c0             	sete   %al
    47b2:	08 c8                	or     %cl,%al
    47b4:	74 14                	je     47ca <main+0x72a>
    47b6:	48 8d b4 24 80 01 00 	lea    0x180(%rsp),%rsi
    47bd:	00 
    47be:	48 8d 7c 24 20       	lea    0x20(%rsp),%rdi
    47c3:	e8 d8 5c 00 00       	call   a4a0 <_ZNSt7__cxx1112basic_stringIcSt11char_traitsIcESaIcEE9_M_assignERKS4_>
    47c8:	eb 19                	jmp    47e3 <main+0x743>
    47ca:	48 8b 8c 24 58 01 00 	mov    0x158(%rsp),%rcx
    47d1:	00 
    47d2:	49 29 c8             	sub    %rcx,%r8
    47d5:	48 8d 7c 24 20       	lea    0x20(%rsp),%rdi
    47da:	31 f6                	xor    %esi,%esi
    47dc:	31 d2                	xor    %edx,%edx
    47de:	e8 ed 59 00 00       	call   a1d0 <_ZNSt7__cxx1112basic_stringIcSt11char_traitsIcESaIcEE10_M_replaceEmmPKcm>
    47e3:	48 8b 74 24 20       	mov    0x20(%rsp),%rsi
    47e8:	48 8b 54 24 28       	mov    0x28(%rsp),%rdx
    47ed:	48 8b 3d c4 87 00 00 	mov    0x87c4(%rip),%rdi        # cfb8 <_ZSt4cout@GLIBCXX_3.4>
    47f4:	e8 47 d9 ff ff       	call   2140 <_ZSt16__ostream_insertIcSt11char_traitsIcEERSt13basic_ostreamIT_T0_ES6_PKS3_l@plt>
    47f9:	49 89 c6             	mov    %rax,%r14
    47fc:	48 8d 35 e8 6c 00 00 	lea    0x6ce8(%rip),%rsi        # b4eb <_IO_stdin_used+0x4eb>
    4803:	ba 03 00 00 00       	mov    $0x3,%edx
    4808:	48 89 c7             	mov    %rax,%rdi
    480b:	e8 30 d9 ff ff       	call   2140 <_ZSt16__ostream_insertIcSt11char_traitsIcEERSt13basic_ostreamIT_T0_ES6_PKS3_l@plt>
    4810:	49 8b 06             	mov    (%r14),%rax
    4813:	48 8b 40 e8          	mov    -0x18(%rax),%rax
    4817:	4d 89 f5             	mov    %r14,%r13
    481a:	4d 8b b4 06 f0 00 00 	mov    0xf0(%r14,%rax,1),%r14
    4821:	00 
    4822:	4d 85 f6             	test   %r14,%r14
    4825:	0f 84 42 50 00 00    	je     986d <main+0x57cd>
    482b:	41 80 7e 38 00       	cmpb   $0x0,0x38(%r14)
    4830:	74 07                	je     4839 <main+0x799>
    4832:	41 0f b6 46 43       	movzbl 0x43(%r14),%eax
    4837:	eb 16                	jmp    484f <main+0x7af>
    4839:	4c 89 f7             	mov    %r14,%rdi
    483c:	e8 0f d9 ff ff       	call   2150 <_ZNKSt5ctypeIcE13_M_widen_initEv@plt>
    4841:	49 8b 06             	mov    (%r14),%rax
    4844:	4c 89 f7             	mov    %r14,%rdi
    4847:	be 0a 00 00 00       	mov    $0xa,%esi
    484c:	ff 50 30             	call   *0x30(%rax)
    484f:	0f be f0             	movsbl %al,%esi
    4852:	4c 89 ef             	mov    %r13,%rdi
    4855:	e8 d6 d7 ff ff       	call   2030 <_ZNSo3putEc@plt>
    485a:	48 89 c7             	mov    %rax,%rdi
    485d:	e8 5e d8 ff ff       	call   20c0 <_ZNSo5flushEv@plt>
    4862:	48 89 5c 24 48       	mov    %rbx,0x48(%rsp)
    4867:	48 8b 7c 24 20       	mov    0x20(%rsp),%rdi
    486c:	48 8d 44 24 30       	lea    0x30(%rsp),%rax
    4871:	48 39 c7             	cmp    %rax,%rdi
    4874:	74 0d                	je     4883 <main+0x7e3>
    4876:	48 8b 74 24 30       	mov    0x30(%rsp),%rsi
    487b:	48 ff c6             	inc    %rsi
    487e:	e8 9d d8 ff ff       	call   2120 <_ZdlPvm@plt>
    4883:	48 8b 1d 0e 87 00 00 	mov    0x870e(%rip),%rbx        # cf98 <_ZTTNSt7__cxx1118basic_stringstreamIcSt11char_traitsIcESaIcEEE@GLIBCXX_3.4.21>
    488a:	48 8b 03             	mov    (%rbx),%rax
    488d:	48 8b 4b 40          	mov    0x40(%rbx),%rcx
    4891:	48 89 84 24 20 01 00 	mov    %rax,0x120(%rsp)
    4898:	00 
    4899:	48 8b 40 e8          	mov    -0x18(%rax),%rax
    489d:	48 89 8c 04 20 01 00 	mov    %rcx,0x120(%rsp,%rax,1)
    48a4:	00 
    48a5:	48 8b 43 48          	mov    0x48(%rbx),%rax
    48a9:	48 89 84 24 30 01 00 	mov    %rax,0x130(%rsp)
    48b0:	00 
    48b1:	48 8b 05 28 87 00 00 	mov    0x8728(%rip),%rax        # cfe0 <_ZTVNSt7__cxx1115basic_stringbufIcSt11char_traitsIcESaIcEEE@GLIBCXX_3.4.21>
    48b8:	48 83 c0 10          	add    $0x10,%rax
    48bc:	48 89 84 24 38 01 00 	mov    %rax,0x138(%rsp)
    48c3:	00 
    48c4:	48 8b bc 24 80 01 00 	mov    0x180(%rsp),%rdi
    48cb:	00 
    48cc:	48 8d 84 24 90 01 00 	lea    0x190(%rsp),%rax
    48d3:	00 
    48d4:	48 39 c7             	cmp    %rax,%rdi
    48d7:	4c 8b b4 24 80 00 00 	mov    0x80(%rsp),%r14
    48de:	00 
    48df:	74 10                	je     48f1 <main+0x851>
    48e1:	48 8b b4 24 90 01 00 	mov    0x190(%rsp),%rsi
    48e8:	00 
    48e9:	48 ff c6             	inc    %rsi
    48ec:	e8 2f d8 ff ff       	call   2120 <_ZdlPvm@plt>
    48f1:	48 8b 05 b0 86 00 00 	mov    0x86b0(%rip),%rax        # cfa8 <_ZTVSt15basic_streambufIcSt11char_traitsIcEE@GLIBCXX_3.4>
    48f8:	48 83 c0 10          	add    $0x10,%rax
    48fc:	48 89 84 24 38 01 00 	mov    %rax,0x138(%rsp)
    4903:	00 
    4904:	48 8d bc 24 70 01 00 	lea    0x170(%rsp),%rdi
    490b:	00 
    490c:	e8 9f d8 ff ff       	call   21b0 <_ZNSt6localeD1Ev@plt>
    4911:	48 8b 43 10          	mov    0x10(%rbx),%rax
    4915:	48 8b 4b 18          	mov    0x18(%rbx),%rcx
    4919:	48 89 84 24 20 01 00 	mov    %rax,0x120(%rsp)
    4920:	00 
    4921:	48 8b 40 e8          	mov    -0x18(%rax),%rax
    4925:	48 89 8c 04 20 01 00 	mov    %rcx,0x120(%rsp,%rax,1)
    492c:	00 
    492d:	48 c7 84 24 28 01 00 	movq   $0x0,0x128(%rsp)
    4934:	00 00 00 00 00 
    4939:	48 8d bc 24 a0 01 00 	lea    0x1a0(%rsp),%rdi
    4940:	00 
    4941:	e8 0a d7 ff ff       	call   2050 <_ZNSt8ios_baseD2Ev@plt>
    4946:	be 50 00 00 00       	mov    $0x50,%esi
    494b:	4c 89 f7             	mov    %r14,%rdi
    494e:	e8 cd d7 ff ff       	call   2120 <_ZdlPvm@plt>
    4953:	41 89 e8             	mov    %ebp,%r8d
    4956:	4d 85 e4             	test   %r12,%r12
    4959:	48 8b 1c 24          	mov    (%rsp),%rbx
    495d:	0f 84 1a 03 00 00    	je     4c7d <main+0xbdd>
    4963:	44 89 e0             	mov    %r12d,%eax
    4966:	83 e0 e0             	and    $0xffffffe0,%eax
    4969:	44 89 e1             	mov    %r12d,%ecx
    496c:	83 e1 fc             	and    $0xfffffffc,%ecx
    496f:	48 89 ca             	mov    %rcx,%rdx
    4972:	48 f7 da             	neg    %rdx
    4975:	31 f6                	xor    %esi,%esi
    4977:	31 ff                	xor    %edi,%edi
    4979:	41 89 e8             	mov    %ebp,%r8d
    497c:	eb 10                	jmp    498e <main+0x8ee>
    497e:	66 90                	xchg   %ax,%ax
    4980:	ff c7                	inc    %edi
    4982:	4c 01 e6             	add    %r12,%rsi
    4985:	44 39 e7             	cmp    %r12d,%edi
    4988:	0f 84 ef 02 00 00    	je     4c7d <main+0xbdd>
    498e:	41 83 fc 03          	cmp    $0x3,%r12d
    4992:	76 27                	jbe    49bb <main+0x91b>
    4994:	4c 8b 5c 24 48       	mov    0x48(%rsp),%r11
    4999:	4d 89 d9             	mov    %r11,%r9
    499c:	49 c1 e9 20          	shr    $0x20,%r9
    49a0:	41 0f 95 c1          	setne  %r9b
    49a4:	45 89 e2             	mov    %r12d,%r10d
    49a7:	44 0f af d7          	imul   %edi,%r10d
    49ab:	45 01 da             	add    %r11d,%r10d
    49ae:	41 0f 92 c2          	setb   %r10b
    49b2:	45 08 ca             	or     %r9b,%r10b
    49b5:	0f 84 c5 01 00 00    	je     4b80 <main+0xae0>
    49bb:	45 31 d2             	xor    %r10d,%r10d
    49be:	45 89 e3             	mov    %r12d,%r11d
    49c1:	45 29 d3             	sub    %r10d,%r11d
    49c4:	4d 89 d1             	mov    %r10,%r9
    49c7:	41 83 e3 07          	and    $0x7,%r11d
    49cb:	74 1a                	je     49e7 <main+0x947>
    49cd:	0f 1f 00             	nopl   (%rax)
    49d0:	42 8d 1c 0e          	lea    (%rsi,%r9,1),%ebx
    49d4:	41 8b 1c 9f          	mov    (%r15,%rbx,4),%ebx
    49d8:	44 39 c3             	cmp    %r8d,%ebx
    49db:	44 0f 42 c3          	cmovb  %ebx,%r8d
    49df:	49 ff c1             	inc    %r9
    49e2:	49 ff cb             	dec    %r11
    49e5:	75 e9                	jne    49d0 <main+0x930>
    49e7:	4d 29 e2             	sub    %r12,%r10
    49ea:	49 83 fa f8          	cmp    $0xfffffffffffffff8,%r10
    49ee:	48 8b 1c 24          	mov    (%rsp),%rbx
    49f2:	76 19                	jbe    4a0d <main+0x96d>
    49f4:	eb 8a                	jmp    4980 <main+0x8e0>
    49f6:	66 2e 0f 1f 84 00 00 	cs nopw 0x0(%rax,%rax,1)
    49fd:	00 00 00 
    4a00:	49 83 c1 08          	add    $0x8,%r9
    4a04:	4d 39 cc             	cmp    %r9,%r12
    4a07:	0f 84 73 ff ff ff    	je     4980 <main+0x8e0>
    4a0d:	46 8d 14 0e          	lea    (%rsi,%r9,1),%r10d
    4a11:	47 8b 14 97          	mov    (%r15,%r10,4),%r10d
    4a15:	45 39 c2             	cmp    %r8d,%r10d
    4a18:	0f 82 b2 00 00 00    	jb     4ad0 <main+0xa30>
    4a1e:	45 89 c2             	mov    %r8d,%r10d
    4a21:	46 8d 04 0e          	lea    (%rsi,%r9,1),%r8d
    4a25:	41 ff c0             	inc    %r8d
    4a28:	47 8b 04 87          	mov    (%r15,%r8,4),%r8d
    4a2c:	45 39 d0             	cmp    %r10d,%r8d
    4a2f:	0f 83 af 00 00 00    	jae    4ae4 <main+0xa44>
    4a35:	46 8d 14 0e          	lea    (%rsi,%r9,1),%r10d
    4a39:	41 83 c2 02          	add    $0x2,%r10d
    4a3d:	47 8b 14 97          	mov    (%r15,%r10,4),%r10d
    4a41:	45 39 c2             	cmp    %r8d,%r10d
    4a44:	0f 82 b2 00 00 00    	jb     4afc <main+0xa5c>
    4a4a:	45 89 c2             	mov    %r8d,%r10d
    4a4d:	46 8d 04 0e          	lea    (%rsi,%r9,1),%r8d
    4a51:	41 83 c0 03          	add    $0x3,%r8d
    4a55:	47 8b 04 87          	mov    (%r15,%r8,4),%r8d
    4a59:	45 39 d0             	cmp    %r10d,%r8d
    4a5c:	0f 83 af 00 00 00    	jae    4b11 <main+0xa71>
    4a62:	46 8d 14 0e          	lea    (%rsi,%r9,1),%r10d
    4a66:	41 83 c2 04          	add    $0x4,%r10d
    4a6a:	47 8b 14 97          	mov    (%r15,%r10,4),%r10d
    4a6e:	45 39 c2             	cmp    %r8d,%r10d
    4a71:	0f 82 b2 00 00 00    	jb     4b29 <main+0xa89>
    4a77:	45 89 c2             	mov    %r8d,%r10d
    4a7a:	46 8d 04 0e          	lea    (%rsi,%r9,1),%r8d
    4a7e:	41 83 c0 05          	add    $0x5,%r8d
    4a82:	47 8b 04 87          	mov    (%r15,%r8,4),%r8d
    4a86:	45 39 d0             	cmp    %r10d,%r8d
    4a89:	0f 83 af 00 00 00    	jae    4b3e <main+0xa9e>
    4a8f:	46 8d 14 0e          	lea    (%rsi,%r9,1),%r10d
    4a93:	41 83 c2 06          	add    $0x6,%r10d
    4a97:	47 8b 14 97          	mov    (%r15,%r10,4),%r10d
    4a9b:	45 39 c2             	cmp    %r8d,%r10d
    4a9e:	0f 82 b2 00 00 00    	jb     4b56 <main+0xab6>
    4aa4:	45 89 c2             	mov    %r8d,%r10d
    4aa7:	46 8d 04 0e          	lea    (%rsi,%r9,1),%r8d
    4aab:	41 83 c0 07          	add    $0x7,%r8d
    4aaf:	47 8b 04 87          	mov    (%r15,%r8,4),%r8d
    4ab3:	45 39 d0             	cmp    %r10d,%r8d
    4ab6:	0f 82 44 ff ff ff    	jb     4a00 <main+0x960>
    4abc:	e9 aa 00 00 00       	jmp    4b6b <main+0xacb>
    4ac1:	66 66 66 66 66 66 2e 	data16 data16 data16 data16 data16 cs nopw 0x0(%rax,%rax,1)
    4ac8:	0f 1f 84 00 00 00 00 
    4acf:	00 
    4ad0:	46 8d 04 0e          	lea    (%rsi,%r9,1),%r8d
    4ad4:	41 ff c0             	inc    %r8d
    4ad7:	47 8b 04 87          	mov    (%r15,%r8,4),%r8d
    4adb:	45 39 d0             	cmp    %r10d,%r8d
    4ade:	0f 82 51 ff ff ff    	jb     4a35 <main+0x995>
    4ae4:	45 89 d0             	mov    %r10d,%r8d
    4ae7:	46 8d 14 0e          	lea    (%rsi,%r9,1),%r10d
    4aeb:	41 83 c2 02          	add    $0x2,%r10d
    4aef:	47 8b 14 97          	mov    (%r15,%r10,4),%r10d
    4af3:	45 39 c2             	cmp    %r8d,%r10d
    4af6:	0f 83 4e ff ff ff    	jae    4a4a <main+0x9aa>
    4afc:	46 8d 04 0e          	lea    (%rsi,%r9,1),%r8d
    4b00:	41 83 c0 03          	add    $0x3,%r8d
    4b04:	47 8b 04 87          	mov    (%r15,%r8,4),%r8d
    4b08:	45 39 d0             	cmp    %r10d,%r8d
    4b0b:	0f 82 51 ff ff ff    	jb     4a62 <main+0x9c2>
    4b11:	45 89 d0             	mov    %r10d,%r8d
    4b14:	46 8d 14 0e          	lea    (%rsi,%r9,1),%r10d
    4b18:	41 83 c2 04          	add    $0x4,%r10d
    4b1c:	47 8b 14 97          	mov    (%r15,%r10,4),%r10d
    4b20:	45 39 c2             	cmp    %r8d,%r10d
    4b23:	0f 83 4e ff ff ff    	jae    4a77 <main+0x9d7>
    4b29:	46 8d 04 0e          	lea    (%rsi,%r9,1),%r8d
    4b2d:	41 83 c0 05          	add    $0x5,%r8d
    4b31:	47 8b 04 87          	mov    (%r15,%r8,4),%r8d
    4b35:	45 39 d0             	cmp    %r10d,%r8d
    4b38:	0f 82 51 ff ff ff    	jb     4a8f <main+0x9ef>
    4b3e:	45 89 d0             	mov    %r10d,%r8d
    4b41:	46 8d 14 0e          	lea    (%rsi,%r9,1),%r10d
    4b45:	41 83 c2 06          	add    $0x6,%r10d
    4b49:	47 8b 14 97          	mov    (%r15,%r10,4),%r10d
    4b4d:	45 39 c2             	cmp    %r8d,%r10d
    4b50:	0f 83 4e ff ff ff    	jae    4aa4 <main+0xa04>
    4b56:	46 8d 04 0e          	lea    (%rsi,%r9,1),%r8d
    4b5a:	41 83 c0 07          	add    $0x7,%r8d
    4b5e:	47 8b 04 87          	mov    (%r15,%r8,4),%r8d
    4b62:	45 39 d0             	cmp    %r10d,%r8d
    4b65:	0f 82 95 fe ff ff    	jb     4a00 <main+0x960>
    4b6b:	45 89 d0             	mov    %r10d,%r8d
    4b6e:	e9 8d fe ff ff       	jmp    4a00 <main+0x960>
    4b73:	66 66 66 66 2e 0f 1f 	data16 data16 data16 cs nopw 0x0(%rax,%rax,1)
    4b7a:	84 00 00 00 00 00 
    4b80:	41 83 fc 20          	cmp    $0x20,%r12d
    4b84:	73 08                	jae    4b8e <main+0xaee>
    4b86:	45 31 c9             	xor    %r9d,%r9d
    4b89:	e9 96 00 00 00       	jmp    4c24 <main+0xb84>
    4b8e:	62 d2 7d 28 7c c0    	vpbroadcastd %r8d,%ymm0
    4b94:	41 89 f0             	mov    %esi,%r8d
    4b97:	49 89 c1             	mov    %rax,%r9
    4b9a:	c5 fd 6f c8          	vmovdqa %ymm0,%ymm1
    4b9e:	c5 fd 6f d0          	vmovdqa %ymm0,%ymm2
    4ba2:	c5 fd 6f d8          	vmovdqa %ymm0,%ymm3
    4ba6:	66 2e 0f 1f 84 00 00 	cs nopw 0x0(%rax,%rax,1)
    4bad:	00 00 00 
    4bb0:	45 89 c2             	mov    %r8d,%r10d
    4bb3:	c4 82 7d 3b 04 97    	vpminud (%r15,%r10,4),%ymm0,%ymm0
    4bb9:	c4 82 75 3b 4c 97 20 	vpminud 0x20(%r15,%r10,4),%ymm1,%ymm1
    4bc0:	c4 82 6d 3b 54 97 40 	vpminud 0x40(%r15,%r10,4),%ymm2,%ymm2
    4bc7:	c4 82 65 3b 5c 97 60 	vpminud 0x60(%r15,%r10,4),%ymm3,%ymm3
    4bce:	41 83 c0 20          	add    $0x20,%r8d
    4bd2:	49 83 c1 e0          	add    $0xffffffffffffffe0,%r9
    4bd6:	75 d8                	jne    4bb0 <main+0xb10>
    4bd8:	c4 e2 7d 3b c1       	vpminud %ymm1,%ymm0,%ymm0
    4bdd:	c4 e2 6d 3b cb       	vpminud %ymm3,%ymm2,%ymm1
    4be2:	c4 e2 7d 3b c1       	vpminud %ymm1,%ymm0,%ymm0
    4be7:	c4 e3 7d 39 c1 01    	vextracti128 $0x1,%ymm0,%xmm1
    4bed:	c4 e2 79 3b c1       	vpminud %xmm1,%xmm0,%xmm0
    4bf2:	c5 f9 70 c8 ee       	vpshufd $0xee,%xmm0,%xmm1
    4bf7:	c4 e2 79 3b c1       	vpminud %xmm1,%xmm0,%xmm0
    4bfc:	c5 f9 70 c8 55       	vpshufd $0x55,%xmm0,%xmm1
    4c01:	c4 e2 79 3b c1       	vpminud %xmm1,%xmm0,%xmm0
    4c06:	c4 c1 79 7e c0       	vmovd  %xmm0,%r8d
    4c0b:	44 39 e0             	cmp    %r12d,%eax
    4c0e:	0f 84 6c fd ff ff    	je     4980 <main+0x8e0>
    4c14:	49 89 c2             	mov    %rax,%r10
    4c17:	49 89 c1             	mov    %rax,%r9
    4c1a:	41 f6 c4 1c          	test   $0x1c,%r12b
    4c1e:	0f 84 9a fd ff ff    	je     49be <main+0x91e>
    4c24:	62 d2 7d 08 7c c0    	vpbroadcastd %r8d,%xmm0
    4c2a:	4e 8d 04 0a          	lea    (%rdx,%r9,1),%r8
    4c2e:	41 01 f1             	add    %esi,%r9d
    4c31:	66 66 66 66 66 66 2e 	data16 data16 data16 data16 data16 cs nopw 0x0(%rax,%rax,1)
    4c38:	0f 1f 84 00 00 00 00 
    4c3f:	00 
    4c40:	45 89 ca             	mov    %r9d,%r10d
    4c43:	c4 82 79 3b 04 97    	vpminud (%r15,%r10,4),%xmm0,%xmm0
    4c49:	41 83 c1 04          	add    $0x4,%r9d
    4c4d:	49 83 c0 04          	add    $0x4,%r8
    4c51:	75 ed                	jne    4c40 <main+0xba0>
    4c53:	c5 f9 70 c8 ee       	vpshufd $0xee,%xmm0,%xmm1
    4c58:	c4 e2 79 3b c1       	vpminud %xmm1,%xmm0,%xmm0
    4c5d:	c5 f9 70 c8 55       	vpshufd $0x55,%xmm0,%xmm1
    4c62:	c4 e2 79 3b c1       	vpminud %xmm1,%xmm0,%xmm0
    4c67:	c4 c1 79 7e c0       	vmovd  %xmm0,%r8d
    4c6c:	49 89 ca             	mov    %rcx,%r10
    4c6f:	44 39 e1             	cmp    %r12d,%ecx
    4c72:	0f 84 08 fd ff ff    	je     4980 <main+0x8e0>
    4c78:	e9 41 fd ff ff       	jmp    49be <main+0x91e>
    4c7d:	62 d1 5e 08 7b c0    	vcvtusi2ss %r8d,%xmm4,%xmm0
    4c83:	c5 fa 11 84 24 80 00 	vmovss %xmm0,0x80(%rsp)
    4c8a:	00 00 
    4c8c:	c5 f8 77             	vzeroupper
    4c8f:	e8 dc d4 ff ff       	call   2170 <log2f@plt>
    4c94:	c5 fa 11 44 24 10    	vmovss %xmm0,0x10(%rsp)
    4c9a:	62 f1 5e 08 7b c5    	vcvtusi2ss %ebp,%xmm4,%xmm0
    4ca0:	c5 fa 5e 84 24 80 00 	vdivss 0x80(%rsp),%xmm0,%xmm0
    4ca7:	00 00 
    4ca9:	e8 c2 d4 ff ff       	call   2170 <log2f@plt>
    4cae:	c5 f8 28 c8          	vmovaps %xmm0,%xmm1
    4cb2:	48 8b 84 24 18 01 00 	mov    0x118(%rsp),%rax
    4cb9:	00 
    4cba:	48 85 c0             	test   %rax,%rax
    4cbd:	74 6a                	je     4d29 <main+0xc89>
    4cbf:	c5 fa 11 8c 24 80 00 	vmovss %xmm1,0x80(%rsp)
    4cc6:	00 00 
    4cc8:	44 8d 2c 40          	lea    (%rax,%rax,2),%r13d
    4ccc:	4c 89 ef             	mov    %r13,%rdi
    4ccf:	e8 3c d4 ff ff       	call   2110 <_Znwm@plt>
    4cd4:	49 89 c6             	mov    %rax,%r14
    4cd7:	48 89 84 24 20 01 00 	mov    %rax,0x120(%rsp)
    4cde:	00 
    4cdf:	4e 8d 3c 28          	lea    (%rax,%r13,1),%r15
    4ce3:	4c 89 bc 24 30 01 00 	mov    %r15,0x130(%rsp)
    4cea:	00 
    4ceb:	c6 00 00             	movb   $0x0,(%rax)
    4cee:	48 89 c7             	mov    %rax,%rdi
    4cf1:	48 ff c7             	inc    %rdi
    4cf4:	49 ff cd             	dec    %r13
    4cf7:	4c 89 bc 24 00 01 00 	mov    %r15,0x100(%rsp)
    4cfe:	00 
    4cff:	74 0d                	je     4d0e <main+0xc6e>
    4d01:	31 f6                	xor    %esi,%esi
    4d03:	4c 89 ea             	mov    %r13,%rdx
    4d06:	e8 95 d3 ff ff       	call   20a0 <memset@plt>
    4d0b:	4c 89 ff             	mov    %r15,%rdi
    4d0e:	c5 fa 10 8c 24 80 00 	vmovss 0x80(%rsp),%xmm1
    4d15:	00 00 
    4d17:	48 89 bc 24 28 01 00 	mov    %rdi,0x128(%rsp)
    4d1e:	00 
    4d1f:	4d 85 e4             	test   %r12,%r12
    4d22:	75 40                	jne    4d64 <main+0xcc4>
    4d24:	e9 15 02 00 00       	jmp    4f3e <main+0xe9e>
    4d29:	c5 f8 57 c0          	vxorps %xmm0,%xmm0,%xmm0
    4d2d:	c5 f8 29 84 24 20 01 	vmovaps %xmm0,0x120(%rsp)
    4d34:	00 00 
    4d36:	48 c7 84 24 30 01 00 	movq   $0x0,0x130(%rsp)
    4d3d:	00 00 00 00 00 
    4d42:	48 c7 84 24 00 01 00 	movq   $0x0,0x100(%rsp)
    4d49:	00 00 00 00 00 
    4d4e:	45 31 f6             	xor    %r14d,%r14d
    4d51:	31 ff                	xor    %edi,%edi
    4d53:	48 89 bc 24 28 01 00 	mov    %rdi,0x128(%rsp)
    4d5a:	00 
    4d5b:	4d 85 e4             	test   %r12,%r12
    4d5e:	0f 84 da 01 00 00    	je     4f3e <main+0xe9e>
    4d64:	44 89 e0             	mov    %r12d,%eax
    4d67:	83 e0 fe             	and    $0xfffffffe,%eax
    4d6a:	48 89 84 24 c0 00 00 	mov    %rax,0xc0(%rsp)
    4d71:	00 
    4d72:	c5 fa 10 05 8a 62 00 	vmovss 0x628a(%rip),%xmm0        # b004 <_IO_stdin_used+0x4>
    4d79:	00 
    4d7a:	c5 fa 5e c1          	vdivss %xmm1,%xmm0,%xmm0
    4d7e:	c5 fa 11 84 24 80 00 	vmovss %xmm0,0x80(%rsp)
    4d85:	00 00 
    4d87:	43 8d 04 64          	lea    (%r12,%r12,2),%eax
    4d8b:	89 44 24 40          	mov    %eax,0x40(%rsp)
    4d8f:	45 31 ed             	xor    %r13d,%r13d
    4d92:	b8 05 00 00 00       	mov    $0x5,%eax
    4d97:	b9 01 00 00 00       	mov    $0x1,%ecx
    4d9c:	eb 63                	jmp    4e01 <main+0xd61>
    4d9e:	66 90                	xchg   %ax,%ax
    4da0:	62 f1 5e 08 7b c0    	vcvtusi2ss %eax,%xmm4,%xmm0
    4da6:	e8 c5 d3 ff ff       	call   2170 <log2f@plt>
    4dab:	c5 fa 5c 44 24 10    	vsubss 0x10(%rsp),%xmm0,%xmm0
    4db1:	c5 fa 59 05 63 62 00 	vmulss 0x6263(%rip),%xmm0,%xmm0        # b01c <_IO_stdin_used+0x1c>
    4db8:	00 
    4db9:	c5 fa 59 84 24 80 00 	vmulss 0x80(%rsp),%xmm0,%xmm0
    4dc0:	00 00 
    4dc2:	c5 fa 2c c0          	vcvttss2si %xmm0,%eax
    4dc6:	04 20                	add    $0x20,%al
    4dc8:	b1 20                	mov    $0x20,%cl
    4dca:	8d 14 5b             	lea    (%rbx,%rbx,2),%edx
    4dcd:	41 88 0c 16          	mov    %cl,(%r14,%rdx,1)
    4dd1:	8d 14 5b             	lea    (%rbx,%rbx,2),%edx
    4dd4:	ff c2                	inc    %edx
    4dd6:	41 88 04 16          	mov    %al,(%r14,%rdx,1)
    4dda:	8d 44 5b 02          	lea    0x2(%rbx,%rbx,2),%eax
    4dde:	41 88 0c 06          	mov    %cl,(%r14,%rax,1)
    4de2:	48 8b 1c 24          	mov    (%rsp),%rbx
    4de6:	8b 44 24 18          	mov    0x18(%rsp),%eax
    4dea:	8b 4c 24 50          	mov    0x50(%rsp),%ecx
    4dee:	41 ff c5             	inc    %r13d
    4df1:	03 44 24 40          	add    0x40(%rsp),%eax
    4df5:	44 01 e1             	add    %r12d,%ecx
    4df8:	45 39 e5             	cmp    %r12d,%r13d
    4dfb:	0f 84 3d 01 00 00    	je     4f3e <main+0xe9e>
    4e01:	41 bf 00 00 00 00    	mov    $0x0,%r15d
    4e07:	48 83 7c 24 48 00    	cmpq   $0x0,0x48(%rsp)
    4e0d:	89 44 24 18          	mov    %eax,0x18(%rsp)
    4e11:	89 4c 24 50          	mov    %ecx,0x50(%rsp)
    4e15:	0f 84 f6 00 00 00    	je     4f11 <main+0xe71>
    4e1b:	4c 89 6c 24 60       	mov    %r13,0x60(%rsp)
    4e20:	41 89 cd             	mov    %ecx,%r13d
    4e23:	89 c3                	mov    %eax,%ebx
    4e25:	45 31 ff             	xor    %r15d,%r15d
    4e28:	eb 59                	jmp    4e83 <main+0xde3>
    4e2a:	66 0f 1f 44 00 00    	nopw   0x0(%rax,%rax,1)
    4e30:	62 f1 5e 08 7b c0    	vcvtusi2ss %eax,%xmm4,%xmm0
    4e36:	e8 35 d3 ff ff       	call   2170 <log2f@plt>
    4e3b:	c5 fa 5c 44 24 10    	vsubss 0x10(%rsp),%xmm0,%xmm0
    4e41:	c5 fa 59 05 d3 61 00 	vmulss 0x61d3(%rip),%xmm0,%xmm0        # b01c <_IO_stdin_used+0x1c>
    4e48:	00 
    4e49:	c5 fa 59 84 24 80 00 	vmulss 0x80(%rsp),%xmm0,%xmm0
    4e50:	00 00 
    4e52:	c5 fa 2c c0          	vcvttss2si %xmm0,%eax
    4e56:	04 20                	add    $0x20,%al
    4e58:	b1 20                	mov    $0x20,%cl
    4e5a:	8d 53 fe             	lea    -0x2(%rbx),%edx
    4e5d:	41 88 0c 16          	mov    %cl,(%r14,%rdx,1)
    4e61:	8d 53 ff             	lea    -0x1(%rbx),%edx
    4e64:	41 88 04 16          	mov    %al,(%r14,%rdx,1)
    4e68:	89 d8                	mov    %ebx,%eax
    4e6a:	41 88 0c 06          	mov    %cl,(%r14,%rax,1)
    4e6e:	49 83 c7 02          	add    $0x2,%r15
    4e72:	83 c3 06             	add    $0x6,%ebx
    4e75:	41 83 c5 02          	add    $0x2,%r13d
    4e79:	4c 39 bc 24 c0 00 00 	cmp    %r15,0xc0(%rsp)
    4e80:	00 
    4e81:	74 7d                	je     4f00 <main+0xe60>
    4e83:	41 8d 45 ff          	lea    -0x1(%r13),%eax
    4e87:	48 8b 4c 24 08       	mov    0x8(%rsp),%rcx
    4e8c:	8b 04 81             	mov    (%rcx,%rax,4),%eax
    4e8f:	39 e8                	cmp    %ebp,%eax
    4e91:	73 2d                	jae    4ec0 <main+0xe20>
    4e93:	62 f1 5e 08 7b c0    	vcvtusi2ss %eax,%xmm4,%xmm0
    4e99:	e8 d2 d2 ff ff       	call   2170 <log2f@plt>
    4e9e:	c5 fa 5c 44 24 10    	vsubss 0x10(%rsp),%xmm0,%xmm0
    4ea4:	c5 fa 59 05 70 61 00 	vmulss 0x6170(%rip),%xmm0,%xmm0        # b01c <_IO_stdin_used+0x1c>
    4eab:	00 
    4eac:	c5 fa 59 84 24 80 00 	vmulss 0x80(%rsp),%xmm0,%xmm0
    4eb3:	00 00 
    4eb5:	c5 fa 2c c0          	vcvttss2si %xmm0,%eax
    4eb9:	04 20                	add    $0x20,%al
    4ebb:	b1 20                	mov    $0x20,%cl
    4ebd:	eb 05                	jmp    4ec4 <main+0xe24>
    4ebf:	90                   	nop
    4ec0:	31 c0                	xor    %eax,%eax
    4ec2:	31 c9                	xor    %ecx,%ecx
    4ec4:	8d 53 fb             	lea    -0x5(%rbx),%edx
    4ec7:	41 88 0c 16          	mov    %cl,(%r14,%rdx,1)
    4ecb:	8d 53 fc             	lea    -0x4(%rbx),%edx
    4ece:	41 88 04 16          	mov    %al,(%r14,%rdx,1)
    4ed2:	8d 43 fd             	lea    -0x3(%rbx),%eax
    4ed5:	41 88 0c 06          	mov    %cl,(%r14,%rax,1)
    4ed9:	44 89 e8             	mov    %r13d,%eax
    4edc:	48 8b 4c 24 08       	mov    0x8(%rsp),%rcx
    4ee1:	8b 04 81             	mov    (%rcx,%rax,4),%eax
    4ee4:	39 e8                	cmp    %ebp,%eax
    4ee6:	0f 82 44 ff ff ff    	jb     4e30 <main+0xd90>
    4eec:	31 c0                	xor    %eax,%eax
    4eee:	31 c9                	xor    %ecx,%ecx
    4ef0:	e9 65 ff ff ff       	jmp    4e5a <main+0xdba>
    4ef5:	66 66 2e 0f 1f 84 00 	data16 cs nopw 0x0(%rax,%rax,1)
    4efc:	00 00 00 00 
    4f00:	48 8b 1c 24          	mov    (%rsp),%rbx
    4f04:	4c 8b 6c 24 60       	mov    0x60(%rsp),%r13
    4f09:	8b 44 24 18          	mov    0x18(%rsp),%eax
    4f0d:	8b 4c 24 50          	mov    0x50(%rsp),%ecx
    4f11:	41 f6 c4 01          	test   $0x1,%r12b
    4f15:	0f 84 d3 fe ff ff    	je     4dee <main+0xd4e>
    4f1b:	44 89 eb             	mov    %r13d,%ebx
    4f1e:	41 0f af dc          	imul   %r12d,%ebx
    4f22:	44 01 fb             	add    %r15d,%ebx
    4f25:	48 8b 44 24 08       	mov    0x8(%rsp),%rax
    4f2a:	8b 04 98             	mov    (%rax,%rbx,4),%eax
    4f2d:	39 e8                	cmp    %ebp,%eax
    4f2f:	0f 82 6b fe ff ff    	jb     4da0 <main+0xd00>
    4f35:	31 c0                	xor    %eax,%eax
    4f37:	31 c9                	xor    %ecx,%ecx
    4f39:	e9 8c fe ff ff       	jmp    4dca <main+0xd2a>
    4f3e:	48 8d 3d aa 65 00 00 	lea    0x65aa(%rip),%rdi        # b4ef <_IO_stdin_used+0x4ef>
    4f45:	48 8d 94 24 20 01 00 	lea    0x120(%rsp),%rdx
    4f4c:	00 
    4f4d:	44 89 e6             	mov    %r12d,%esi
    4f50:	e8 2b e7 ff ff       	call   3680 <_Z8writeBMPPKcjRKSt6vectorIhSaIhEE>
    4f55:	4d 85 f6             	test   %r14,%r14
    4f58:	4c 8b 7c 24 08       	mov    0x8(%rsp),%r15
    4f5d:	74 13                	je     4f72 <main+0xed2>
    4f5f:	48 8b b4 24 00 01 00 	mov    0x100(%rsp),%rsi
    4f66:	00 
    4f67:	4c 29 f6             	sub    %r14,%rsi
    4f6a:	4c 89 f7             	mov    %r14,%rdi
    4f6d:	e8 ae d1 ff ff       	call   2120 <_ZdlPvm@plt>
    4f72:	83 7c 24 70 01       	cmpl   $0x1,0x70(%rsp)
    4f77:	74 0b                	je     4f84 <main+0xee4>
    4f79:	83 7c 24 70 06       	cmpl   $0x6,0x70(%rsp)
    4f7e:	0f 85 c4 0e 00 00    	jne    5e48 <main+0x1da8>
    4f84:	4c 89 e2             	mov    %r12,%rdx
    4f87:	49 0f af d4          	imul   %r12,%rdx
    4f8b:	48 c1 e2 02          	shl    $0x2,%rdx
    4f8f:	4c 89 ff             	mov    %r15,%rdi
    4f92:	31 f6                	xor    %esi,%esi
    4f94:	e8 07 d1 ff ff       	call   20a0 <memset@plt>
    4f99:	48 8b 05 18 80 00 00 	mov    0x8018(%rip),%rax        # cfb8 <_ZSt4cout@GLIBCXX_3.4>
    4fa0:	48 8b 08             	mov    (%rax),%rcx
    4fa3:	48 8b 49 e8          	mov    -0x18(%rcx),%rcx
    4fa7:	4c 8b b4 08 f0 00 00 	mov    0xf0(%rax,%rcx,1),%r14
    4fae:	00 
    4faf:	4d 85 f6             	test   %r14,%r14
    4fb2:	0f 84 a6 48 00 00    	je     985e <main+0x57be>
    4fb8:	41 80 7e 38 00       	cmpb   $0x0,0x38(%r14)
    4fbd:	74 07                	je     4fc6 <main+0xf26>
    4fbf:	41 0f b6 46 43       	movzbl 0x43(%r14),%eax
    4fc4:	eb 16                	jmp    4fdc <main+0xf3c>
    4fc6:	4c 89 f7             	mov    %r14,%rdi
    4fc9:	e8 82 d1 ff ff       	call   2150 <_ZNKSt5ctypeIcE13_M_widen_initEv@plt>
    4fce:	49 8b 06             	mov    (%r14),%rax
    4fd1:	4c 89 f7             	mov    %r14,%rdi
    4fd4:	be 0a 00 00 00       	mov    $0xa,%esi
    4fd9:	ff 50 30             	call   *0x30(%rax)
    4fdc:	0f be f0             	movsbl %al,%esi
    4fdf:	48 8b 3d d2 7f 00 00 	mov    0x7fd2(%rip),%rdi        # cfb8 <_ZSt4cout@GLIBCXX_3.4>
    4fe6:	e8 45 d0 ff ff       	call   2030 <_ZNSo3putEc@plt>
    4feb:	48 89 c7             	mov    %rax,%rdi
    4fee:	e8 cd d0 ff ff       	call   20c0 <_ZNSo5flushEv@plt>
    4ff3:	49 89 c6             	mov    %rax,%r14
    4ff6:	48 8d 35 bd 64 00 00 	lea    0x64bd(%rip),%rsi        # b4ba <_IO_stdin_used+0x4ba>
    4ffd:	ba 08 00 00 00       	mov    $0x8,%edx
    5002:	48 89 c7             	mov    %rax,%rdi
    5005:	e8 36 d1 ff ff       	call   2140 <_ZSt16__ostream_insertIcSt11char_traitsIcEERSt13basic_ostreamIT_T0_ES6_PKS3_l@plt>
    500a:	48 8d 35 fc 64 00 00 	lea    0x64fc(%rip),%rsi        # b50d <_IO_stdin_used+0x50d>
    5011:	ba 15 00 00 00       	mov    $0x15,%edx
    5016:	4c 89 f7             	mov    %r14,%rdi
    5019:	e8 22 d1 ff ff       	call   2140 <_ZSt16__ostream_insertIcSt11char_traitsIcEERSt13basic_ostreamIT_T0_ES6_PKS3_l@plt>
    501e:	48 8d 35 b4 64 00 00 	lea    0x64b4(%rip),%rsi        # b4d9 <_IO_stdin_used+0x4d9>
    5025:	ba 05 00 00 00       	mov    $0x5,%edx
    502a:	4c 89 f7             	mov    %r14,%rdi
    502d:	e8 0e d1 ff ff       	call   2140 <_ZSt16__ostream_insertIcSt11char_traitsIcEERSt13basic_ostreamIT_T0_ES6_PKS3_l@plt>
    5032:	bf 50 00 00 00       	mov    $0x50,%edi
    5037:	e8 d4 d0 ff ff       	call   2110 <_Znwm@plt>
    503c:	62 d1 1e 08 7b c4    	vcvtusi2ss %r12d,%xmm12,%xmm0
    5042:	48 89 44 24 18       	mov    %rax,0x18(%rsp)
    5047:	48 89 c3             	mov    %rax,%rbx
    504a:	c5 fa 10 0d b2 5f 00 	vmovss 0x5fb2(%rip),%xmm1        # b004 <_IO_stdin_used+0x4>
    5051:	00 
    5052:	c5 f2 5e c0          	vdivss %xmm0,%xmm1,%xmm0
    5056:	c5 fa 11 44 24 10    	vmovss %xmm0,0x10(%rsp)
    505c:	c5 fa 59 05 a4 5f 00 	vmulss 0x5fa4(%rip),%xmm0,%xmm0        # b008 <_IO_stdin_used+0x8>
    5063:	00 
    5064:	62 f2 7d 48 7c cd    	vpbroadcastd %ebp,%zmm1
    506a:	62 f1 fe 48 7f 4c 24 	vmovdqu64 %zmm1,0x80(%rsp)
    5071:	02 
    5072:	c5 f1 ef c9          	vpxor  %xmm1,%xmm1,%xmm1
    5076:	c5 fe 7f 48 30       	vmovdqu %ymm1,0x30(%rax)
    507b:	c5 fe 7f 48 20       	vmovdqu %ymm1,0x20(%rax)
    5080:	62 f2 7d 48 18 c0    	vbroadcastss %xmm0,%zmm0
    5086:	62 f1 7c 48 11 44 24 	vmovups %zmm0,0xc0(%rsp)
    508d:	03 
    508e:	c5 fe 7f 08          	vmovdqu %ymm1,(%rax)
    5092:	45 31 f6             	xor    %r14d,%r14d
    5095:	eb 2d                	jmp    50c4 <main+0x1024>
    5097:	66 0f 1f 84 00 00 00 	nopw   0x0(%rax,%rax,1)
    509e:	00 00 
    50a0:	c5 f8 77             	vzeroupper
    50a3:	e8 98 cf ff ff       	call   2040 <_ZNSt6chrono3_V212system_clock3nowEv@plt>
    50a8:	4c 29 e8             	sub    %r13,%rax
    50ab:	62 f1 ef 00 7b c0    	vcvtusi2sd %rax,%xmm18,%xmm0
    50b1:	c4 a1 7b 11 04 f3    	vmovsd %xmm0,(%rbx,%r14,8)
    50b7:	49 ff c6             	inc    %r14
    50ba:	49 83 fe 0a          	cmp    $0xa,%r14
    50be:	0f 84 76 01 00 00    	je     523a <main+0x119a>
    50c4:	c5 f8 77             	vzeroupper
    50c7:	e8 74 cf ff ff       	call   2040 <_ZNSt6chrono3_V212system_clock3nowEv@plt>
    50cc:	49 89 c5             	mov    %rax,%r13
    50cf:	4d 85 e4             	test   %r12,%r12
    50d2:	c5 7a 10 44 24 10    	vmovss 0x10(%rsp),%xmm8
    50d8:	62 71 fe 48 6f 4c 24 	vmovdqu64 0x80(%rsp),%zmm9
    50df:	02 
    50e0:	62 71 7c 48 10 54 24 	vmovups 0xc0(%rsp),%zmm10
    50e7:	03 
    50e8:	c5 7a 10 1d 18 5f 00 	vmovss 0x5f18(%rip),%xmm11        # b008 <_IO_stdin_used+0x8>
    50ef:	00 
    50f0:	c5 7a 10 25 14 5f 00 	vmovss 0x5f14(%rip),%xmm12        # b00c <_IO_stdin_used+0xc>
    50f7:	00 
    50f8:	62 72 7d 48 22 2d 8e 	vpmovsxbq 0x628e(%rip),%zmm13        # b390 <_IO_stdin_used+0x390>
    50ff:	62 00 00 
    5102:	c4 62 7d 22 35 0d 5f 	vpmovsxbq 0x5f0d(%rip),%ymm14        # b018 <_IO_stdin_used+0x18>
    5109:	00 00 
    510b:	c4 62 79 22 3d 2c 62 	vpmovsxbq 0x622c(%rip),%xmm15        # b340 <_IO_stdin_used+0x340>
    5112:	00 00 
    5114:	62 e2 7d 48 18 05 f2 	vbroadcastss 0x5ef2(%rip),%zmm16        # b010 <_IO_stdin_used+0x10>
    511b:	5e 00 00 
    511e:	62 e2 7d 48 18 0d ec 	vbroadcastss 0x5eec(%rip),%zmm17        # b014 <_IO_stdin_used+0x14>
    5125:	5e 00 00 
    5128:	0f 84 72 ff ff ff    	je     50a0 <main+0x1000>
    512e:	31 c0                	xor    %eax,%eax
    5130:	62 f1 ee 00 2a c0    	vcvtsi2ss %rax,%xmm18,%xmm0
    5136:	c5 a2 59 c0          	vmulss %xmm0,%xmm11,%xmm0
    513a:	c4 c2 39 a9 c4       	vfmadd213ss %xmm12,%xmm8,%xmm0
    513f:	62 f2 7d 48 18 c0    	vbroadcastss %xmm0,%zmm0
    5145:	48 89 c1             	mov    %rax,%rcx
    5148:	49 0f af cc          	imul   %r12,%rcx
    514c:	49 8d 0c 8f          	lea    (%r15,%rcx,4),%rcx
    5150:	31 d2                	xor    %edx,%edx
    5152:	66 66 66 66 66 2e 0f 	data16 data16 data16 data16 cs nopw 0x0(%rax,%rax,1)
    5159:	1f 84 00 00 00 00 00 
    5160:	62 f2 fd 48 7c ca    	vpbroadcastq %rdx,%zmm1
    5166:	62 d1 f5 48 eb d5    	vporq  %zmm13,%zmm1,%zmm2
    516c:	c5 8d eb d9          	vpor   %ymm1,%ymm14,%ymm3
    5170:	c5 81 eb e1          	vpor   %xmm1,%xmm15,%xmm4
    5174:	48 89 d6             	mov    %rdx,%rsi
    5177:	48 83 ce 01          	or     $0x1,%rsi
    517b:	c4 e1 f9 6e ee       	vmovq  %rsi,%xmm5
    5180:	c5 f1 6c cd          	vpunpcklqdq %xmm5,%xmm1,%xmm1
    5184:	62 f3 f5 48 3a cb 01 	vinserti64x4 $0x1,%ymm3,%zmm1,%zmm1
    518b:	62 f3 75 48 38 cc 01 	vinserti32x4 $0x1,%xmm4,%zmm1,%zmm1
    5192:	62 f1 ff 48 7a c9    	vcvtuqq2ps %zmm1,%ymm1
    5198:	62 f1 ff 48 7a d2    	vcvtuqq2ps %zmm2,%ymm2
    519e:	62 f3 f5 48 1a ca 01 	vinsertf64x4 $0x1,%ymm2,%zmm1,%zmm1
    51a5:	62 b2 2d 48 a8 c8    	vfmadd213ps %zmm16,%zmm10,%zmm1
    51ab:	c5 e8 57 d2          	vxorps %xmm2,%xmm2,%xmm2
    51af:	c5 e1 ef db          	vpxor  %xmm3,%xmm3,%xmm3
    51b3:	c5 d9 ef e4          	vpxor  %xmm4,%xmm4,%xmm4
    51b7:	c5 d1 ef ed          	vpxor  %xmm5,%xmm5,%xmm5
    51bb:	0f 1f 44 00 00       	nopl   0x0(%rax,%rax,1)
    51c0:	62 f1 54 48 58 f3    	vaddps %zmm3,%zmm5,%zmm6
    51c6:	62 f1 35 48 66 ca    	vpcmpgtd %zmm2,%zmm9,%k1
    51cc:	62 b1 4c 49 c2 c9 02 	vcmpleps %zmm17,%zmm6,%k1{%k1}
    51d3:	62 f1 64 48 5c fd    	vsubps %zmm5,%zmm3,%zmm7
    51d9:	62 f1 74 48 58 ff    	vaddps %zmm7,%zmm1,%zmm7
    51df:	62 f1 5c 48 5c f6    	vsubps %zmm6,%zmm4,%zmm6
    51e5:	62 f1 4c 48 58 f0    	vaddps %zmm0,%zmm6,%zmm6
    51eb:	62 f1 44 49 59 df    	vmulps %zmm7,%zmm7,%zmm3{%k1}
    51f1:	62 f1 4c 49 59 ee    	vmulps %zmm6,%zmm6,%zmm5{%k1}
    51f7:	62 f1 4c 48 58 f7    	vaddps %zmm7,%zmm6,%zmm6
    51fd:	62 f1 4c 49 59 e6    	vmulps %zmm6,%zmm6,%zmm4{%k1}
    5203:	62 f2 7e 48 38 f1    	vpmovm2d %k1,%zmm6
    5209:	62 f1 6d 48 fa d6    	vpsubd %zmm6,%zmm2,%zmm2
    520f:	c5 f8 98 c9          	kortestw %k1,%k1
    5213:	75 ab                	jne    51c0 <main+0x1120>
    5215:	62 f1 fe 48 7f 14 91 	vmovdqu64 %zmm2,(%rcx,%rdx,4)
    521c:	48 83 c2 10          	add    $0x10,%rdx
    5220:	4c 39 e2             	cmp    %r12,%rdx
    5223:	0f 82 37 ff ff ff    	jb     5160 <main+0x10c0>
    5229:	48 ff c0             	inc    %rax
    522c:	4c 39 e0             	cmp    %r12,%rax
    522f:	0f 85 fb fe ff ff    	jne    5130 <main+0x1090>
    5235:	e9 66 fe ff ff       	jmp    50a0 <main+0x1000>
    523a:	4c 8b 74 24 18       	mov    0x18(%rsp),%r14
    523f:	49 83 c6 50          	add    $0x50,%r14
    5243:	ba 06 00 00 00       	mov    $0x6,%edx
    5248:	48 89 df             	mov    %rbx,%rdi
    524b:	4c 89 f6             	mov    %r14,%rsi
    524e:	e8 9d 48 00 00       	call   9af0 <_ZSt16__introsort_loopIN9__gnu_cxx17__normal_iteratorIPdSt6vectorIdSaIdEEEElNS0_5__ops15_Iter_less_iterEEvT_S9_T0_T1_>
    5253:	48 89 df             	mov    %rbx,%rdi
    5256:	4c 89 f6             	mov    %r14,%rsi
    5259:	e8 32 4b 00 00       	call   9d90 <_ZSt22__final_insertion_sortIN9__gnu_cxx17__normal_iteratorIPdSt6vectorIdSaIdEEEENS0_5__ops15_Iter_less_iterEEvT_S9_T0_>
    525e:	48 8d bc 24 20 01 00 	lea    0x120(%rsp),%rdi
    5265:	00 
    5266:	e8 65 ce ff ff       	call   20d0 <_ZNSt7__cxx1118basic_stringstreamIcSt11char_traitsIcESaIcEEC1Ev@plt>
    526b:	48 8d bc 24 30 01 00 	lea    0x130(%rsp),%rdi
    5272:	00 
    5273:	48 8b 84 24 30 01 00 	mov    0x130(%rsp),%rax
    527a:	00 
    527b:	48 8b 48 e8          	mov    -0x18(%rax),%rcx
    527f:	ba fb fe ff ff       	mov    $0xfffffefb,%edx
    5284:	23 94 0c 48 01 00 00 	and    0x148(%rsp,%rcx,1),%edx
    528b:	83 ca 04             	or     $0x4,%edx
    528e:	89 94 0c 48 01 00 00 	mov    %edx,0x148(%rsp,%rcx,1)
    5295:	48 8b 48 e8          	mov    -0x18(%rax),%rcx
    5299:	48 c7 84 0c 40 01 00 	movq   $0x6,0x140(%rsp,%rcx,1)
    52a0:	00 06 00 00 00 
    52a5:	48 8b 40 e8          	mov    -0x18(%rax),%rax
    52a9:	48 c7 84 04 38 01 00 	movq   $0x2,0x138(%rsp,%rax,1)
    52b0:	00 02 00 00 00 
    52b5:	c5 fb 10 03          	vmovsd (%rbx),%xmm0
    52b9:	c5 fb 59 05 ff 60 00 	vmulsd 0x60ff(%rip),%xmm0,%xmm0        # b3c0 <_IO_stdin_used+0x3c0>
    52c0:	00 
    52c1:	e8 0a cf ff ff       	call   21d0 <_ZNSo9_M_insertIdEERSoT_@plt>
    52c6:	48 8b 3d eb 7c 00 00 	mov    0x7ceb(%rip),%rdi        # cfb8 <_ZSt4cout@GLIBCXX_3.4>
    52cd:	48 8d 35 0b 62 00 00 	lea    0x620b(%rip),%rsi        # b4df <_IO_stdin_used+0x4df>
    52d4:	ba 0b 00 00 00       	mov    $0xb,%edx
    52d9:	e8 62 ce ff ff       	call   2140 <_ZSt16__ostream_insertIcSt11char_traitsIcEERSt13basic_ostreamIT_T0_ES6_PKS3_l@plt>
    52de:	4c 8d 74 24 30       	lea    0x30(%rsp),%r14
    52e3:	4c 89 74 24 20       	mov    %r14,0x20(%rsp)
    52e8:	48 c7 44 24 28 00 00 	movq   $0x0,0x28(%rsp)
    52ef:	00 00 
    52f1:	c6 44 24 30 00       	movb   $0x0,0x30(%rsp)
    52f6:	4c 8b 84 24 50 01 00 	mov    0x150(%rsp),%r8
    52fd:	00 
    52fe:	48 8b 84 24 60 01 00 	mov    0x160(%rsp),%rax
    5305:	00 
    5306:	48 85 c0             	test   %rax,%rax
    5309:	0f 94 c1             	sete   %cl
    530c:	4c 39 c0             	cmp    %r8,%rax
    530f:	4c 0f 47 c0          	cmova  %rax,%r8
    5313:	4d 85 c0             	test   %r8,%r8
    5316:	0f 94 c0             	sete   %al
    5319:	08 c8                	or     %cl,%al
    531b:	74 14                	je     5331 <main+0x1291>
    531d:	48 8d b4 24 80 01 00 	lea    0x180(%rsp),%rsi
    5324:	00 
    5325:	48 8d 7c 24 20       	lea    0x20(%rsp),%rdi
    532a:	e8 71 51 00 00       	call   a4a0 <_ZNSt7__cxx1112basic_stringIcSt11char_traitsIcESaIcEE9_M_assignERKS4_>
    532f:	eb 19                	jmp    534a <main+0x12aa>
    5331:	48 8b 8c 24 58 01 00 	mov    0x158(%rsp),%rcx
    5338:	00 
    5339:	49 29 c8             	sub    %rcx,%r8
    533c:	48 8d 7c 24 20       	lea    0x20(%rsp),%rdi
    5341:	31 f6                	xor    %esi,%esi
    5343:	31 d2                	xor    %edx,%edx
    5345:	e8 86 4e 00 00       	call   a1d0 <_ZNSt7__cxx1112basic_stringIcSt11char_traitsIcESaIcEE10_M_replaceEmmPKcm>
    534a:	48 8b 74 24 20       	mov    0x20(%rsp),%rsi
    534f:	48 8b 54 24 28       	mov    0x28(%rsp),%rdx
    5354:	48 8b 3d 5d 7c 00 00 	mov    0x7c5d(%rip),%rdi        # cfb8 <_ZSt4cout@GLIBCXX_3.4>
    535b:	e8 e0 cd ff ff       	call   2140 <_ZSt16__ostream_insertIcSt11char_traitsIcEERSt13basic_ostreamIT_T0_ES6_PKS3_l@plt>
    5360:	49 89 c6             	mov    %rax,%r14
    5363:	48 8d 35 81 61 00 00 	lea    0x6181(%rip),%rsi        # b4eb <_IO_stdin_used+0x4eb>
    536a:	ba 03 00 00 00       	mov    $0x3,%edx
    536f:	48 89 c7             	mov    %rax,%rdi
    5372:	e8 c9 cd ff ff       	call   2140 <_ZSt16__ostream_insertIcSt11char_traitsIcEERSt13basic_ostreamIT_T0_ES6_PKS3_l@plt>
    5377:	49 8b 06             	mov    (%r14),%rax
    537a:	48 8b 40 e8          	mov    -0x18(%rax),%rax
    537e:	4d 8b ac 06 f0 00 00 	mov    0xf0(%r14,%rax,1),%r13
    5385:	00 
    5386:	4d 85 ed             	test   %r13,%r13
    5389:	0f 84 d9 44 00 00    	je     9868 <main+0x57c8>
    538f:	41 80 7d 38 00       	cmpb   $0x0,0x38(%r13)
    5394:	74 07                	je     539d <main+0x12fd>
    5396:	41 0f b6 45 43       	movzbl 0x43(%r13),%eax
    539b:	eb 17                	jmp    53b4 <main+0x1314>
    539d:	4c 89 ef             	mov    %r13,%rdi
    53a0:	e8 ab cd ff ff       	call   2150 <_ZNKSt5ctypeIcE13_M_widen_initEv@plt>
    53a5:	49 8b 45 00          	mov    0x0(%r13),%rax
    53a9:	4c 89 ef             	mov    %r13,%rdi
    53ac:	be 0a 00 00 00       	mov    $0xa,%esi
    53b1:	ff 50 30             	call   *0x30(%rax)
    53b4:	0f be f0             	movsbl %al,%esi
    53b7:	4c 89 f7             	mov    %r14,%rdi
    53ba:	e8 71 cc ff ff       	call   2030 <_ZNSo3putEc@plt>
    53bf:	48 89 c7             	mov    %rax,%rdi
    53c2:	e8 f9 cc ff ff       	call   20c0 <_ZNSo5flushEv@plt>
    53c7:	49 89 de             	mov    %rbx,%r14
    53ca:	48 8b 7c 24 20       	mov    0x20(%rsp),%rdi
    53cf:	48 8d 44 24 30       	lea    0x30(%rsp),%rax
    53d4:	48 39 c7             	cmp    %rax,%rdi
    53d7:	74 0d                	je     53e6 <main+0x1346>
    53d9:	48 8b 74 24 30       	mov    0x30(%rsp),%rsi
    53de:	48 ff c6             	inc    %rsi
    53e1:	e8 3a cd ff ff       	call   2120 <_ZdlPvm@plt>
    53e6:	48 8b 1d ab 7b 00 00 	mov    0x7bab(%rip),%rbx        # cf98 <_ZTTNSt7__cxx1118basic_stringstreamIcSt11char_traitsIcESaIcEEE@GLIBCXX_3.4.21>
    53ed:	48 8b 03             	mov    (%rbx),%rax
    53f0:	48 8b 4b 40          	mov    0x40(%rbx),%rcx
    53f4:	48 89 84 24 20 01 00 	mov    %rax,0x120(%rsp)
    53fb:	00 
    53fc:	48 8b 40 e8          	mov    -0x18(%rax),%rax
    5400:	48 89 8c 04 20 01 00 	mov    %rcx,0x120(%rsp,%rax,1)
    5407:	00 
    5408:	48 8b 43 48          	mov    0x48(%rbx),%rax
    540c:	48 89 84 24 30 01 00 	mov    %rax,0x130(%rsp)
    5413:	00 
    5414:	48 8b 05 c5 7b 00 00 	mov    0x7bc5(%rip),%rax        # cfe0 <_ZTVNSt7__cxx1115basic_stringbufIcSt11char_traitsIcESaIcEEE@GLIBCXX_3.4.21>
    541b:	48 83 c0 10          	add    $0x10,%rax
    541f:	48 89 84 24 38 01 00 	mov    %rax,0x138(%rsp)
    5426:	00 
    5427:	48 8b bc 24 80 01 00 	mov    0x180(%rsp),%rdi
    542e:	00 
    542f:	48 8d 84 24 90 01 00 	lea    0x190(%rsp),%rax
    5436:	00 
    5437:	48 39 c7             	cmp    %rax,%rdi
    543a:	74 10                	je     544c <main+0x13ac>
    543c:	48 8b b4 24 90 01 00 	mov    0x190(%rsp),%rsi
    5443:	00 
    5444:	48 ff c6             	inc    %rsi
    5447:	e8 d4 cc ff ff       	call   2120 <_ZdlPvm@plt>
    544c:	48 8b 05 55 7b 00 00 	mov    0x7b55(%rip),%rax        # cfa8 <_ZTVSt15basic_streambufIcSt11char_traitsIcEE@GLIBCXX_3.4>
    5453:	48 83 c0 10          	add    $0x10,%rax
    5457:	48 89 84 24 38 01 00 	mov    %rax,0x138(%rsp)
    545e:	00 
    545f:	48 8d bc 24 70 01 00 	lea    0x170(%rsp),%rdi
    5466:	00 
    5467:	e8 44 cd ff ff       	call   21b0 <_ZNSt6localeD1Ev@plt>
    546c:	48 8b 43 10          	mov    0x10(%rbx),%rax
    5470:	48 8b 4b 18          	mov    0x18(%rbx),%rcx
    5474:	48 89 84 24 20 01 00 	mov    %rax,0x120(%rsp)
    547b:	00 
    547c:	48 8b 40 e8          	mov    -0x18(%rax),%rax
    5480:	48 89 8c 04 20 01 00 	mov    %rcx,0x120(%rsp,%rax,1)
    5487:	00 
    5488:	48 c7 84 24 28 01 00 	movq   $0x0,0x128(%rsp)
    548f:	00 00 00 00 00 
    5494:	48 8d bc 24 a0 01 00 	lea    0x1a0(%rsp),%rdi
    549b:	00 
    549c:	e8 af cb ff ff       	call   2050 <_ZNSt8ios_baseD2Ev@plt>
    54a1:	be 50 00 00 00       	mov    $0x50,%esi
    54a6:	4c 89 f7             	mov    %r14,%rdi
    54a9:	e8 72 cc ff ff       	call   2120 <_ZdlPvm@plt>
    54ae:	41 89 e9             	mov    %ebp,%r9d
    54b1:	4d 85 e4             	test   %r12,%r12
    54b4:	48 8b 1c 24          	mov    (%rsp),%rbx
    54b8:	0f 84 1f 03 00 00    	je     57dd <main+0x173d>
    54be:	49 8d 44 24 ff       	lea    -0x1(%r12),%rax
    54c3:	44 89 e1             	mov    %r12d,%ecx
    54c6:	83 e1 e0             	and    $0xffffffe0,%ecx
    54c9:	44 89 e2             	mov    %r12d,%edx
    54cc:	83 e2 fc             	and    $0xfffffffc,%edx
    54cf:	48 89 d6             	mov    %rdx,%rsi
    54d2:	48 f7 de             	neg    %rsi
    54d5:	31 ff                	xor    %edi,%edi
    54d7:	45 31 c0             	xor    %r8d,%r8d
    54da:	41 89 e9             	mov    %ebp,%r9d
    54dd:	eb 10                	jmp    54ef <main+0x144f>
    54df:	90                   	nop
    54e0:	41 ff c0             	inc    %r8d
    54e3:	4c 01 e7             	add    %r12,%rdi
    54e6:	45 39 e0             	cmp    %r12d,%r8d
    54e9:	0f 84 ee 02 00 00    	je     57dd <main+0x173d>
    54ef:	41 83 fc 03          	cmp    $0x3,%r12d
    54f3:	76 22                	jbe    5517 <main+0x1477>
    54f5:	49 89 c2             	mov    %rax,%r10
    54f8:	49 c1 ea 20          	shr    $0x20,%r10
    54fc:	41 0f 95 c2          	setne  %r10b
    5500:	45 89 e3             	mov    %r12d,%r11d
    5503:	45 0f af d8          	imul   %r8d,%r11d
    5507:	41 01 c3             	add    %eax,%r11d
    550a:	41 0f 92 c3          	setb   %r11b
    550e:	45 08 d3             	or     %r10b,%r11b
    5511:	0f 84 c9 01 00 00    	je     56e0 <main+0x1640>
    5517:	45 31 db             	xor    %r11d,%r11d
    551a:	44 89 e3             	mov    %r12d,%ebx
    551d:	44 29 db             	sub    %r11d,%ebx
    5520:	4d 89 da             	mov    %r11,%r10
    5523:	83 e3 07             	and    $0x7,%ebx
    5526:	74 1f                	je     5547 <main+0x14a7>
    5528:	0f 1f 84 00 00 00 00 	nopl   0x0(%rax,%rax,1)
    552f:	00 
    5530:	46 8d 34 17          	lea    (%rdi,%r10,1),%r14d
    5534:	47 8b 34 b7          	mov    (%r15,%r14,4),%r14d
    5538:	45 39 ce             	cmp    %r9d,%r14d
    553b:	45 0f 42 ce          	cmovb  %r14d,%r9d
    553f:	49 ff c2             	inc    %r10
    5542:	48 ff cb             	dec    %rbx
    5545:	75 e9                	jne    5530 <main+0x1490>
    5547:	4d 29 e3             	sub    %r12,%r11
    554a:	49 83 fb f8          	cmp    $0xfffffffffffffff8,%r11
    554e:	48 8b 1c 24          	mov    (%rsp),%rbx
    5552:	76 19                	jbe    556d <main+0x14cd>
    5554:	eb 8a                	jmp    54e0 <main+0x1440>
    5556:	66 2e 0f 1f 84 00 00 	cs nopw 0x0(%rax,%rax,1)
    555d:	00 00 00 
    5560:	49 83 c2 08          	add    $0x8,%r10
    5564:	4d 39 d4             	cmp    %r10,%r12
    5567:	0f 84 73 ff ff ff    	je     54e0 <main+0x1440>
    556d:	46 8d 1c 17          	lea    (%rdi,%r10,1),%r11d
    5571:	47 8b 1c 9f          	mov    (%r15,%r11,4),%r11d
    5575:	45 39 cb             	cmp    %r9d,%r11d
    5578:	0f 82 b2 00 00 00    	jb     5630 <main+0x1590>
    557e:	45 89 cb             	mov    %r9d,%r11d
    5581:	46 8d 0c 17          	lea    (%rdi,%r10,1),%r9d
    5585:	41 ff c1             	inc    %r9d
    5588:	47 8b 0c 8f          	mov    (%r15,%r9,4),%r9d
    558c:	45 39 d9             	cmp    %r11d,%r9d
    558f:	0f 83 af 00 00 00    	jae    5644 <main+0x15a4>
    5595:	46 8d 1c 17          	lea    (%rdi,%r10,1),%r11d
    5599:	41 83 c3 02          	add    $0x2,%r11d
    559d:	47 8b 1c 9f          	mov    (%r15,%r11,4),%r11d
    55a1:	45 39 cb             	cmp    %r9d,%r11d
    55a4:	0f 82 b2 00 00 00    	jb     565c <main+0x15bc>
    55aa:	45 89 cb             	mov    %r9d,%r11d
    55ad:	46 8d 0c 17          	lea    (%rdi,%r10,1),%r9d
    55b1:	41 83 c1 03          	add    $0x3,%r9d
    55b5:	47 8b 0c 8f          	mov    (%r15,%r9,4),%r9d
    55b9:	45 39 d9             	cmp    %r11d,%r9d
    55bc:	0f 83 af 00 00 00    	jae    5671 <main+0x15d1>
    55c2:	46 8d 1c 17          	lea    (%rdi,%r10,1),%r11d
    55c6:	41 83 c3 04          	add    $0x4,%r11d
    55ca:	47 8b 1c 9f          	mov    (%r15,%r11,4),%r11d
    55ce:	45 39 cb             	cmp    %r9d,%r11d
    55d1:	0f 82 b2 00 00 00    	jb     5689 <main+0x15e9>
    55d7:	45 89 cb             	mov    %r9d,%r11d
    55da:	46 8d 0c 17          	lea    (%rdi,%r10,1),%r9d
    55de:	41 83 c1 05          	add    $0x5,%r9d
    55e2:	47 8b 0c 8f          	mov    (%r15,%r9,4),%r9d
    55e6:	45 39 d9             	cmp    %r11d,%r9d
    55e9:	0f 83 af 00 00 00    	jae    569e <main+0x15fe>
    55ef:	46 8d 1c 17          	lea    (%rdi,%r10,1),%r11d
    55f3:	41 83 c3 06          	add    $0x6,%r11d
    55f7:	47 8b 1c 9f          	mov    (%r15,%r11,4),%r11d
    55fb:	45 39 cb             	cmp    %r9d,%r11d
    55fe:	0f 82 b2 00 00 00    	jb     56b6 <main+0x1616>
    5604:	45 89 cb             	mov    %r9d,%r11d
    5607:	46 8d 0c 17          	lea    (%rdi,%r10,1),%r9d
    560b:	41 83 c1 07          	add    $0x7,%r9d
    560f:	47 8b 0c 8f          	mov    (%r15,%r9,4),%r9d
    5613:	45 39 d9             	cmp    %r11d,%r9d
    5616:	0f 82 44 ff ff ff    	jb     5560 <main+0x14c0>
    561c:	e9 aa 00 00 00       	jmp    56cb <main+0x162b>
    5621:	66 66 66 66 66 66 2e 	data16 data16 data16 data16 data16 cs nopw 0x0(%rax,%rax,1)
    5628:	0f 1f 84 00 00 00 00 
    562f:	00 
    5630:	46 8d 0c 17          	lea    (%rdi,%r10,1),%r9d
    5634:	41 ff c1             	inc    %r9d
    5637:	47 8b 0c 8f          	mov    (%r15,%r9,4),%r9d
    563b:	45 39 d9             	cmp    %r11d,%r9d
    563e:	0f 82 51 ff ff ff    	jb     5595 <main+0x14f5>
    5644:	45 89 d9             	mov    %r11d,%r9d
    5647:	46 8d 1c 17          	lea    (%rdi,%r10,1),%r11d
    564b:	41 83 c3 02          	add    $0x2,%r11d
    564f:	47 8b 1c 9f          	mov    (%r15,%r11,4),%r11d
    5653:	45 39 cb             	cmp    %r9d,%r11d
    5656:	0f 83 4e ff ff ff    	jae    55aa <main+0x150a>
    565c:	46 8d 0c 17          	lea    (%rdi,%r10,1),%r9d
    5660:	41 83 c1 03          	add    $0x3,%r9d
    5664:	47 8b 0c 8f          	mov    (%r15,%r9,4),%r9d
    5668:	45 39 d9             	cmp    %r11d,%r9d
    566b:	0f 82 51 ff ff ff    	jb     55c2 <main+0x1522>
    5671:	45 89 d9             	mov    %r11d,%r9d
    5674:	46 8d 1c 17          	lea    (%rdi,%r10,1),%r11d
    5678:	41 83 c3 04          	add    $0x4,%r11d
    567c:	47 8b 1c 9f          	mov    (%r15,%r11,4),%r11d
    5680:	45 39 cb             	cmp    %r9d,%r11d
    5683:	0f 83 4e ff ff ff    	jae    55d7 <main+0x1537>
    5689:	46 8d 0c 17          	lea    (%rdi,%r10,1),%r9d
    568d:	41 83 c1 05          	add    $0x5,%r9d
    5691:	47 8b 0c 8f          	mov    (%r15,%r9,4),%r9d
    5695:	45 39 d9             	cmp    %r11d,%r9d
    5698:	0f 82 51 ff ff ff    	jb     55ef <main+0x154f>
    569e:	45 89 d9             	mov    %r11d,%r9d
    56a1:	46 8d 1c 17          	lea    (%rdi,%r10,1),%r11d
    56a5:	41 83 c3 06          	add    $0x6,%r11d
    56a9:	47 8b 1c 9f          	mov    (%r15,%r11,4),%r11d
    56ad:	45 39 cb             	cmp    %r9d,%r11d
    56b0:	0f 83 4e ff ff ff    	jae    5604 <main+0x1564>
    56b6:	46 8d 0c 17          	lea    (%rdi,%r10,1),%r9d
    56ba:	41 83 c1 07          	add    $0x7,%r9d
    56be:	47 8b 0c 8f          	mov    (%r15,%r9,4),%r9d
    56c2:	45 39 d9             	cmp    %r11d,%r9d
    56c5:	0f 82 95 fe ff ff    	jb     5560 <main+0x14c0>
    56cb:	45 89 d9             	mov    %r11d,%r9d
    56ce:	e9 8d fe ff ff       	jmp    5560 <main+0x14c0>
    56d3:	66 66 66 66 2e 0f 1f 	data16 data16 data16 cs nopw 0x0(%rax,%rax,1)
    56da:	84 00 00 00 00 00 
    56e0:	41 83 fc 20          	cmp    $0x20,%r12d
    56e4:	73 08                	jae    56ee <main+0x164e>
    56e6:	45 31 d2             	xor    %r10d,%r10d
    56e9:	e9 96 00 00 00       	jmp    5784 <main+0x16e4>
    56ee:	62 d2 7d 28 7c c1    	vpbroadcastd %r9d,%ymm0
    56f4:	41 89 f9             	mov    %edi,%r9d
    56f7:	49 89 ca             	mov    %rcx,%r10
    56fa:	c5 fd 6f c8          	vmovdqa %ymm0,%ymm1
    56fe:	c5 fd 6f d0          	vmovdqa %ymm0,%ymm2
    5702:	c5 fd 6f d8          	vmovdqa %ymm0,%ymm3
    5706:	66 2e 0f 1f 84 00 00 	cs nopw 0x0(%rax,%rax,1)
    570d:	00 00 00 
    5710:	45 89 cb             	mov    %r9d,%r11d
    5713:	c4 82 7d 3b 04 9f    	vpminud (%r15,%r11,4),%ymm0,%ymm0
    5719:	c4 82 75 3b 4c 9f 20 	vpminud 0x20(%r15,%r11,4),%ymm1,%ymm1
    5720:	c4 82 6d 3b 54 9f 40 	vpminud 0x40(%r15,%r11,4),%ymm2,%ymm2
    5727:	c4 82 65 3b 5c 9f 60 	vpminud 0x60(%r15,%r11,4),%ymm3,%ymm3
    572e:	41 83 c1 20          	add    $0x20,%r9d
    5732:	49 83 c2 e0          	add    $0xffffffffffffffe0,%r10
    5736:	75 d8                	jne    5710 <main+0x1670>
    5738:	c4 e2 7d 3b c1       	vpminud %ymm1,%ymm0,%ymm0
    573d:	c4 e2 6d 3b cb       	vpminud %ymm3,%ymm2,%ymm1
    5742:	c4 e2 7d 3b c1       	vpminud %ymm1,%ymm0,%ymm0
    5747:	c4 e3 7d 39 c1 01    	vextracti128 $0x1,%ymm0,%xmm1
    574d:	c4 e2 79 3b c1       	vpminud %xmm1,%xmm0,%xmm0
    5752:	c5 f9 70 c8 ee       	vpshufd $0xee,%xmm0,%xmm1
    5757:	c4 e2 79 3b c1       	vpminud %xmm1,%xmm0,%xmm0
    575c:	c5 f9 70 c8 55       	vpshufd $0x55,%xmm0,%xmm1
    5761:	c4 e2 79 3b c1       	vpminud %xmm1,%xmm0,%xmm0
    5766:	c4 c1 79 7e c1       	vmovd  %xmm0,%r9d
    576b:	44 39 e1             	cmp    %r12d,%ecx
    576e:	0f 84 6c fd ff ff    	je     54e0 <main+0x1440>
    5774:	49 89 cb             	mov    %rcx,%r11
    5777:	49 89 ca             	mov    %rcx,%r10
    577a:	41 f6 c4 1c          	test   $0x1c,%r12b
    577e:	0f 84 96 fd ff ff    	je     551a <main+0x147a>
    5784:	62 d2 7d 08 7c c1    	vpbroadcastd %r9d,%xmm0
    578a:	4e 8d 0c 16          	lea    (%rsi,%r10,1),%r9
    578e:	41 01 fa             	add    %edi,%r10d
    5791:	66 66 66 66 66 66 2e 	data16 data16 data16 data16 data16 cs nopw 0x0(%rax,%rax,1)
    5798:	0f 1f 84 00 00 00 00 
    579f:	00 
    57a0:	45 89 d3             	mov    %r10d,%r11d
    57a3:	c4 82 79 3b 04 9f    	vpminud (%r15,%r11,4),%xmm0,%xmm0
    57a9:	41 83 c2 04          	add    $0x4,%r10d
    57ad:	49 83 c1 04          	add    $0x4,%r9
    57b1:	75 ed                	jne    57a0 <main+0x1700>
    57b3:	c5 f9 70 c8 ee       	vpshufd $0xee,%xmm0,%xmm1
    57b8:	c4 e2 79 3b c1       	vpminud %xmm1,%xmm0,%xmm0
    57bd:	c5 f9 70 c8 55       	vpshufd $0x55,%xmm0,%xmm1
    57c2:	c4 e2 79 3b c1       	vpminud %xmm1,%xmm0,%xmm0
    57c7:	c4 c1 79 7e c1       	vmovd  %xmm0,%r9d
    57cc:	49 89 d3             	mov    %rdx,%r11
    57cf:	44 39 e2             	cmp    %r12d,%edx
    57d2:	0f 84 08 fd ff ff    	je     54e0 <main+0x1440>
    57d8:	e9 3d fd ff ff       	jmp    551a <main+0x147a>
    57dd:	62 d1 5e 08 7b c1    	vcvtusi2ss %r9d,%xmm4,%xmm0
    57e3:	c5 fa 11 84 24 80 00 	vmovss %xmm0,0x80(%rsp)
    57ea:	00 00 
    57ec:	c5 f8 77             	vzeroupper
    57ef:	e8 7c c9 ff ff       	call   2170 <log2f@plt>
    57f4:	c5 fa 11 44 24 10    	vmovss %xmm0,0x10(%rsp)
    57fa:	62 f1 5e 08 7b c5    	vcvtusi2ss %ebp,%xmm4,%xmm0
    5800:	c5 fa 5e 84 24 80 00 	vdivss 0x80(%rsp),%xmm0,%xmm0
    5807:	00 00 
    5809:	e8 62 c9 ff ff       	call   2170 <log2f@plt>
    580e:	c5 f8 28 c8          	vmovaps %xmm0,%xmm1
    5812:	48 8b 84 24 18 01 00 	mov    0x118(%rsp),%rax
    5819:	00 
    581a:	48 85 c0             	test   %rax,%rax
    581d:	74 67                	je     5886 <main+0x17e6>
    581f:	c5 fa 11 8c 24 80 00 	vmovss %xmm1,0x80(%rsp)
    5826:	00 00 
    5828:	44 8d 2c 40          	lea    (%rax,%rax,2),%r13d
    582c:	4c 89 ef             	mov    %r13,%rdi
    582f:	e8 dc c8 ff ff       	call   2110 <_Znwm@plt>
    5834:	49 89 c6             	mov    %rax,%r14
    5837:	48 89 84 24 20 01 00 	mov    %rax,0x120(%rsp)
    583e:	00 
    583f:	4e 8d 3c 28          	lea    (%rax,%r13,1),%r15
    5843:	4c 89 bc 24 30 01 00 	mov    %r15,0x130(%rsp)
    584a:	00 
    584b:	c6 00 00             	movb   $0x0,(%rax)
    584e:	48 89 c7             	mov    %rax,%rdi
    5851:	48 ff c7             	inc    %rdi
    5854:	49 ff cd             	dec    %r13
    5857:	4c 89 7c 24 40       	mov    %r15,0x40(%rsp)
    585c:	74 0d                	je     586b <main+0x17cb>
    585e:	31 f6                	xor    %esi,%esi
    5860:	4c 89 ea             	mov    %r13,%rdx
    5863:	e8 38 c8 ff ff       	call   20a0 <memset@plt>
    5868:	4c 89 ff             	mov    %r15,%rdi
    586b:	c5 fa 10 8c 24 80 00 	vmovss 0x80(%rsp),%xmm1
    5872:	00 00 
    5874:	48 89 bc 24 28 01 00 	mov    %rdi,0x128(%rsp)
    587b:	00 
    587c:	4d 85 e4             	test   %r12,%r12
    587f:	75 3d                	jne    58be <main+0x181e>
    5881:	e9 18 02 00 00       	jmp    5a9e <main+0x19fe>
    5886:	c5 f8 57 c0          	vxorps %xmm0,%xmm0,%xmm0
    588a:	c5 f8 29 84 24 20 01 	vmovaps %xmm0,0x120(%rsp)
    5891:	00 00 
    5893:	48 c7 84 24 30 01 00 	movq   $0x0,0x130(%rsp)
    589a:	00 00 00 00 00 
    589f:	48 c7 44 24 40 00 00 	movq   $0x0,0x40(%rsp)
    58a6:	00 00 
    58a8:	45 31 f6             	xor    %r14d,%r14d
    58ab:	31 ff                	xor    %edi,%edi
    58ad:	48 89 bc 24 28 01 00 	mov    %rdi,0x128(%rsp)
    58b4:	00 
    58b5:	4d 85 e4             	test   %r12,%r12
    58b8:	0f 84 e0 01 00 00    	je     5a9e <main+0x19fe>
    58be:	44 89 e0             	mov    %r12d,%eax
    58c1:	83 e0 fe             	and    $0xfffffffe,%eax
    58c4:	48 89 84 24 c0 00 00 	mov    %rax,0xc0(%rsp)
    58cb:	00 
    58cc:	c5 fa 10 05 30 57 00 	vmovss 0x5730(%rip),%xmm0        # b004 <_IO_stdin_used+0x4>
    58d3:	00 
    58d4:	c5 fa 5e c1          	vdivss %xmm1,%xmm0,%xmm0
    58d8:	c5 fa 11 84 24 80 00 	vmovss %xmm0,0x80(%rsp)
    58df:	00 00 
    58e1:	47 8d 2c 64          	lea    (%r12,%r12,2),%r13d
    58e5:	31 c0                	xor    %eax,%eax
    58e7:	b9 05 00 00 00       	mov    $0x5,%ecx
    58ec:	c7 44 24 48 01 00 00 	movl   $0x1,0x48(%rsp)
    58f3:	00 
    58f4:	44 89 6c 24 60       	mov    %r13d,0x60(%rsp)
    58f9:	eb 67                	jmp    5962 <main+0x18c2>
    58fb:	0f 1f 44 00 00       	nopl   0x0(%rax,%rax,1)
    5900:	62 f1 5e 08 7b c0    	vcvtusi2ss %eax,%xmm4,%xmm0
    5906:	e8 65 c8 ff ff       	call   2170 <log2f@plt>
    590b:	c5 fa 5c 44 24 10    	vsubss 0x10(%rsp),%xmm0,%xmm0
    5911:	c5 fa 59 05 03 57 00 	vmulss 0x5703(%rip),%xmm0,%xmm0        # b01c <_IO_stdin_used+0x1c>
    5918:	00 
    5919:	c5 fa 59 84 24 80 00 	vmulss 0x80(%rsp),%xmm0,%xmm0
    5920:	00 00 
    5922:	c5 fa 2c c0          	vcvttss2si %xmm0,%eax
    5926:	04 20                	add    $0x20,%al
    5928:	b1 20                	mov    $0x20,%cl
    592a:	8d 14 5b             	lea    (%rbx,%rbx,2),%edx
    592d:	41 88 0c 16          	mov    %cl,(%r14,%rdx,1)
    5931:	8d 14 5b             	lea    (%rbx,%rbx,2),%edx
    5934:	ff c2                	inc    %edx
    5936:	41 88 04 16          	mov    %al,(%r14,%rdx,1)
    593a:	8d 44 5b 02          	lea    0x2(%rbx,%rbx,2),%eax
    593e:	41 88 0c 06          	mov    %cl,(%r14,%rax,1)
    5942:	48 8b 1c 24          	mov    (%rsp),%rbx
    5946:	48 8b 44 24 18       	mov    0x18(%rsp),%rax
    594b:	8b 4c 24 50          	mov    0x50(%rsp),%ecx
    594f:	ff c0                	inc    %eax
    5951:	44 01 e9             	add    %r13d,%ecx
    5954:	44 01 64 24 48       	add    %r12d,0x48(%rsp)
    5959:	44 39 e0             	cmp    %r12d,%eax
    595c:	0f 84 3c 01 00 00    	je     5a9e <main+0x19fe>
    5962:	41 bf 00 00 00 00    	mov    $0x0,%r15d
    5968:	49 83 fc 01          	cmp    $0x1,%r12
    596c:	48 89 44 24 18       	mov    %rax,0x18(%rsp)
    5971:	89 4c 24 50          	mov    %ecx,0x50(%rsp)
    5975:	0f 84 f7 00 00 00    	je     5a72 <main+0x19d2>
    597b:	44 8b 6c 24 48       	mov    0x48(%rsp),%r13d
    5980:	89 cb                	mov    %ecx,%ebx
    5982:	45 31 ff             	xor    %r15d,%r15d
    5985:	eb 5c                	jmp    59e3 <main+0x1943>
    5987:	66 0f 1f 84 00 00 00 	nopw   0x0(%rax,%rax,1)
    598e:	00 00 
    5990:	62 f1 5e 08 7b c0    	vcvtusi2ss %eax,%xmm4,%xmm0
    5996:	e8 d5 c7 ff ff       	call   2170 <log2f@plt>
    599b:	c5 fa 5c 44 24 10    	vsubss 0x10(%rsp),%xmm0,%xmm0
    59a1:	c5 fa 59 05 73 56 00 	vmulss 0x5673(%rip),%xmm0,%xmm0        # b01c <_IO_stdin_used+0x1c>
    59a8:	00 
    59a9:	c5 fa 59 84 24 80 00 	vmulss 0x80(%rsp),%xmm0,%xmm0
    59b0:	00 00 
    59b2:	c5 fa 2c c0          	vcvttss2si %xmm0,%eax
    59b6:	04 20                	add    $0x20,%al
    59b8:	b1 20                	mov    $0x20,%cl
    59ba:	8d 53 fe             	lea    -0x2(%rbx),%edx
    59bd:	41 88 0c 16          	mov    %cl,(%r14,%rdx,1)
    59c1:	8d 53 ff             	lea    -0x1(%rbx),%edx
    59c4:	41 88 04 16          	mov    %al,(%r14,%rdx,1)
    59c8:	89 d8                	mov    %ebx,%eax
    59ca:	41 88 0c 06          	mov    %cl,(%r14,%rax,1)
    59ce:	49 83 c7 02          	add    $0x2,%r15
    59d2:	83 c3 06             	add    $0x6,%ebx
    59d5:	41 83 c5 02          	add    $0x2,%r13d
    59d9:	4c 39 bc 24 c0 00 00 	cmp    %r15,0xc0(%rsp)
    59e0:	00 
    59e1:	74 7d                	je     5a60 <main+0x19c0>
    59e3:	41 8d 45 ff          	lea    -0x1(%r13),%eax
    59e7:	48 8b 4c 24 08       	mov    0x8(%rsp),%rcx
    59ec:	8b 04 81             	mov    (%rcx,%rax,4),%eax
    59ef:	39 e8                	cmp    %ebp,%eax
    59f1:	73 2d                	jae    5a20 <main+0x1980>
    59f3:	62 f1 5e 08 7b c0    	vcvtusi2ss %eax,%xmm4,%xmm0
    59f9:	e8 72 c7 ff ff       	call   2170 <log2f@plt>
    59fe:	c5 fa 5c 44 24 10    	vsubss 0x10(%rsp),%xmm0,%xmm0
    5a04:	c5 fa 59 05 10 56 00 	vmulss 0x5610(%rip),%xmm0,%xmm0        # b01c <_IO_stdin_used+0x1c>
    5a0b:	00 
    5a0c:	c5 fa 59 84 24 80 00 	vmulss 0x80(%rsp),%xmm0,%xmm0
    5a13:	00 00 
    5a15:	c5 fa 2c c0          	vcvttss2si %xmm0,%eax
    5a19:	04 20                	add    $0x20,%al
    5a1b:	b1 20                	mov    $0x20,%cl
    5a1d:	eb 05                	jmp    5a24 <main+0x1984>
    5a1f:	90                   	nop
    5a20:	31 c0                	xor    %eax,%eax
    5a22:	31 c9                	xor    %ecx,%ecx
    5a24:	8d 53 fb             	lea    -0x5(%rbx),%edx
    5a27:	41 88 0c 16          	mov    %cl,(%r14,%rdx,1)
    5a2b:	8d 53 fc             	lea    -0x4(%rbx),%edx
    5a2e:	41 88 04 16          	mov    %al,(%r14,%rdx,1)
    5a32:	8d 43 fd             	lea    -0x3(%rbx),%eax
    5a35:	41 88 0c 06          	mov    %cl,(%r14,%rax,1)
    5a39:	44 89 e8             	mov    %r13d,%eax
    5a3c:	48 8b 4c 24 08       	mov    0x8(%rsp),%rcx
    5a41:	8b 04 81             	mov    (%rcx,%rax,4),%eax
    5a44:	39 e8                	cmp    %ebp,%eax
    5a46:	0f 82 44 ff ff ff    	jb     5990 <main+0x18f0>
    5a4c:	31 c0                	xor    %eax,%eax
    5a4e:	31 c9                	xor    %ecx,%ecx
    5a50:	e9 65 ff ff ff       	jmp    59ba <main+0x191a>
    5a55:	66 66 2e 0f 1f 84 00 	data16 cs nopw 0x0(%rax,%rax,1)
    5a5c:	00 00 00 00 
    5a60:	48 8b 1c 24          	mov    (%rsp),%rbx
    5a64:	44 8b 6c 24 60       	mov    0x60(%rsp),%r13d
    5a69:	48 8b 44 24 18       	mov    0x18(%rsp),%rax
    5a6e:	8b 4c 24 50          	mov    0x50(%rsp),%ecx
    5a72:	41 f6 c4 01          	test   $0x1,%r12b
    5a76:	0f 84 d3 fe ff ff    	je     594f <main+0x18af>
    5a7c:	89 c3                	mov    %eax,%ebx
    5a7e:	41 0f af dc          	imul   %r12d,%ebx
    5a82:	44 01 fb             	add    %r15d,%ebx
    5a85:	48 8b 44 24 08       	mov    0x8(%rsp),%rax
    5a8a:	8b 04 98             	mov    (%rax,%rbx,4),%eax
    5a8d:	39 e8                	cmp    %ebp,%eax
    5a8f:	0f 82 6b fe ff ff    	jb     5900 <main+0x1860>
    5a95:	31 c0                	xor    %eax,%eax
    5a97:	31 c9                	xor    %ecx,%ecx
    5a99:	e9 8c fe ff ff       	jmp    592a <main+0x188a>
    5a9e:	48 8d 3d 7e 5a 00 00 	lea    0x5a7e(%rip),%rdi        # b523 <_IO_stdin_used+0x523>
    5aa5:	48 8d 94 24 20 01 00 	lea    0x120(%rsp),%rdx
    5aac:	00 
    5aad:	44 89 e6             	mov    %r12d,%esi
    5ab0:	e8 cb db ff ff       	call   3680 <_Z8writeBMPPKcjRKSt6vectorIhSaIhEE>
    5ab5:	4d 85 f6             	test   %r14,%r14
    5ab8:	4c 8b 7c 24 08       	mov    0x8(%rsp),%r15
    5abd:	74 10                	je     5acf <main+0x1a2f>
    5abf:	48 8b 74 24 40       	mov    0x40(%rsp),%rsi
    5ac4:	4c 29 f6             	sub    %r14,%rsi
    5ac7:	4c 89 f7             	mov    %r14,%rdi
    5aca:	e8 51 c6 ff ff       	call   2120 <_ZdlPvm@plt>
    5acf:	48 8b 3d e2 74 00 00 	mov    0x74e2(%rip),%rdi        # cfb8 <_ZSt4cout@GLIBCXX_3.4>
    5ad6:	48 8d 35 64 5a 00 00 	lea    0x5a64(%rip),%rsi        # b541 <_IO_stdin_used+0x541>
    5add:	ba 3a 00 00 00       	mov    $0x3a,%edx
    5ae2:	e8 59 c6 ff ff       	call   2140 <_ZSt16__ostream_insertIcSt11char_traitsIcEERSt13basic_ostreamIT_T0_ES6_PKS3_l@plt>
    5ae7:	4d 85 e4             	test   %r12,%r12
    5aea:	0f 84 de 02 00 00    	je     5dce <main+0x1d2e>
    5af0:	49 8d 44 24 ff       	lea    -0x1(%r12),%rax
    5af5:	44 89 e1             	mov    %r12d,%ecx
    5af8:	83 e1 f0             	and    $0xfffffff0,%ecx
    5afb:	48 89 4c 24 10       	mov    %rcx,0x10(%rsp)
    5b00:	44 89 e1             	mov    %r12d,%ecx
    5b03:	83 e1 fc             	and    $0xfffffffc,%ecx
    5b06:	44 89 e6             	mov    %r12d,%esi
    5b09:	83 e6 03             	and    $0x3,%esi
    5b0c:	48 89 8c 24 80 00 00 	mov    %rcx,0x80(%rsp)
    5b13:	00 
    5b14:	48 f7 d9             	neg    %rcx
    5b17:	48 89 8c 24 c0 00 00 	mov    %rcx,0xc0(%rsp)
    5b1e:	00 
    5b1f:	45 31 c0             	xor    %r8d,%r8d
    5b22:	45 31 c9             	xor    %r9d,%r9d
    5b25:	45 31 d2             	xor    %r10d,%r10d
    5b28:	eb 18                	jmp    5b42 <main+0x1aa2>
    5b2a:	48 8b 0c 24          	mov    (%rsp),%rcx
    5b2e:	66 90                	xchg   %ax,%ax
    5b30:	41 ff c1             	inc    %r9d
    5b33:	4d 01 e0             	add    %r12,%r8
    5b36:	45 39 e1             	cmp    %r12d,%r9d
    5b39:	48 89 cb             	mov    %rcx,%rbx
    5b3c:	0f 84 85 02 00 00    	je     5dc7 <main+0x1d27>
    5b42:	41 83 fc 03          	cmp    $0x3,%r12d
    5b46:	76 22                	jbe    5b6a <main+0x1aca>
    5b48:	48 89 c7             	mov    %rax,%rdi
    5b4b:	48 c1 ef 20          	shr    $0x20,%rdi
    5b4f:	40 0f 95 c7          	setne  %dil
    5b53:	45 89 e3             	mov    %r12d,%r11d
    5b56:	45 0f af d9          	imul   %r9d,%r11d
    5b5a:	41 01 c3             	add    %eax,%r11d
    5b5d:	41 0f 92 c3          	setb   %r11b
    5b61:	41 08 fb             	or     %dil,%r11b
    5b64:	0f 84 06 01 00 00    	je     5c70 <main+0x1bd0>
    5b6a:	31 db                	xor    %ebx,%ebx
    5b6c:	48 85 f6             	test   %rsi,%rsi
    5b6f:	74 4f                	je     5bc0 <main+0x1b20>
    5b71:	49 89 f6             	mov    %rsi,%r14
    5b74:	49 89 db             	mov    %rbx,%r11
    5b77:	48 8b 54 24 08       	mov    0x8(%rsp),%rdx
    5b7c:	48 8b 0c 24          	mov    (%rsp),%rcx
    5b80:	47 8d 3c 18          	lea    (%r8,%r11,1),%r15d
    5b84:	42 8b 3c ba          	mov    (%rdx,%r15,4),%edi
    5b88:	46 8b 3c b9          	mov    (%rcx,%r15,4),%r15d
    5b8c:	41 89 fd             	mov    %edi,%r13d
    5b8f:	45 29 fd             	sub    %r15d,%r13d
    5b92:	41 29 ff             	sub    %edi,%r15d
    5b95:	45 0f 4c fd          	cmovl  %r13d,%r15d
    5b99:	4d 01 fa             	add    %r15,%r10
    5b9c:	49 ff c3             	inc    %r11
    5b9f:	49 ff ce             	dec    %r14
    5ba2:	75 dc                	jne    5b80 <main+0x1ae0>
    5ba4:	4c 29 e3             	sub    %r12,%rbx
    5ba7:	48 83 fb fc          	cmp    $0xfffffffffffffffc,%rbx
    5bab:	49 89 d7             	mov    %rdx,%r15
    5bae:	76 30                	jbe    5be0 <main+0x1b40>
    5bb0:	e9 7b ff ff ff       	jmp    5b30 <main+0x1a90>
    5bb5:	66 66 2e 0f 1f 84 00 	data16 cs nopw 0x0(%rax,%rax,1)
    5bbc:	00 00 00 00 
    5bc0:	49 89 db             	mov    %rbx,%r11
    5bc3:	48 8b 54 24 08       	mov    0x8(%rsp),%rdx
    5bc8:	48 8b 0c 24          	mov    (%rsp),%rcx
    5bcc:	4c 29 e3             	sub    %r12,%rbx
    5bcf:	48 83 fb fc          	cmp    $0xfffffffffffffffc,%rbx
    5bd3:	49 89 d7             	mov    %rdx,%r15
    5bd6:	0f 87 54 ff ff ff    	ja     5b30 <main+0x1a90>
    5bdc:	0f 1f 40 00          	nopl   0x0(%rax)
    5be0:	43 8d 3c 18          	lea    (%r8,%r11,1),%edi
    5be4:	45 8b 34 bf          	mov    (%r15,%rdi,4),%r14d
    5be8:	8b 1c b9             	mov    (%rcx,%rdi,4),%ebx
    5beb:	44 89 f7             	mov    %r14d,%edi
    5bee:	29 df                	sub    %ebx,%edi
    5bf0:	44 29 f3             	sub    %r14d,%ebx
    5bf3:	0f 4c df             	cmovl  %edi,%ebx
    5bf6:	4c 01 d3             	add    %r10,%rbx
    5bf9:	43 8d 3c 18          	lea    (%r8,%r11,1),%edi
    5bfd:	ff c7                	inc    %edi
    5bff:	45 8b 14 bf          	mov    (%r15,%rdi,4),%r10d
    5c03:	8b 3c b9             	mov    (%rcx,%rdi,4),%edi
    5c06:	45 89 d6             	mov    %r10d,%r14d
    5c09:	41 29 fe             	sub    %edi,%r14d
    5c0c:	44 29 d7             	sub    %r10d,%edi
    5c0f:	41 0f 4c fe          	cmovl  %r14d,%edi
    5c13:	47 8d 54 18 02       	lea    0x2(%r8,%r11,1),%r10d
    5c18:	47 8b 34 97          	mov    (%r15,%r10,4),%r14d
    5c1c:	46 8b 3c 91          	mov    (%rcx,%r10,4),%r15d
    5c20:	45 89 f2             	mov    %r14d,%r10d
    5c23:	45 29 fa             	sub    %r15d,%r10d
    5c26:	45 29 f7             	sub    %r14d,%r15d
    5c29:	45 0f 4c fa          	cmovl  %r10d,%r15d
    5c2d:	49 01 ff             	add    %rdi,%r15
    5c30:	49 01 df             	add    %rbx,%r15
    5c33:	43 8d 3c 18          	lea    (%r8,%r11,1),%edi
    5c37:	83 c7 03             	add    $0x3,%edi
    5c3a:	48 8b 54 24 08       	mov    0x8(%rsp),%rdx
    5c3f:	8b 1c ba             	mov    (%rdx,%rdi,4),%ebx
    5c42:	44 8b 14 b9          	mov    (%rcx,%rdi,4),%r10d
    5c46:	89 df                	mov    %ebx,%edi
    5c48:	44 29 d7             	sub    %r10d,%edi
    5c4b:	41 29 da             	sub    %ebx,%r10d
    5c4e:	44 0f 4c d7          	cmovl  %edi,%r10d
    5c52:	4d 01 fa             	add    %r15,%r10
    5c55:	4c 8b 7c 24 08       	mov    0x8(%rsp),%r15
    5c5a:	49 83 c3 04          	add    $0x4,%r11
    5c5e:	4d 39 dc             	cmp    %r11,%r12
    5c61:	0f 85 79 ff ff ff    	jne    5be0 <main+0x1b40>
    5c67:	e9 c4 fe ff ff       	jmp    5b30 <main+0x1a90>
    5c6c:	0f 1f 40 00          	nopl   0x0(%rax)
    5c70:	41 83 fc 10          	cmp    $0x10,%r12d
    5c74:	73 0b                	jae    5c81 <main+0x1be1>
    5c76:	45 31 db             	xor    %r11d,%r11d
    5c79:	48 89 d9             	mov    %rbx,%rcx
    5c7c:	e9 d9 00 00 00       	jmp    5d5a <main+0x1cba>
    5c81:	c4 c1 f9 6e c2       	vmovq  %r10,%xmm0
    5c86:	c5 f0 57 c9          	vxorps %xmm1,%xmm1,%xmm1
    5c8a:	45 89 c2             	mov    %r8d,%r10d
    5c8d:	4c 8b 5c 24 10       	mov    0x10(%rsp),%r11
    5c92:	c5 e8 57 d2          	vxorps %xmm2,%xmm2,%xmm2
    5c96:	c5 e0 57 db          	vxorps %xmm3,%xmm3,%xmm3
    5c9a:	66 0f 1f 44 00 00    	nopw   0x0(%rax,%rax,1)
    5ca0:	44 89 d7             	mov    %r10d,%edi
    5ca3:	c4 c1 7a 6f 24 bf    	vmovdqu (%r15,%rdi,4),%xmm4
    5ca9:	c4 c1 7a 6f 6c bf 10 	vmovdqu 0x10(%r15,%rdi,4),%xmm5
    5cb0:	c4 c1 7a 6f 74 bf 20 	vmovdqu 0x20(%r15,%rdi,4),%xmm6
    5cb7:	c4 c1 7a 6f 7c bf 30 	vmovdqu 0x30(%r15,%rdi,4),%xmm7
    5cbe:	c5 d9 fa 24 bb       	vpsubd (%rbx,%rdi,4),%xmm4,%xmm4
    5cc3:	c5 d1 fa 6c bb 10    	vpsubd 0x10(%rbx,%rdi,4),%xmm5,%xmm5
    5cc9:	c5 c9 fa 74 bb 20    	vpsubd 0x20(%rbx,%rdi,4),%xmm6,%xmm6
    5ccf:	c5 c1 fa 7c bb 30    	vpsubd 0x30(%rbx,%rdi,4),%xmm7,%xmm7
    5cd5:	c4 e2 79 1e e4       	vpabsd %xmm4,%xmm4
    5cda:	c4 e2 79 1e ed       	vpabsd %xmm5,%xmm5
    5cdf:	c4 e2 79 1e f6       	vpabsd %xmm6,%xmm6
    5ce4:	c4 e2 79 1e ff       	vpabsd %xmm7,%xmm7
    5ce9:	c4 e2 7d 35 e4       	vpmovzxdq %xmm4,%ymm4
    5cee:	c5 fd d4 c4          	vpaddq %ymm4,%ymm0,%ymm0
    5cf2:	c4 e2 7d 35 e5       	vpmovzxdq %xmm5,%ymm4
    5cf7:	c5 f5 d4 cc          	vpaddq %ymm4,%ymm1,%ymm1
    5cfb:	c4 e2 7d 35 e6       	vpmovzxdq %xmm6,%ymm4
    5d00:	c5 ed d4 d4          	vpaddq %ymm4,%ymm2,%ymm2
    5d04:	c4 e2 7d 35 e7       	vpmovzxdq %xmm7,%ymm4
    5d09:	c5 e5 d4 dc          	vpaddq %ymm4,%ymm3,%ymm3
    5d0d:	41 83 c2 10          	add    $0x10,%r10d
    5d11:	49 83 c3 f0          	add    $0xfffffffffffffff0,%r11
    5d15:	75 89                	jne    5ca0 <main+0x1c00>
    5d17:	c5 f5 d4 c0          	vpaddq %ymm0,%ymm1,%ymm0
    5d1b:	c5 ed d4 c0          	vpaddq %ymm0,%ymm2,%ymm0
    5d1f:	c5 e5 d4 c0          	vpaddq %ymm0,%ymm3,%ymm0
    5d23:	c4 e3 7d 39 c1 01    	vextracti128 $0x1,%ymm0,%xmm1
    5d29:	c5 f9 d4 c1          	vpaddq %xmm1,%xmm0,%xmm0
    5d2d:	c5 f9 70 c8 ee       	vpshufd $0xee,%xmm0,%xmm1
    5d32:	c5 f9 d4 c1          	vpaddq %xmm1,%xmm0,%xmm0
    5d36:	c4 c1 f9 7e c2       	vmovq  %xmm0,%r10
    5d3b:	4c 8b 5c 24 10       	mov    0x10(%rsp),%r11
    5d40:	45 39 e3             	cmp    %r12d,%r11d
    5d43:	0f 84 e1 fd ff ff    	je     5b2a <main+0x1a8a>
    5d49:	4c 89 db             	mov    %r11,%rbx
    5d4c:	41 f6 c4 0c          	test   $0xc,%r12b
    5d50:	48 8b 0c 24          	mov    (%rsp),%rcx
    5d54:	0f 84 12 fe ff ff    	je     5b6c <main+0x1acc>
    5d5a:	c4 c1 f9 6e c2       	vmovq  %r10,%xmm0
    5d5f:	48 8b 94 24 c0 00 00 	mov    0xc0(%rsp),%rdx
    5d66:	00 
    5d67:	4e 8d 14 1a          	lea    (%rdx,%r11,1),%r10
    5d6b:	45 01 c3             	add    %r8d,%r11d
    5d6e:	66 90                	xchg   %ax,%ax
    5d70:	44 89 df             	mov    %r11d,%edi
    5d73:	c4 c1 7a 6f 0c bf    	vmovdqu (%r15,%rdi,4),%xmm1
    5d79:	c5 f1 fa 0c b9       	vpsubd (%rcx,%rdi,4),%xmm1,%xmm1
    5d7e:	c4 e2 79 1e c9       	vpabsd %xmm1,%xmm1
    5d83:	c4 e2 7d 35 c9       	vpmovzxdq %xmm1,%ymm1
    5d88:	c5 fd d4 c1          	vpaddq %ymm1,%ymm0,%ymm0
    5d8c:	41 83 c3 04          	add    $0x4,%r11d
    5d90:	49 83 c2 04          	add    $0x4,%r10
    5d94:	75 da                	jne    5d70 <main+0x1cd0>
    5d96:	c4 e3 7d 39 c1 01    	vextracti128 $0x1,%ymm0,%xmm1
    5d9c:	c5 f9 d4 c1          	vpaddq %xmm1,%xmm0,%xmm0
    5da0:	c5 f9 70 c8 ee       	vpshufd $0xee,%xmm0,%xmm1
    5da5:	c5 f9 d4 c1          	vpaddq %xmm1,%xmm0,%xmm0
    5da9:	c4 c1 f9 7e c2       	vmovq  %xmm0,%r10
    5dae:	48 8b 94 24 80 00 00 	mov    0x80(%rsp),%rdx
    5db5:	00 
    5db6:	48 89 d3             	mov    %rdx,%rbx
    5db9:	44 39 e2             	cmp    %r12d,%edx
    5dbc:	0f 84 6e fd ff ff    	je     5b30 <main+0x1a90>
    5dc2:	e9 a5 fd ff ff       	jmp    5b6c <main+0x1acc>
    5dc7:	c4 c1 bb 2a c2       	vcvtsi2sd %r10,%xmm8,%xmm0
    5dcc:	eb 04                	jmp    5dd2 <main+0x1d32>
    5dce:	c5 f9 57 c0          	vxorpd %xmm0,%xmm0,%xmm0
    5dd2:	44 89 e0             	mov    %r12d,%eax
    5dd5:	0f af c5             	imul   %ebp,%eax
    5dd8:	41 0f af c4          	imul   %r12d,%eax
    5ddc:	62 f1 3f 08 7b c8    	vcvtusi2sd %eax,%xmm8,%xmm1
    5de2:	c5 fb 5e c1          	vdivsd %xmm1,%xmm0,%xmm0
    5de6:	48 8b 3d cb 71 00 00 	mov    0x71cb(%rip),%rdi        # cfb8 <_ZSt4cout@GLIBCXX_3.4>
    5ded:	c5 f8 77             	vzeroupper
    5df0:	e8 db c3 ff ff       	call   21d0 <_ZNSo9_M_insertIdEERSoT_@plt>
    5df5:	49 89 c6             	mov    %rax,%r14
    5df8:	48 8b 00             	mov    (%rax),%rax
    5dfb:	48 8b 40 e8          	mov    -0x18(%rax),%rax
    5dff:	4d 8b ac 06 f0 00 00 	mov    0xf0(%r14,%rax,1),%r13
    5e06:	00 
    5e07:	4d 85 ed             	test   %r13,%r13
    5e0a:	0f 84 4e 3a 00 00    	je     985e <main+0x57be>
    5e10:	41 80 7d 38 00       	cmpb   $0x0,0x38(%r13)
    5e15:	74 07                	je     5e1e <main+0x1d7e>
    5e17:	41 0f b6 45 43       	movzbl 0x43(%r13),%eax
    5e1c:	eb 17                	jmp    5e35 <main+0x1d95>
    5e1e:	4c 89 ef             	mov    %r13,%rdi
    5e21:	e8 2a c3 ff ff       	call   2150 <_ZNKSt5ctypeIcE13_M_widen_initEv@plt>
    5e26:	49 8b 45 00          	mov    0x0(%r13),%rax
    5e2a:	4c 89 ef             	mov    %r13,%rdi
    5e2d:	be 0a 00 00 00       	mov    $0xa,%esi
    5e32:	ff 50 30             	call   *0x30(%rax)
    5e35:	0f be f0             	movsbl %al,%esi
    5e38:	4c 89 f7             	mov    %r14,%rdi
    5e3b:	e8 f0 c1 ff ff       	call   2030 <_ZNSo3putEc@plt>
    5e40:	48 89 c7             	mov    %rax,%rdi
    5e43:	e8 78 c2 ff ff       	call   20c0 <_ZNSo5flushEv@plt>
    5e48:	8b 4c 24 70          	mov    0x70(%rsp),%ecx
    5e4c:	89 c8                	mov    %ecx,%eax
    5e4e:	83 e0 fb             	and    $0xfffffffb,%eax
    5e51:	83 f8 02             	cmp    $0x2,%eax
    5e54:	0f 85 84 0e 00 00    	jne    6cde <main+0x2c3e>
    5e5a:	4c 89 e2             	mov    %r12,%rdx
    5e5d:	49 0f af d4          	imul   %r12,%rdx
    5e61:	48 c1 e2 02          	shl    $0x2,%rdx
    5e65:	4c 89 ff             	mov    %r15,%rdi
    5e68:	31 f6                	xor    %esi,%esi
    5e6a:	e8 31 c2 ff ff       	call   20a0 <memset@plt>
    5e6f:	48 8b 05 42 71 00 00 	mov    0x7142(%rip),%rax        # cfb8 <_ZSt4cout@GLIBCXX_3.4>
    5e76:	48 8b 08             	mov    (%rax),%rcx
    5e79:	48 8b 49 e8          	mov    -0x18(%rcx),%rcx
    5e7d:	4c 8b b4 08 f0 00 00 	mov    0xf0(%rax,%rcx,1),%r14
    5e84:	00 
    5e85:	4d 85 f6             	test   %r14,%r14
    5e88:	0f 84 d0 39 00 00    	je     985e <main+0x57be>
    5e8e:	41 80 7e 38 00       	cmpb   $0x0,0x38(%r14)
    5e93:	74 07                	je     5e9c <main+0x1dfc>
    5e95:	41 0f b6 46 43       	movzbl 0x43(%r14),%eax
    5e9a:	eb 16                	jmp    5eb2 <main+0x1e12>
    5e9c:	4c 89 f7             	mov    %r14,%rdi
    5e9f:	e8 ac c2 ff ff       	call   2150 <_ZNKSt5ctypeIcE13_M_widen_initEv@plt>
    5ea4:	49 8b 06             	mov    (%r14),%rax
    5ea7:	4c 89 f7             	mov    %r14,%rdi
    5eaa:	be 0a 00 00 00       	mov    $0xa,%esi
    5eaf:	ff 50 30             	call   *0x30(%rax)
    5eb2:	0f be f0             	movsbl %al,%esi
    5eb5:	48 8b 3d fc 70 00 00 	mov    0x70fc(%rip),%rdi        # cfb8 <_ZSt4cout@GLIBCXX_3.4>
    5ebc:	e8 6f c1 ff ff       	call   2030 <_ZNSo3putEc@plt>
    5ec1:	48 89 c7             	mov    %rax,%rdi
    5ec4:	e8 f7 c1 ff ff       	call   20c0 <_ZNSo5flushEv@plt>
    5ec9:	49 89 c6             	mov    %rax,%r14
    5ecc:	48 8d 35 e7 55 00 00 	lea    0x55e7(%rip),%rsi        # b4ba <_IO_stdin_used+0x4ba>
    5ed3:	ba 08 00 00 00       	mov    $0x8,%edx
    5ed8:	48 89 c7             	mov    %rax,%rdi
    5edb:	e8 60 c2 ff ff       	call   2140 <_ZSt16__ostream_insertIcSt11char_traitsIcEERSt13basic_ostreamIT_T0_ES6_PKS3_l@plt>
    5ee0:	48 8d 35 95 56 00 00 	lea    0x5695(%rip),%rsi        # b57c <_IO_stdin_used+0x57c>
    5ee7:	ba 19 00 00 00       	mov    $0x19,%edx
    5eec:	4c 89 f7             	mov    %r14,%rdi
    5eef:	e8 4c c2 ff ff       	call   2140 <_ZSt16__ostream_insertIcSt11char_traitsIcEERSt13basic_ostreamIT_T0_ES6_PKS3_l@plt>
    5ef4:	48 8d 35 de 55 00 00 	lea    0x55de(%rip),%rsi        # b4d9 <_IO_stdin_used+0x4d9>
    5efb:	ba 05 00 00 00       	mov    $0x5,%edx
    5f00:	4c 89 f7             	mov    %r14,%rdi
    5f03:	e8 38 c2 ff ff       	call   2140 <_ZSt16__ostream_insertIcSt11char_traitsIcEERSt13basic_ostreamIT_T0_ES6_PKS3_l@plt>
    5f08:	bf 50 00 00 00       	mov    $0x50,%edi
    5f0d:	e8 fe c1 ff ff       	call   2110 <_Znwm@plt>
    5f12:	48 89 c3             	mov    %rax,%rbx
    5f15:	c5 f8 57 c0          	vxorps %xmm0,%xmm0,%xmm0
    5f19:	c5 fc 11 40 30       	vmovups %ymm0,0x30(%rax)
    5f1e:	c5 fc 11 40 20       	vmovups %ymm0,0x20(%rax)
    5f23:	c5 fc 11 00          	vmovups %ymm0,(%rax)
    5f27:	c5 f8 77             	vzeroupper
    5f2a:	e8 11 c1 ff ff       	call   2040 <_ZNSt6chrono3_V212system_clock3nowEv@plt>
    5f2f:	49 89 c6             	mov    %rax,%r14
    5f32:	44 89 e7             	mov    %r12d,%edi
    5f35:	89 ee                	mov    %ebp,%esi
    5f37:	4c 89 fa             	mov    %r15,%rdx
    5f3a:	e8 b1 c7 ff ff       	call   26f0 <_Z25mandelbrot_cpu_vector_ilpjjPj>
    5f3f:	e8 fc c0 ff ff       	call   2040 <_ZNSt6chrono3_V212system_clock3nowEv@plt>
    5f44:	4c 29 f0             	sub    %r14,%rax
    5f47:	62 f1 9f 08 7b c0    	vcvtusi2sd %rax,%xmm12,%xmm0
    5f4d:	c5 fb 11 03          	vmovsd %xmm0,(%rbx)
    5f51:	e8 ea c0 ff ff       	call   2040 <_ZNSt6chrono3_V212system_clock3nowEv@plt>
    5f56:	49 89 c6             	mov    %rax,%r14
    5f59:	44 89 e7             	mov    %r12d,%edi
    5f5c:	89 ee                	mov    %ebp,%esi
    5f5e:	4c 89 fa             	mov    %r15,%rdx
    5f61:	e8 8a c7 ff ff       	call   26f0 <_Z25mandelbrot_cpu_vector_ilpjjPj>
    5f66:	e8 d5 c0 ff ff       	call   2040 <_ZNSt6chrono3_V212system_clock3nowEv@plt>
    5f6b:	4c 29 f0             	sub    %r14,%rax
    5f6e:	62 f1 9f 08 7b c0    	vcvtusi2sd %rax,%xmm12,%xmm0
    5f74:	c5 fb 11 43 08       	vmovsd %xmm0,0x8(%rbx)
    5f79:	e8 c2 c0 ff ff       	call   2040 <_ZNSt6chrono3_V212system_clock3nowEv@plt>
    5f7e:	49 89 c6             	mov    %rax,%r14
    5f81:	44 89 e7             	mov    %r12d,%edi
    5f84:	89 ee                	mov    %ebp,%esi
    5f86:	4c 89 fa             	mov    %r15,%rdx
    5f89:	e8 62 c7 ff ff       	call   26f0 <_Z25mandelbrot_cpu_vector_ilpjjPj>
    5f8e:	e8 ad c0 ff ff       	call   2040 <_ZNSt6chrono3_V212system_clock3nowEv@plt>
    5f93:	4c 29 f0             	sub    %r14,%rax
    5f96:	62 f1 9f 08 7b c0    	vcvtusi2sd %rax,%xmm12,%xmm0
    5f9c:	c5 fb 11 43 10       	vmovsd %xmm0,0x10(%rbx)
    5fa1:	e8 9a c0 ff ff       	call   2040 <_ZNSt6chrono3_V212system_clock3nowEv@plt>
    5fa6:	49 89 c6             	mov    %rax,%r14
    5fa9:	44 89 e7             	mov    %r12d,%edi
    5fac:	89 ee                	mov    %ebp,%esi
    5fae:	4c 89 fa             	mov    %r15,%rdx
    5fb1:	e8 3a c7 ff ff       	call   26f0 <_Z25mandelbrot_cpu_vector_ilpjjPj>
    5fb6:	e8 85 c0 ff ff       	call   2040 <_ZNSt6chrono3_V212system_clock3nowEv@plt>
    5fbb:	4c 29 f0             	sub    %r14,%rax
    5fbe:	62 f1 9f 08 7b c0    	vcvtusi2sd %rax,%xmm12,%xmm0
    5fc4:	c5 fb 11 43 18       	vmovsd %xmm0,0x18(%rbx)
    5fc9:	e8 72 c0 ff ff       	call   2040 <_ZNSt6chrono3_V212system_clock3nowEv@plt>
    5fce:	49 89 c6             	mov    %rax,%r14
    5fd1:	44 89 e7             	mov    %r12d,%edi
    5fd4:	89 ee                	mov    %ebp,%esi
    5fd6:	4c 89 fa             	mov    %r15,%rdx
    5fd9:	e8 12 c7 ff ff       	call   26f0 <_Z25mandelbrot_cpu_vector_ilpjjPj>
    5fde:	e8 5d c0 ff ff       	call   2040 <_ZNSt6chrono3_V212system_clock3nowEv@plt>
    5fe3:	4c 29 f0             	sub    %r14,%rax
    5fe6:	62 f1 ef 08 7b c0    	vcvtusi2sd %rax,%xmm2,%xmm0
    5fec:	c5 fb 11 43 20       	vmovsd %xmm0,0x20(%rbx)
    5ff1:	e8 4a c0 ff ff       	call   2040 <_ZNSt6chrono3_V212system_clock3nowEv@plt>
    5ff6:	49 89 c6             	mov    %rax,%r14
    5ff9:	44 89 e7             	mov    %r12d,%edi
    5ffc:	89 ee                	mov    %ebp,%esi
    5ffe:	4c 89 fa             	mov    %r15,%rdx
    6001:	e8 ea c6 ff ff       	call   26f0 <_Z25mandelbrot_cpu_vector_ilpjjPj>
    6006:	e8 35 c0 ff ff       	call   2040 <_ZNSt6chrono3_V212system_clock3nowEv@plt>
    600b:	4c 29 f0             	sub    %r14,%rax
    600e:	62 f1 f7 08 7b c0    	vcvtusi2sd %rax,%xmm1,%xmm0
    6014:	c5 fb 11 43 28       	vmovsd %xmm0,0x28(%rbx)
    6019:	e8 22 c0 ff ff       	call   2040 <_ZNSt6chrono3_V212system_clock3nowEv@plt>
    601e:	49 89 c6             	mov    %rax,%r14
    6021:	44 89 e7             	mov    %r12d,%edi
    6024:	89 ee                	mov    %ebp,%esi
    6026:	4c 89 fa             	mov    %r15,%rdx
    6029:	e8 c2 c6 ff ff       	call   26f0 <_Z25mandelbrot_cpu_vector_ilpjjPj>
    602e:	e8 0d c0 ff ff       	call   2040 <_ZNSt6chrono3_V212system_clock3nowEv@plt>
    6033:	4c 29 f0             	sub    %r14,%rax
    6036:	62 f1 f7 08 7b c0    	vcvtusi2sd %rax,%xmm1,%xmm0
    603c:	c5 fb 11 43 30       	vmovsd %xmm0,0x30(%rbx)
    6041:	e8 fa bf ff ff       	call   2040 <_ZNSt6chrono3_V212system_clock3nowEv@plt>
    6046:	49 89 c6             	mov    %rax,%r14
    6049:	44 89 e7             	mov    %r12d,%edi
    604c:	89 ee                	mov    %ebp,%esi
    604e:	4c 89 fa             	mov    %r15,%rdx
    6051:	e8 9a c6 ff ff       	call   26f0 <_Z25mandelbrot_cpu_vector_ilpjjPj>
    6056:	e8 e5 bf ff ff       	call   2040 <_ZNSt6chrono3_V212system_clock3nowEv@plt>
    605b:	4c 29 f0             	sub    %r14,%rax
    605e:	62 f1 f7 08 7b c0    	vcvtusi2sd %rax,%xmm1,%xmm0
    6064:	c5 fb 11 43 38       	vmovsd %xmm0,0x38(%rbx)
    6069:	e8 d2 bf ff ff       	call   2040 <_ZNSt6chrono3_V212system_clock3nowEv@plt>
    606e:	49 89 c6             	mov    %rax,%r14
    6071:	44 89 e7             	mov    %r12d,%edi
    6074:	89 ee                	mov    %ebp,%esi
    6076:	4c 89 fa             	mov    %r15,%rdx
    6079:	e8 72 c6 ff ff       	call   26f0 <_Z25mandelbrot_cpu_vector_ilpjjPj>
    607e:	e8 bd bf ff ff       	call   2040 <_ZNSt6chrono3_V212system_clock3nowEv@plt>
    6083:	4c 29 f0             	sub    %r14,%rax
    6086:	62 f1 f7 08 7b c0    	vcvtusi2sd %rax,%xmm1,%xmm0
    608c:	c5 fb 11 43 40       	vmovsd %xmm0,0x40(%rbx)
    6091:	e8 aa bf ff ff       	call   2040 <_ZNSt6chrono3_V212system_clock3nowEv@plt>
    6096:	49 89 c6             	mov    %rax,%r14
    6099:	44 89 e7             	mov    %r12d,%edi
    609c:	89 ee                	mov    %ebp,%esi
    609e:	4c 89 fa             	mov    %r15,%rdx
    60a1:	e8 4a c6 ff ff       	call   26f0 <_Z25mandelbrot_cpu_vector_ilpjjPj>
    60a6:	e8 95 bf ff ff       	call   2040 <_ZNSt6chrono3_V212system_clock3nowEv@plt>
    60ab:	4c 29 f0             	sub    %r14,%rax
    60ae:	62 f1 f7 08 7b c0    	vcvtusi2sd %rax,%xmm1,%xmm0
    60b4:	c5 fb 11 43 48       	vmovsd %xmm0,0x48(%rbx)
    60b9:	49 89 de             	mov    %rbx,%r14
    60bc:	49 83 c6 50          	add    $0x50,%r14
    60c0:	ba 06 00 00 00       	mov    $0x6,%edx
    60c5:	48 89 df             	mov    %rbx,%rdi
    60c8:	4c 89 f6             	mov    %r14,%rsi
    60cb:	e8 20 3a 00 00       	call   9af0 <_ZSt16__introsort_loopIN9__gnu_cxx17__normal_iteratorIPdSt6vectorIdSaIdEEEElNS0_5__ops15_Iter_less_iterEEvT_S9_T0_T1_>
    60d0:	48 89 df             	mov    %rbx,%rdi
    60d3:	4c 89 f6             	mov    %r14,%rsi
    60d6:	e8 b5 3c 00 00       	call   9d90 <_ZSt22__final_insertion_sortIN9__gnu_cxx17__normal_iteratorIPdSt6vectorIdSaIdEEEENS0_5__ops15_Iter_less_iterEEvT_S9_T0_>
    60db:	48 8d bc 24 20 01 00 	lea    0x120(%rsp),%rdi
    60e2:	00 
    60e3:	e8 e8 bf ff ff       	call   20d0 <_ZNSt7__cxx1118basic_stringstreamIcSt11char_traitsIcESaIcEEC1Ev@plt>
    60e8:	48 8d bc 24 30 01 00 	lea    0x130(%rsp),%rdi
    60ef:	00 
    60f0:	48 8b 84 24 30 01 00 	mov    0x130(%rsp),%rax
    60f7:	00 
    60f8:	48 8b 48 e8          	mov    -0x18(%rax),%rcx
    60fc:	ba fb fe ff ff       	mov    $0xfffffefb,%edx
    6101:	23 94 0c 48 01 00 00 	and    0x148(%rsp,%rcx,1),%edx
    6108:	83 ca 04             	or     $0x4,%edx
    610b:	89 94 0c 48 01 00 00 	mov    %edx,0x148(%rsp,%rcx,1)
    6112:	48 8b 48 e8          	mov    -0x18(%rax),%rcx
    6116:	48 c7 84 0c 40 01 00 	movq   $0x6,0x140(%rsp,%rcx,1)
    611d:	00 06 00 00 00 
    6122:	48 8b 40 e8          	mov    -0x18(%rax),%rax
    6126:	48 c7 84 04 38 01 00 	movq   $0x2,0x138(%rsp,%rax,1)
    612d:	00 02 00 00 00 
    6132:	c5 fb 10 03          	vmovsd (%rbx),%xmm0
    6136:	c5 fb 59 05 82 52 00 	vmulsd 0x5282(%rip),%xmm0,%xmm0        # b3c0 <_IO_stdin_used+0x3c0>
    613d:	00 
    613e:	e8 8d c0 ff ff       	call   21d0 <_ZNSo9_M_insertIdEERSoT_@plt>
    6143:	48 8b 3d 6e 6e 00 00 	mov    0x6e6e(%rip),%rdi        # cfb8 <_ZSt4cout@GLIBCXX_3.4>
    614a:	48 8d 35 8e 53 00 00 	lea    0x538e(%rip),%rsi        # b4df <_IO_stdin_used+0x4df>
    6151:	ba 0b 00 00 00       	mov    $0xb,%edx
    6156:	e8 e5 bf ff ff       	call   2140 <_ZSt16__ostream_insertIcSt11char_traitsIcEERSt13basic_ostreamIT_T0_ES6_PKS3_l@plt>
    615b:	4c 8d 74 24 30       	lea    0x30(%rsp),%r14
    6160:	4c 89 74 24 20       	mov    %r14,0x20(%rsp)
    6165:	48 c7 44 24 28 00 00 	movq   $0x0,0x28(%rsp)
    616c:	00 00 
    616e:	c6 44 24 30 00       	movb   $0x0,0x30(%rsp)
    6173:	4c 8b 84 24 50 01 00 	mov    0x150(%rsp),%r8
    617a:	00 
    617b:	48 8b 84 24 60 01 00 	mov    0x160(%rsp),%rax
    6182:	00 
    6183:	48 85 c0             	test   %rax,%rax
    6186:	0f 94 c1             	sete   %cl
    6189:	4c 39 c0             	cmp    %r8,%rax
    618c:	4c 0f 47 c0          	cmova  %rax,%r8
    6190:	4d 85 c0             	test   %r8,%r8
    6193:	0f 94 c0             	sete   %al
    6196:	08 c8                	or     %cl,%al
    6198:	74 14                	je     61ae <main+0x210e>
    619a:	48 8d b4 24 80 01 00 	lea    0x180(%rsp),%rsi
    61a1:	00 
    61a2:	48 8d 7c 24 20       	lea    0x20(%rsp),%rdi
    61a7:	e8 f4 42 00 00       	call   a4a0 <_ZNSt7__cxx1112basic_stringIcSt11char_traitsIcESaIcEE9_M_assignERKS4_>
    61ac:	eb 19                	jmp    61c7 <main+0x2127>
    61ae:	48 8b 8c 24 58 01 00 	mov    0x158(%rsp),%rcx
    61b5:	00 
    61b6:	49 29 c8             	sub    %rcx,%r8
    61b9:	48 8d 7c 24 20       	lea    0x20(%rsp),%rdi
    61be:	31 f6                	xor    %esi,%esi
    61c0:	31 d2                	xor    %edx,%edx
    61c2:	e8 09 40 00 00       	call   a1d0 <_ZNSt7__cxx1112basic_stringIcSt11char_traitsIcESaIcEE10_M_replaceEmmPKcm>
    61c7:	48 8b 74 24 20       	mov    0x20(%rsp),%rsi
    61cc:	48 8b 54 24 28       	mov    0x28(%rsp),%rdx
    61d1:	48 8b 3d e0 6d 00 00 	mov    0x6de0(%rip),%rdi        # cfb8 <_ZSt4cout@GLIBCXX_3.4>
    61d8:	e8 63 bf ff ff       	call   2140 <_ZSt16__ostream_insertIcSt11char_traitsIcEERSt13basic_ostreamIT_T0_ES6_PKS3_l@plt>
    61dd:	49 89 c5             	mov    %rax,%r13
    61e0:	48 8d 35 04 53 00 00 	lea    0x5304(%rip),%rsi        # b4eb <_IO_stdin_used+0x4eb>
    61e7:	ba 03 00 00 00       	mov    $0x3,%edx
    61ec:	48 89 c7             	mov    %rax,%rdi
    61ef:	e8 4c bf ff ff       	call   2140 <_ZSt16__ostream_insertIcSt11char_traitsIcEERSt13basic_ostreamIT_T0_ES6_PKS3_l@plt>
    61f4:	49 8b 45 00          	mov    0x0(%r13),%rax
    61f8:	48 8b 40 e8          	mov    -0x18(%rax),%rax
    61fc:	4d 8b b4 05 f0 00 00 	mov    0xf0(%r13,%rax,1),%r14
    6203:	00 
    6204:	4d 85 f6             	test   %r14,%r14
    6207:	0f 84 65 36 00 00    	je     9872 <main+0x57d2>
    620d:	41 80 7e 38 00       	cmpb   $0x0,0x38(%r14)
    6212:	74 07                	je     621b <main+0x217b>
    6214:	41 0f b6 46 43       	movzbl 0x43(%r14),%eax
    6219:	eb 16                	jmp    6231 <main+0x2191>
    621b:	4c 89 f7             	mov    %r14,%rdi
    621e:	e8 2d bf ff ff       	call   2150 <_ZNKSt5ctypeIcE13_M_widen_initEv@plt>
    6223:	49 8b 06             	mov    (%r14),%rax
    6226:	4c 89 f7             	mov    %r14,%rdi
    6229:	be 0a 00 00 00       	mov    $0xa,%esi
    622e:	ff 50 30             	call   *0x30(%rax)
    6231:	0f be f0             	movsbl %al,%esi
    6234:	4c 89 ef             	mov    %r13,%rdi
    6237:	e8 f4 bd ff ff       	call   2030 <_ZNSo3putEc@plt>
    623c:	48 89 c7             	mov    %rax,%rdi
    623f:	e8 7c be ff ff       	call   20c0 <_ZNSo5flushEv@plt>
    6244:	49 89 de             	mov    %rbx,%r14
    6247:	48 8b 7c 24 20       	mov    0x20(%rsp),%rdi
    624c:	48 8d 44 24 30       	lea    0x30(%rsp),%rax
    6251:	48 39 c7             	cmp    %rax,%rdi
    6254:	74 0d                	je     6263 <main+0x21c3>
    6256:	48 8b 74 24 30       	mov    0x30(%rsp),%rsi
    625b:	48 ff c6             	inc    %rsi
    625e:	e8 bd be ff ff       	call   2120 <_ZdlPvm@plt>
    6263:	48 8b 1d 2e 6d 00 00 	mov    0x6d2e(%rip),%rbx        # cf98 <_ZTTNSt7__cxx1118basic_stringstreamIcSt11char_traitsIcESaIcEEE@GLIBCXX_3.4.21>
    626a:	48 8b 03             	mov    (%rbx),%rax
    626d:	48 8b 4b 40          	mov    0x40(%rbx),%rcx
    6271:	48 89 84 24 20 01 00 	mov    %rax,0x120(%rsp)
    6278:	00 
    6279:	48 8b 40 e8          	mov    -0x18(%rax),%rax
    627d:	48 89 8c 04 20 01 00 	mov    %rcx,0x120(%rsp,%rax,1)
    6284:	00 
    6285:	48 8b 43 48          	mov    0x48(%rbx),%rax
    6289:	48 89 84 24 30 01 00 	mov    %rax,0x130(%rsp)
    6290:	00 
    6291:	48 8b 05 48 6d 00 00 	mov    0x6d48(%rip),%rax        # cfe0 <_ZTVNSt7__cxx1115basic_stringbufIcSt11char_traitsIcESaIcEEE@GLIBCXX_3.4.21>
    6298:	48 83 c0 10          	add    $0x10,%rax
    629c:	48 89 84 24 38 01 00 	mov    %rax,0x138(%rsp)
    62a3:	00 
    62a4:	48 8b bc 24 80 01 00 	mov    0x180(%rsp),%rdi
    62ab:	00 
    62ac:	48 8d 84 24 90 01 00 	lea    0x190(%rsp),%rax
    62b3:	00 
    62b4:	48 39 c7             	cmp    %rax,%rdi
    62b7:	74 10                	je     62c9 <main+0x2229>
    62b9:	48 8b b4 24 90 01 00 	mov    0x190(%rsp),%rsi
    62c0:	00 
    62c1:	48 ff c6             	inc    %rsi
    62c4:	e8 57 be ff ff       	call   2120 <_ZdlPvm@plt>
    62c9:	48 8b 05 d8 6c 00 00 	mov    0x6cd8(%rip),%rax        # cfa8 <_ZTVSt15basic_streambufIcSt11char_traitsIcEE@GLIBCXX_3.4>
    62d0:	48 83 c0 10          	add    $0x10,%rax
    62d4:	48 89 84 24 38 01 00 	mov    %rax,0x138(%rsp)
    62db:	00 
    62dc:	48 8d bc 24 70 01 00 	lea    0x170(%rsp),%rdi
    62e3:	00 
    62e4:	e8 c7 be ff ff       	call   21b0 <_ZNSt6localeD1Ev@plt>
    62e9:	48 8b 43 10          	mov    0x10(%rbx),%rax
    62ed:	48 8b 4b 18          	mov    0x18(%rbx),%rcx
    62f1:	48 89 84 24 20 01 00 	mov    %rax,0x120(%rsp)
    62f8:	00 
    62f9:	48 8b 40 e8          	mov    -0x18(%rax),%rax
    62fd:	48 89 8c 04 20 01 00 	mov    %rcx,0x120(%rsp,%rax,1)
    6304:	00 
    6305:	48 c7 84 24 28 01 00 	movq   $0x0,0x128(%rsp)
    630c:	00 00 00 00 00 
    6311:	48 8d bc 24 a0 01 00 	lea    0x1a0(%rsp),%rdi
    6318:	00 
    6319:	e8 32 bd ff ff       	call   2050 <_ZNSt8ios_baseD2Ev@plt>
    631e:	be 50 00 00 00       	mov    $0x50,%esi
    6323:	4c 89 f7             	mov    %r14,%rdi
    6326:	e8 f5 bd ff ff       	call   2120 <_ZdlPvm@plt>
    632b:	41 89 e9             	mov    %ebp,%r9d
    632e:	4d 85 e4             	test   %r12,%r12
    6331:	48 8b 1c 24          	mov    (%rsp),%rbx
    6335:	0f 84 22 03 00 00    	je     665d <main+0x25bd>
    633b:	49 8d 44 24 ff       	lea    -0x1(%r12),%rax
    6340:	44 89 e1             	mov    %r12d,%ecx
    6343:	83 e1 e0             	and    $0xffffffe0,%ecx
    6346:	44 89 e2             	mov    %r12d,%edx
    6349:	83 e2 fc             	and    $0xfffffffc,%edx
    634c:	48 89 d6             	mov    %rdx,%rsi
    634f:	48 f7 de             	neg    %rsi
    6352:	31 ff                	xor    %edi,%edi
    6354:	45 31 c0             	xor    %r8d,%r8d
    6357:	41 89 e9             	mov    %ebp,%r9d
    635a:	eb 13                	jmp    636f <main+0x22cf>
    635c:	0f 1f 40 00          	nopl   0x0(%rax)
    6360:	41 ff c0             	inc    %r8d
    6363:	4c 01 e7             	add    %r12,%rdi
    6366:	45 39 e0             	cmp    %r12d,%r8d
    6369:	0f 84 ee 02 00 00    	je     665d <main+0x25bd>
    636f:	41 83 fc 03          	cmp    $0x3,%r12d
    6373:	76 22                	jbe    6397 <main+0x22f7>
    6375:	49 89 c2             	mov    %rax,%r10
    6378:	49 c1 ea 20          	shr    $0x20,%r10
    637c:	41 0f 95 c2          	setne  %r10b
    6380:	45 89 e3             	mov    %r12d,%r11d
    6383:	45 0f af d8          	imul   %r8d,%r11d
    6387:	41 01 c3             	add    %eax,%r11d
    638a:	41 0f 92 c3          	setb   %r11b
    638e:	45 08 d3             	or     %r10b,%r11b
    6391:	0f 84 c9 01 00 00    	je     6560 <main+0x24c0>
    6397:	45 31 db             	xor    %r11d,%r11d
    639a:	44 89 e3             	mov    %r12d,%ebx
    639d:	44 29 db             	sub    %r11d,%ebx
    63a0:	4d 89 da             	mov    %r11,%r10
    63a3:	83 e3 07             	and    $0x7,%ebx
    63a6:	74 1f                	je     63c7 <main+0x2327>
    63a8:	0f 1f 84 00 00 00 00 	nopl   0x0(%rax,%rax,1)
    63af:	00 
    63b0:	46 8d 34 17          	lea    (%rdi,%r10,1),%r14d
    63b4:	47 8b 34 b7          	mov    (%r15,%r14,4),%r14d
    63b8:	45 39 ce             	cmp    %r9d,%r14d
    63bb:	45 0f 42 ce          	cmovb  %r14d,%r9d
    63bf:	49 ff c2             	inc    %r10
    63c2:	48 ff cb             	dec    %rbx
    63c5:	75 e9                	jne    63b0 <main+0x2310>
    63c7:	4d 29 e3             	sub    %r12,%r11
    63ca:	49 83 fb f8          	cmp    $0xfffffffffffffff8,%r11
    63ce:	48 8b 1c 24          	mov    (%rsp),%rbx
    63d2:	76 19                	jbe    63ed <main+0x234d>
    63d4:	eb 8a                	jmp    6360 <main+0x22c0>
    63d6:	66 2e 0f 1f 84 00 00 	cs nopw 0x0(%rax,%rax,1)
    63dd:	00 00 00 
    63e0:	49 83 c2 08          	add    $0x8,%r10
    63e4:	4d 39 d4             	cmp    %r10,%r12
    63e7:	0f 84 73 ff ff ff    	je     6360 <main+0x22c0>
    63ed:	46 8d 1c 17          	lea    (%rdi,%r10,1),%r11d
    63f1:	47 8b 1c 9f          	mov    (%r15,%r11,4),%r11d
    63f5:	45 39 cb             	cmp    %r9d,%r11d
    63f8:	0f 82 b2 00 00 00    	jb     64b0 <main+0x2410>
    63fe:	45 89 cb             	mov    %r9d,%r11d
    6401:	46 8d 0c 17          	lea    (%rdi,%r10,1),%r9d
    6405:	41 ff c1             	inc    %r9d
    6408:	47 8b 0c 8f          	mov    (%r15,%r9,4),%r9d
    640c:	45 39 d9             	cmp    %r11d,%r9d
    640f:	0f 83 af 00 00 00    	jae    64c4 <main+0x2424>
    6415:	46 8d 1c 17          	lea    (%rdi,%r10,1),%r11d
    6419:	41 83 c3 02          	add    $0x2,%r11d
    641d:	47 8b 1c 9f          	mov    (%r15,%r11,4),%r11d
    6421:	45 39 cb             	cmp    %r9d,%r11d
    6424:	0f 82 b2 00 00 00    	jb     64dc <main+0x243c>
    642a:	45 89 cb             	mov    %r9d,%r11d
    642d:	46 8d 0c 17          	lea    (%rdi,%r10,1),%r9d
    6431:	41 83 c1 03          	add    $0x3,%r9d
    6435:	47 8b 0c 8f          	mov    (%r15,%r9,4),%r9d
    6439:	45 39 d9             	cmp    %r11d,%r9d
    643c:	0f 83 af 00 00 00    	jae    64f1 <main+0x2451>
    6442:	46 8d 1c 17          	lea    (%rdi,%r10,1),%r11d
    6446:	41 83 c3 04          	add    $0x4,%r11d
    644a:	47 8b 1c 9f          	mov    (%r15,%r11,4),%r11d
    644e:	45 39 cb             	cmp    %r9d,%r11d
    6451:	0f 82 b2 00 00 00    	jb     6509 <main+0x2469>
    6457:	45 89 cb             	mov    %r9d,%r11d
    645a:	46 8d 0c 17          	lea    (%rdi,%r10,1),%r9d
    645e:	41 83 c1 05          	add    $0x5,%r9d
    6462:	47 8b 0c 8f          	mov    (%r15,%r9,4),%r9d
    6466:	45 39 d9             	cmp    %r11d,%r9d
    6469:	0f 83 af 00 00 00    	jae    651e <main+0x247e>
    646f:	46 8d 1c 17          	lea    (%rdi,%r10,1),%r11d
    6473:	41 83 c3 06          	add    $0x6,%r11d
    6477:	47 8b 1c 9f          	mov    (%r15,%r11,4),%r11d
    647b:	45 39 cb             	cmp    %r9d,%r11d
    647e:	0f 82 b2 00 00 00    	jb     6536 <main+0x2496>
    6484:	45 89 cb             	mov    %r9d,%r11d
    6487:	46 8d 0c 17          	lea    (%rdi,%r10,1),%r9d
    648b:	41 83 c1 07          	add    $0x7,%r9d
    648f:	47 8b 0c 8f          	mov    (%r15,%r9,4),%r9d
    6493:	45 39 d9             	cmp    %r11d,%r9d
    6496:	0f 82 44 ff ff ff    	jb     63e0 <main+0x2340>
    649c:	e9 aa 00 00 00       	jmp    654b <main+0x24ab>
    64a1:	66 66 66 66 66 66 2e 	data16 data16 data16 data16 data16 cs nopw 0x0(%rax,%rax,1)
    64a8:	0f 1f 84 00 00 00 00 
    64af:	00 
    64b0:	46 8d 0c 17          	lea    (%rdi,%r10,1),%r9d
    64b4:	41 ff c1             	inc    %r9d
    64b7:	47 8b 0c 8f          	mov    (%r15,%r9,4),%r9d
    64bb:	45 39 d9             	cmp    %r11d,%r9d
    64be:	0f 82 51 ff ff ff    	jb     6415 <main+0x2375>
    64c4:	45 89 d9             	mov    %r11d,%r9d
    64c7:	46 8d 1c 17          	lea    (%rdi,%r10,1),%r11d
    64cb:	41 83 c3 02          	add    $0x2,%r11d
    64cf:	47 8b 1c 9f          	mov    (%r15,%r11,4),%r11d
    64d3:	45 39 cb             	cmp    %r9d,%r11d
    64d6:	0f 83 4e ff ff ff    	jae    642a <main+0x238a>
    64dc:	46 8d 0c 17          	lea    (%rdi,%r10,1),%r9d
    64e0:	41 83 c1 03          	add    $0x3,%r9d
    64e4:	47 8b 0c 8f          	mov    (%r15,%r9,4),%r9d
    64e8:	45 39 d9             	cmp    %r11d,%r9d
    64eb:	0f 82 51 ff ff ff    	jb     6442 <main+0x23a2>
    64f1:	45 89 d9             	mov    %r11d,%r9d
    64f4:	46 8d 1c 17          	lea    (%rdi,%r10,1),%r11d
    64f8:	41 83 c3 04          	add    $0x4,%r11d
    64fc:	47 8b 1c 9f          	mov    (%r15,%r11,4),%r11d
    6500:	45 39 cb             	cmp    %r9d,%r11d
    6503:	0f 83 4e ff ff ff    	jae    6457 <main+0x23b7>
    6509:	46 8d 0c 17          	lea    (%rdi,%r10,1),%r9d
    650d:	41 83 c1 05          	add    $0x5,%r9d
    6511:	47 8b 0c 8f          	mov    (%r15,%r9,4),%r9d
    6515:	45 39 d9             	cmp    %r11d,%r9d
    6518:	0f 82 51 ff ff ff    	jb     646f <main+0x23cf>
    651e:	45 89 d9             	mov    %r11d,%r9d
    6521:	46 8d 1c 17          	lea    (%rdi,%r10,1),%r11d
    6525:	41 83 c3 06          	add    $0x6,%r11d
    6529:	47 8b 1c 9f          	mov    (%r15,%r11,4),%r11d
    652d:	45 39 cb             	cmp    %r9d,%r11d
    6530:	0f 83 4e ff ff ff    	jae    6484 <main+0x23e4>
    6536:	46 8d 0c 17          	lea    (%rdi,%r10,1),%r9d
    653a:	41 83 c1 07          	add    $0x7,%r9d
    653e:	47 8b 0c 8f          	mov    (%r15,%r9,4),%r9d
    6542:	45 39 d9             	cmp    %r11d,%r9d
    6545:	0f 82 95 fe ff ff    	jb     63e0 <main+0x2340>
    654b:	45 89 d9             	mov    %r11d,%r9d
    654e:	e9 8d fe ff ff       	jmp    63e0 <main+0x2340>
    6553:	66 66 66 66 2e 0f 1f 	data16 data16 data16 cs nopw 0x0(%rax,%rax,1)
    655a:	84 00 00 00 00 00 
    6560:	41 83 fc 20          	cmp    $0x20,%r12d
    6564:	73 08                	jae    656e <main+0x24ce>
    6566:	45 31 d2             	xor    %r10d,%r10d
    6569:	e9 96 00 00 00       	jmp    6604 <main+0x2564>
    656e:	62 d2 7d 28 7c c1    	vpbroadcastd %r9d,%ymm0
    6574:	41 89 f9             	mov    %edi,%r9d
    6577:	49 89 ca             	mov    %rcx,%r10
    657a:	c5 fd 6f c8          	vmovdqa %ymm0,%ymm1
    657e:	c5 fd 6f d0          	vmovdqa %ymm0,%ymm2
    6582:	c5 fd 6f d8          	vmovdqa %ymm0,%ymm3
    6586:	66 2e 0f 1f 84 00 00 	cs nopw 0x0(%rax,%rax,1)
    658d:	00 00 00 
    6590:	45 89 cb             	mov    %r9d,%r11d
    6593:	c4 82 7d 3b 04 9f    	vpminud (%r15,%r11,4),%ymm0,%ymm0
    6599:	c4 82 75 3b 4c 9f 20 	vpminud 0x20(%r15,%r11,4),%ymm1,%ymm1
    65a0:	c4 82 6d 3b 54 9f 40 	vpminud 0x40(%r15,%r11,4),%ymm2,%ymm2
    65a7:	c4 82 65 3b 5c 9f 60 	vpminud 0x60(%r15,%r11,4),%ymm3,%ymm3
    65ae:	41 83 c1 20          	add    $0x20,%r9d
    65b2:	49 83 c2 e0          	add    $0xffffffffffffffe0,%r10
    65b6:	75 d8                	jne    6590 <main+0x24f0>
    65b8:	c4 e2 7d 3b c1       	vpminud %ymm1,%ymm0,%ymm0
    65bd:	c4 e2 6d 3b cb       	vpminud %ymm3,%ymm2,%ymm1
    65c2:	c4 e2 7d 3b c1       	vpminud %ymm1,%ymm0,%ymm0
    65c7:	c4 e3 7d 39 c1 01    	vextracti128 $0x1,%ymm0,%xmm1
    65cd:	c4 e2 79 3b c1       	vpminud %xmm1,%xmm0,%xmm0
    65d2:	c5 f9 70 c8 ee       	vpshufd $0xee,%xmm0,%xmm1
    65d7:	c4 e2 79 3b c1       	vpminud %xmm1,%xmm0,%xmm0
    65dc:	c5 f9 70 c8 55       	vpshufd $0x55,%xmm0,%xmm1
    65e1:	c4 e2 79 3b c1       	vpminud %xmm1,%xmm0,%xmm0
    65e6:	c4 c1 79 7e c1       	vmovd  %xmm0,%r9d
    65eb:	44 39 e1             	cmp    %r12d,%ecx
    65ee:	0f 84 6c fd ff ff    	je     6360 <main+0x22c0>
    65f4:	49 89 cb             	mov    %rcx,%r11
    65f7:	49 89 ca             	mov    %rcx,%r10
    65fa:	41 f6 c4 1c          	test   $0x1c,%r12b
    65fe:	0f 84 96 fd ff ff    	je     639a <main+0x22fa>
    6604:	62 d2 7d 08 7c c1    	vpbroadcastd %r9d,%xmm0
    660a:	4e 8d 0c 16          	lea    (%rsi,%r10,1),%r9
    660e:	41 01 fa             	add    %edi,%r10d
    6611:	66 66 66 66 66 66 2e 	data16 data16 data16 data16 data16 cs nopw 0x0(%rax,%rax,1)
    6618:	0f 1f 84 00 00 00 00 
    661f:	00 
    6620:	45 89 d3             	mov    %r10d,%r11d
    6623:	c4 82 79 3b 04 9f    	vpminud (%r15,%r11,4),%xmm0,%xmm0
    6629:	41 83 c2 04          	add    $0x4,%r10d
    662d:	49 83 c1 04          	add    $0x4,%r9
    6631:	75 ed                	jne    6620 <main+0x2580>
    6633:	c5 f9 70 c8 ee       	vpshufd $0xee,%xmm0,%xmm1
    6638:	c4 e2 79 3b c1       	vpminud %xmm1,%xmm0,%xmm0
    663d:	c5 f9 70 c8 55       	vpshufd $0x55,%xmm0,%xmm1
    6642:	c4 e2 79 3b c1       	vpminud %xmm1,%xmm0,%xmm0
    6647:	c4 c1 79 7e c1       	vmovd  %xmm0,%r9d
    664c:	49 89 d3             	mov    %rdx,%r11
    664f:	44 39 e2             	cmp    %r12d,%edx
    6652:	0f 84 08 fd ff ff    	je     6360 <main+0x22c0>
    6658:	e9 3d fd ff ff       	jmp    639a <main+0x22fa>
    665d:	62 d1 5e 08 7b c1    	vcvtusi2ss %r9d,%xmm4,%xmm0
    6663:	c5 fa 11 84 24 80 00 	vmovss %xmm0,0x80(%rsp)
    666a:	00 00 
    666c:	c5 f8 77             	vzeroupper
    666f:	e8 fc ba ff ff       	call   2170 <log2f@plt>
    6674:	c5 fa 11 44 24 10    	vmovss %xmm0,0x10(%rsp)
    667a:	62 f1 5e 08 7b c5    	vcvtusi2ss %ebp,%xmm4,%xmm0
    6680:	c5 fa 5e 84 24 80 00 	vdivss 0x80(%rsp),%xmm0,%xmm0
    6687:	00 00 
    6689:	e8 e2 ba ff ff       	call   2170 <log2f@plt>
    668e:	48 8b 84 24 18 01 00 	mov    0x118(%rsp),%rax
    6695:	00 
    6696:	48 85 c0             	test   %rax,%rax
    6699:	74 67                	je     6702 <main+0x2662>
    669b:	c5 fa 11 84 24 80 00 	vmovss %xmm0,0x80(%rsp)
    66a2:	00 00 
    66a4:	44 8d 2c 40          	lea    (%rax,%rax,2),%r13d
    66a8:	4c 89 ef             	mov    %r13,%rdi
    66ab:	e8 60 ba ff ff       	call   2110 <_Znwm@plt>
    66b0:	49 89 c6             	mov    %rax,%r14
    66b3:	48 89 84 24 20 01 00 	mov    %rax,0x120(%rsp)
    66ba:	00 
    66bb:	4e 8d 3c 28          	lea    (%rax,%r13,1),%r15
    66bf:	4c 89 bc 24 30 01 00 	mov    %r15,0x130(%rsp)
    66c6:	00 
    66c7:	c6 00 00             	movb   $0x0,(%rax)
    66ca:	48 89 c7             	mov    %rax,%rdi
    66cd:	48 ff c7             	inc    %rdi
    66d0:	49 ff cd             	dec    %r13
    66d3:	4c 89 7c 24 40       	mov    %r15,0x40(%rsp)
    66d8:	74 0d                	je     66e7 <main+0x2647>
    66da:	31 f6                	xor    %esi,%esi
    66dc:	4c 89 ea             	mov    %r13,%rdx
    66df:	e8 bc b9 ff ff       	call   20a0 <memset@plt>
    66e4:	4c 89 ff             	mov    %r15,%rdi
    66e7:	c5 fa 10 84 24 80 00 	vmovss 0x80(%rsp),%xmm0
    66ee:	00 00 
    66f0:	48 89 bc 24 28 01 00 	mov    %rdi,0x128(%rsp)
    66f7:	00 
    66f8:	4d 85 e4             	test   %r12,%r12
    66fb:	75 3d                	jne    673a <main+0x269a>
    66fd:	e9 1c 02 00 00       	jmp    691e <main+0x287e>
    6702:	c5 f0 57 c9          	vxorps %xmm1,%xmm1,%xmm1
    6706:	c5 f8 29 8c 24 20 01 	vmovaps %xmm1,0x120(%rsp)
    670d:	00 00 
    670f:	48 c7 84 24 30 01 00 	movq   $0x0,0x130(%rsp)
    6716:	00 00 00 00 00 
    671b:	48 c7 44 24 40 00 00 	movq   $0x0,0x40(%rsp)
    6722:	00 00 
    6724:	45 31 f6             	xor    %r14d,%r14d
    6727:	31 ff                	xor    %edi,%edi
    6729:	48 89 bc 24 28 01 00 	mov    %rdi,0x128(%rsp)
    6730:	00 
    6731:	4d 85 e4             	test   %r12,%r12
    6734:	0f 84 e4 01 00 00    	je     691e <main+0x287e>
    673a:	44 89 e0             	mov    %r12d,%eax
    673d:	83 e0 fe             	and    $0xfffffffe,%eax
    6740:	48 89 84 24 c0 00 00 	mov    %rax,0xc0(%rsp)
    6747:	00 
    6748:	c5 fa 10 0d b4 48 00 	vmovss 0x48b4(%rip),%xmm1        # b004 <_IO_stdin_used+0x4>
    674f:	00 
    6750:	c5 f2 5e c0          	vdivss %xmm0,%xmm1,%xmm0
    6754:	c5 fa 11 84 24 80 00 	vmovss %xmm0,0x80(%rsp)
    675b:	00 00 
    675d:	47 8d 2c 64          	lea    (%r12,%r12,2),%r13d
    6761:	31 c0                	xor    %eax,%eax
    6763:	b9 05 00 00 00       	mov    $0x5,%ecx
    6768:	c7 44 24 48 01 00 00 	movl   $0x1,0x48(%rsp)
    676f:	00 
    6770:	44 89 6c 24 60       	mov    %r13d,0x60(%rsp)
    6775:	eb 6b                	jmp    67e2 <main+0x2742>
    6777:	66 0f 1f 84 00 00 00 	nopw   0x0(%rax,%rax,1)
    677e:	00 00 
    6780:	62 f1 5e 08 7b c0    	vcvtusi2ss %eax,%xmm4,%xmm0
    6786:	e8 e5 b9 ff ff       	call   2170 <log2f@plt>
    678b:	c5 fa 5c 44 24 10    	vsubss 0x10(%rsp),%xmm0,%xmm0
    6791:	c5 fa 59 05 83 48 00 	vmulss 0x4883(%rip),%xmm0,%xmm0        # b01c <_IO_stdin_used+0x1c>
    6798:	00 
    6799:	c5 fa 59 84 24 80 00 	vmulss 0x80(%rsp),%xmm0,%xmm0
    67a0:	00 00 
    67a2:	c5 fa 2c c0          	vcvttss2si %xmm0,%eax
    67a6:	04 20                	add    $0x20,%al
    67a8:	b1 20                	mov    $0x20,%cl
    67aa:	8d 14 5b             	lea    (%rbx,%rbx,2),%edx
    67ad:	41 88 0c 16          	mov    %cl,(%r14,%rdx,1)
    67b1:	8d 14 5b             	lea    (%rbx,%rbx,2),%edx
    67b4:	ff c2                	inc    %edx
    67b6:	41 88 04 16          	mov    %al,(%r14,%rdx,1)
    67ba:	8d 44 5b 02          	lea    0x2(%rbx,%rbx,2),%eax
    67be:	41 88 0c 06          	mov    %cl,(%r14,%rax,1)
    67c2:	48 8b 1c 24          	mov    (%rsp),%rbx
    67c6:	48 8b 44 24 18       	mov    0x18(%rsp),%rax
    67cb:	8b 4c 24 50          	mov    0x50(%rsp),%ecx
    67cf:	ff c0                	inc    %eax
    67d1:	44 01 e9             	add    %r13d,%ecx
    67d4:	44 01 64 24 48       	add    %r12d,0x48(%rsp)
    67d9:	44 39 e0             	cmp    %r12d,%eax
    67dc:	0f 84 3c 01 00 00    	je     691e <main+0x287e>
    67e2:	41 bf 00 00 00 00    	mov    $0x0,%r15d
    67e8:	49 83 fc 01          	cmp    $0x1,%r12
    67ec:	48 89 44 24 18       	mov    %rax,0x18(%rsp)
    67f1:	89 4c 24 50          	mov    %ecx,0x50(%rsp)
    67f5:	0f 84 f7 00 00 00    	je     68f2 <main+0x2852>
    67fb:	44 8b 6c 24 48       	mov    0x48(%rsp),%r13d
    6800:	89 cb                	mov    %ecx,%ebx
    6802:	45 31 ff             	xor    %r15d,%r15d
    6805:	eb 5c                	jmp    6863 <main+0x27c3>
    6807:	66 0f 1f 84 00 00 00 	nopw   0x0(%rax,%rax,1)
    680e:	00 00 
    6810:	62 f1 5e 08 7b c0    	vcvtusi2ss %eax,%xmm4,%xmm0
    6816:	e8 55 b9 ff ff       	call   2170 <log2f@plt>
    681b:	c5 fa 5c 44 24 10    	vsubss 0x10(%rsp),%xmm0,%xmm0
    6821:	c5 fa 59 05 f3 47 00 	vmulss 0x47f3(%rip),%xmm0,%xmm0        # b01c <_IO_stdin_used+0x1c>
    6828:	00 
    6829:	c5 fa 59 84 24 80 00 	vmulss 0x80(%rsp),%xmm0,%xmm0
    6830:	00 00 
    6832:	c5 fa 2c c0          	vcvttss2si %xmm0,%eax
    6836:	04 20                	add    $0x20,%al
    6838:	b1 20                	mov    $0x20,%cl
    683a:	8d 53 fe             	lea    -0x2(%rbx),%edx
    683d:	41 88 0c 16          	mov    %cl,(%r14,%rdx,1)
    6841:	8d 53 ff             	lea    -0x1(%rbx),%edx
    6844:	41 88 04 16          	mov    %al,(%r14,%rdx,1)
    6848:	89 d8                	mov    %ebx,%eax
    684a:	41 88 0c 06          	mov    %cl,(%r14,%rax,1)
    684e:	49 83 c7 02          	add    $0x2,%r15
    6852:	83 c3 06             	add    $0x6,%ebx
    6855:	41 83 c5 02          	add    $0x2,%r13d
    6859:	4c 39 bc 24 c0 00 00 	cmp    %r15,0xc0(%rsp)
    6860:	00 
    6861:	74 7d                	je     68e0 <main+0x2840>
    6863:	41 8d 45 ff          	lea    -0x1(%r13),%eax
    6867:	48 8b 4c 24 08       	mov    0x8(%rsp),%rcx
    686c:	8b 04 81             	mov    (%rcx,%rax,4),%eax
    686f:	39 e8                	cmp    %ebp,%eax
    6871:	73 2d                	jae    68a0 <main+0x2800>
    6873:	62 f1 5e 08 7b c0    	vcvtusi2ss %eax,%xmm4,%xmm0
    6879:	e8 f2 b8 ff ff       	call   2170 <log2f@plt>
    687e:	c5 fa 5c 44 24 10    	vsubss 0x10(%rsp),%xmm0,%xmm0
    6884:	c5 fa 59 05 90 47 00 	vmulss 0x4790(%rip),%xmm0,%xmm0        # b01c <_IO_stdin_used+0x1c>
    688b:	00 
    688c:	c5 fa 59 84 24 80 00 	vmulss 0x80(%rsp),%xmm0,%xmm0
    6893:	00 00 
    6895:	c5 fa 2c c0          	vcvttss2si %xmm0,%eax
    6899:	04 20                	add    $0x20,%al
    689b:	b1 20                	mov    $0x20,%cl
    689d:	eb 05                	jmp    68a4 <main+0x2804>
    689f:	90                   	nop
    68a0:	31 c0                	xor    %eax,%eax
    68a2:	31 c9                	xor    %ecx,%ecx
    68a4:	8d 53 fb             	lea    -0x5(%rbx),%edx
    68a7:	41 88 0c 16          	mov    %cl,(%r14,%rdx,1)
    68ab:	8d 53 fc             	lea    -0x4(%rbx),%edx
    68ae:	41 88 04 16          	mov    %al,(%r14,%rdx,1)
    68b2:	8d 43 fd             	lea    -0x3(%rbx),%eax
    68b5:	41 88 0c 06          	mov    %cl,(%r14,%rax,1)
    68b9:	44 89 e8             	mov    %r13d,%eax
    68bc:	48 8b 4c 24 08       	mov    0x8(%rsp),%rcx
    68c1:	8b 04 81             	mov    (%rcx,%rax,4),%eax
    68c4:	39 e8                	cmp    %ebp,%eax
    68c6:	0f 82 44 ff ff ff    	jb     6810 <main+0x2770>
    68cc:	31 c0                	xor    %eax,%eax
    68ce:	31 c9                	xor    %ecx,%ecx
    68d0:	e9 65 ff ff ff       	jmp    683a <main+0x279a>
    68d5:	66 66 2e 0f 1f 84 00 	data16 cs nopw 0x0(%rax,%rax,1)
    68dc:	00 00 00 00 
    68e0:	48 8b 1c 24          	mov    (%rsp),%rbx
    68e4:	44 8b 6c 24 60       	mov    0x60(%rsp),%r13d
    68e9:	48 8b 44 24 18       	mov    0x18(%rsp),%rax
    68ee:	8b 4c 24 50          	mov    0x50(%rsp),%ecx
    68f2:	41 f6 c4 01          	test   $0x1,%r12b
    68f6:	0f 84 d3 fe ff ff    	je     67cf <main+0x272f>
    68fc:	89 c3                	mov    %eax,%ebx
    68fe:	41 0f af dc          	imul   %r12d,%ebx
    6902:	44 01 fb             	add    %r15d,%ebx
    6905:	48 8b 44 24 08       	mov    0x8(%rsp),%rax
    690a:	8b 04 98             	mov    (%rax,%rbx,4),%eax
    690d:	39 e8                	cmp    %ebp,%eax
    690f:	0f 82 6b fe ff ff    	jb     6780 <main+0x26e0>
    6915:	31 c0                	xor    %eax,%eax
    6917:	31 c9                	xor    %ecx,%ecx
    6919:	e9 8c fe ff ff       	jmp    67aa <main+0x270a>
    691e:	48 8d 3d 71 4c 00 00 	lea    0x4c71(%rip),%rdi        # b596 <_IO_stdin_used+0x596>
    6925:	48 8d 94 24 20 01 00 	lea    0x120(%rsp),%rdx
    692c:	00 
    692d:	44 89 e6             	mov    %r12d,%esi
    6930:	e8 4b cd ff ff       	call   3680 <_Z8writeBMPPKcjRKSt6vectorIhSaIhEE>
    6935:	4d 85 f6             	test   %r14,%r14
    6938:	4c 8b 7c 24 08       	mov    0x8(%rsp),%r15
    693d:	74 10                	je     694f <main+0x28af>
    693f:	48 8b 74 24 40       	mov    0x40(%rsp),%rsi
    6944:	4c 29 f6             	sub    %r14,%rsi
    6947:	4c 89 f7             	mov    %r14,%rdi
    694a:	e8 d1 b7 ff ff       	call   2120 <_ZdlPvm@plt>
    694f:	48 8b 3d 62 66 00 00 	mov    0x6662(%rip),%rdi        # cfb8 <_ZSt4cout@GLIBCXX_3.4>
    6956:	48 8d 35 e4 4b 00 00 	lea    0x4be4(%rip),%rsi        # b541 <_IO_stdin_used+0x541>
    695d:	ba 3a 00 00 00       	mov    $0x3a,%edx
    6962:	e8 d9 b7 ff ff       	call   2140 <_ZSt16__ostream_insertIcSt11char_traitsIcEERSt13basic_ostreamIT_T0_ES6_PKS3_l@plt>
    6967:	8b 44 24 5c          	mov    0x5c(%rsp),%eax
    696b:	48 85 c0             	test   %rax,%rax
    696e:	0f 84 ee 02 00 00    	je     6c62 <main+0x2bc2>
    6974:	48 8d 48 ff          	lea    -0x1(%rax),%rcx
    6978:	89 c2                	mov    %eax,%edx
    697a:	83 e2 f0             	and    $0xfffffff0,%edx
    697d:	48 89 54 24 10       	mov    %rdx,0x10(%rsp)
    6982:	89 c2                	mov    %eax,%edx
    6984:	83 e2 fc             	and    $0xfffffffc,%edx
    6987:	89 c7                	mov    %eax,%edi
    6989:	83 e7 03             	and    $0x3,%edi
    698c:	48 89 94 24 80 00 00 	mov    %rdx,0x80(%rsp)
    6993:	00 
    6994:	48 f7 da             	neg    %rdx
    6997:	48 89 94 24 c0 00 00 	mov    %rdx,0xc0(%rsp)
    699e:	00 
    699f:	45 31 c9             	xor    %r9d,%r9d
    69a2:	45 31 d2             	xor    %r10d,%r10d
    69a5:	45 31 db             	xor    %r11d,%r11d
    69a8:	eb 15                	jmp    69bf <main+0x291f>
    69aa:	66 0f 1f 44 00 00    	nopw   0x0(%rax,%rax,1)
    69b0:	41 ff c2             	inc    %r10d
    69b3:	49 01 c1             	add    %rax,%r9
    69b6:	41 39 c2             	cmp    %eax,%r10d
    69b9:	0f 84 98 02 00 00    	je     6c57 <main+0x2bb7>
    69bf:	83 f8 03             	cmp    $0x3,%eax
    69c2:	76 1f                	jbe    69e3 <main+0x2943>
    69c4:	49 89 c8             	mov    %rcx,%r8
    69c7:	49 c1 e8 20          	shr    $0x20,%r8
    69cb:	41 0f 95 c0          	setne  %r8b
    69cf:	89 c3                	mov    %eax,%ebx
    69d1:	41 0f af da          	imul   %r10d,%ebx
    69d5:	01 cb                	add    %ecx,%ebx
    69d7:	0f 92 c3             	setb   %bl
    69da:	44 08 c3             	or     %r8b,%bl
    69dd:	0f 84 1d 01 00 00    	je     6b00 <main+0x2a60>
    69e3:	31 db                	xor    %ebx,%ebx
    69e5:	48 85 ff             	test   %rdi,%rdi
    69e8:	74 56                	je     6a40 <main+0x29a0>
    69ea:	49 89 ff             	mov    %rdi,%r15
    69ed:	49 89 de             	mov    %rbx,%r14
    69f0:	48 8b 74 24 08       	mov    0x8(%rsp),%rsi
    69f5:	48 8b 14 24          	mov    (%rsp),%rdx
    69f9:	0f 1f 80 00 00 00 00 	nopl   0x0(%rax)
    6a00:	47 8d 24 31          	lea    (%r9,%r14,1),%r12d
    6a04:	46 8b 04 a6          	mov    (%rsi,%r12,4),%r8d
    6a08:	46 8b 24 a2          	mov    (%rdx,%r12,4),%r12d
    6a0c:	45 89 c5             	mov    %r8d,%r13d
    6a0f:	45 29 e5             	sub    %r12d,%r13d
    6a12:	45 29 c4             	sub    %r8d,%r12d
    6a15:	45 0f 4c e5          	cmovl  %r13d,%r12d
    6a19:	4d 01 e3             	add    %r12,%r11
    6a1c:	49 ff c6             	inc    %r14
    6a1f:	49 ff cf             	dec    %r15
    6a22:	75 dc                	jne    6a00 <main+0x2960>
    6a24:	48 29 c3             	sub    %rax,%rbx
    6a27:	48 83 fb fc          	cmp    $0xfffffffffffffffc,%rbx
    6a2b:	49 89 f7             	mov    %rsi,%r15
    6a2e:	76 30                	jbe    6a60 <main+0x29c0>
    6a30:	e9 7b ff ff ff       	jmp    69b0 <main+0x2910>
    6a35:	66 66 2e 0f 1f 84 00 	data16 cs nopw 0x0(%rax,%rax,1)
    6a3c:	00 00 00 00 
    6a40:	49 89 de             	mov    %rbx,%r14
    6a43:	48 8b 74 24 08       	mov    0x8(%rsp),%rsi
    6a48:	48 8b 14 24          	mov    (%rsp),%rdx
    6a4c:	48 29 c3             	sub    %rax,%rbx
    6a4f:	48 83 fb fc          	cmp    $0xfffffffffffffffc,%rbx
    6a53:	49 89 f7             	mov    %rsi,%r15
    6a56:	0f 87 54 ff ff ff    	ja     69b0 <main+0x2910>
    6a5c:	0f 1f 40 00          	nopl   0x0(%rax)
    6a60:	47 8d 04 31          	lea    (%r9,%r14,1),%r8d
    6a64:	48 8b 74 24 08       	mov    0x8(%rsp),%rsi
    6a69:	46 8b 3c 86          	mov    (%rsi,%r8,4),%r15d
    6a6d:	42 8b 1c 82          	mov    (%rdx,%r8,4),%ebx
    6a71:	45 89 f8             	mov    %r15d,%r8d
    6a74:	41 29 d8             	sub    %ebx,%r8d
    6a77:	44 29 fb             	sub    %r15d,%ebx
    6a7a:	41 0f 4c d8          	cmovl  %r8d,%ebx
    6a7e:	4c 01 db             	add    %r11,%rbx
    6a81:	47 8d 04 31          	lea    (%r9,%r14,1),%r8d
    6a85:	41 ff c0             	inc    %r8d
    6a88:	48 8b 74 24 08       	mov    0x8(%rsp),%rsi
    6a8d:	46 8b 1c 86          	mov    (%rsi,%r8,4),%r11d
    6a91:	46 8b 04 82          	mov    (%rdx,%r8,4),%r8d
    6a95:	45 89 df             	mov    %r11d,%r15d
    6a98:	45 29 c7             	sub    %r8d,%r15d
    6a9b:	45 29 d8             	sub    %r11d,%r8d
    6a9e:	45 0f 4c c7          	cmovl  %r15d,%r8d
    6aa2:	47 8d 5c 31 02       	lea    0x2(%r9,%r14,1),%r11d
    6aa7:	48 8b 74 24 08       	mov    0x8(%rsp),%rsi
    6aac:	46 8b 3c 9e          	mov    (%rsi,%r11,4),%r15d
    6ab0:	46 8b 24 9a          	mov    (%rdx,%r11,4),%r12d
    6ab4:	45 89 fb             	mov    %r15d,%r11d
    6ab7:	45 29 e3             	sub    %r12d,%r11d
    6aba:	45 29 fc             	sub    %r15d,%r12d
    6abd:	4c 8b 7c 24 08       	mov    0x8(%rsp),%r15
    6ac2:	45 0f 4c e3          	cmovl  %r11d,%r12d
    6ac6:	4d 01 c4             	add    %r8,%r12
    6ac9:	49 01 dc             	add    %rbx,%r12
    6acc:	47 8d 04 31          	lea    (%r9,%r14,1),%r8d
    6ad0:	41 83 c0 03          	add    $0x3,%r8d
    6ad4:	43 8b 1c 87          	mov    (%r15,%r8,4),%ebx
    6ad8:	46 8b 1c 82          	mov    (%rdx,%r8,4),%r11d
    6adc:	41 89 d8             	mov    %ebx,%r8d
    6adf:	45 29 d8             	sub    %r11d,%r8d
    6ae2:	41 29 db             	sub    %ebx,%r11d
    6ae5:	45 0f 4c d8          	cmovl  %r8d,%r11d
    6ae9:	4d 01 e3             	add    %r12,%r11
    6aec:	49 83 c6 04          	add    $0x4,%r14
    6af0:	4c 39 f0             	cmp    %r14,%rax
    6af3:	0f 85 67 ff ff ff    	jne    6a60 <main+0x29c0>
    6af9:	e9 b2 fe ff ff       	jmp    69b0 <main+0x2910>
    6afe:	66 90                	xchg   %ax,%ax
    6b00:	83 f8 10             	cmp    $0x10,%eax
    6b03:	73 0c                	jae    6b11 <main+0x2a71>
    6b05:	45 31 f6             	xor    %r14d,%r14d
    6b08:	48 8b 14 24          	mov    (%rsp),%rdx
    6b0c:	e9 db 00 00 00       	jmp    6bec <main+0x2b4c>
    6b11:	c4 c1 f9 6e c3       	vmovq  %r11,%xmm0
    6b16:	c5 f0 57 c9          	vxorps %xmm1,%xmm1,%xmm1
    6b1a:	45 89 cb             	mov    %r9d,%r11d
    6b1d:	48 8b 5c 24 10       	mov    0x10(%rsp),%rbx
    6b22:	c5 e8 57 d2          	vxorps %xmm2,%xmm2,%xmm2
    6b26:	c5 e0 57 db          	vxorps %xmm3,%xmm3,%xmm3
    6b2a:	48 8b 14 24          	mov    (%rsp),%rdx
    6b2e:	66 90                	xchg   %ax,%ax
    6b30:	45 89 d8             	mov    %r11d,%r8d
    6b33:	c4 81 7a 6f 24 87    	vmovdqu (%r15,%r8,4),%xmm4
    6b39:	c4 81 7a 6f 6c 87 10 	vmovdqu 0x10(%r15,%r8,4),%xmm5
    6b40:	c4 81 7a 6f 74 87 20 	vmovdqu 0x20(%r15,%r8,4),%xmm6
    6b47:	c4 81 7a 6f 7c 87 30 	vmovdqu 0x30(%r15,%r8,4),%xmm7
    6b4e:	c4 a1 59 fa 24 82    	vpsubd (%rdx,%r8,4),%xmm4,%xmm4
    6b54:	c4 a1 51 fa 6c 82 10 	vpsubd 0x10(%rdx,%r8,4),%xmm5,%xmm5
    6b5b:	c4 a1 49 fa 74 82 20 	vpsubd 0x20(%rdx,%r8,4),%xmm6,%xmm6
    6b62:	c4 a1 41 fa 7c 82 30 	vpsubd 0x30(%rdx,%r8,4),%xmm7,%xmm7
    6b69:	c4 e2 79 1e e4       	vpabsd %xmm4,%xmm4
    6b6e:	c4 e2 79 1e ed       	vpabsd %xmm5,%xmm5
    6b73:	c4 e2 79 1e f6       	vpabsd %xmm6,%xmm6
    6b78:	c4 e2 79 1e ff       	vpabsd %xmm7,%xmm7
    6b7d:	c4 e2 7d 35 e4       	vpmovzxdq %xmm4,%ymm4
    6b82:	c5 fd d4 c4          	vpaddq %ymm4,%ymm0,%ymm0
    6b86:	c4 e2 7d 35 e5       	vpmovzxdq %xmm5,%ymm4
    6b8b:	c5 f5 d4 cc          	vpaddq %ymm4,%ymm1,%ymm1
    6b8f:	c4 e2 7d 35 e6       	vpmovzxdq %xmm6,%ymm4
    6b94:	c5 ed d4 d4          	vpaddq %ymm4,%ymm2,%ymm2
    6b98:	c4 e2 7d 35 e7       	vpmovzxdq %xmm7,%ymm4
    6b9d:	c5 e5 d4 dc          	vpaddq %ymm4,%ymm3,%ymm3
    6ba1:	41 83 c3 10          	add    $0x10,%r11d
    6ba5:	48 83 c3 f0          	add    $0xfffffffffffffff0,%rbx
    6ba9:	75 85                	jne    6b30 <main+0x2a90>
    6bab:	c5 f5 d4 c0          	vpaddq %ymm0,%ymm1,%ymm0
    6baf:	c5 ed d4 c0          	vpaddq %ymm0,%ymm2,%ymm0
    6bb3:	c5 e5 d4 c0          	vpaddq %ymm0,%ymm3,%ymm0
    6bb7:	c4 e3 7d 39 c1 01    	vextracti128 $0x1,%ymm0,%xmm1
    6bbd:	c5 f9 d4 c1          	vpaddq %xmm1,%xmm0,%xmm0
    6bc1:	c5 f9 70 c8 ee       	vpshufd $0xee,%xmm0,%xmm1
    6bc6:	c5 f9 d4 c1          	vpaddq %xmm1,%xmm0,%xmm0
    6bca:	c4 c1 f9 7e c3       	vmovq  %xmm0,%r11
    6bcf:	4c 8b 74 24 10       	mov    0x10(%rsp),%r14
    6bd4:	41 39 c6             	cmp    %eax,%r14d
    6bd7:	0f 84 d3 fd ff ff    	je     69b0 <main+0x2910>
    6bdd:	4c 89 f3             	mov    %r14,%rbx
    6be0:	a8 0c                	test   $0xc,%al
    6be2:	48 8b 14 24          	mov    (%rsp),%rdx
    6be6:	0f 84 f9 fd ff ff    	je     69e5 <main+0x2945>
    6bec:	c4 c1 f9 6e c3       	vmovq  %r11,%xmm0
    6bf1:	48 8b b4 24 c0 00 00 	mov    0xc0(%rsp),%rsi
    6bf8:	00 
    6bf9:	4e 8d 1c 36          	lea    (%rsi,%r14,1),%r11
    6bfd:	45 01 ce             	add    %r9d,%r14d
    6c00:	45 89 f0             	mov    %r14d,%r8d
    6c03:	c4 81 7a 6f 0c 87    	vmovdqu (%r15,%r8,4),%xmm1
    6c09:	c4 a1 71 fa 0c 82    	vpsubd (%rdx,%r8,4),%xmm1,%xmm1
    6c0f:	c4 e2 79 1e c9       	vpabsd %xmm1,%xmm1
    6c14:	c4 e2 7d 35 c9       	vpmovzxdq %xmm1,%ymm1
    6c19:	c5 fd d4 c1          	vpaddq %ymm1,%ymm0,%ymm0
    6c1d:	41 83 c6 04          	add    $0x4,%r14d
    6c21:	49 83 c3 04          	add    $0x4,%r11
    6c25:	75 d9                	jne    6c00 <main+0x2b60>
    6c27:	c4 e3 7d 39 c1 01    	vextracti128 $0x1,%ymm0,%xmm1
    6c2d:	c5 f9 d4 c1          	vpaddq %xmm1,%xmm0,%xmm0
    6c31:	c5 f9 70 c8 ee       	vpshufd $0xee,%xmm0,%xmm1
    6c36:	c5 f9 d4 c1          	vpaddq %xmm1,%xmm0,%xmm0
    6c3a:	c4 c1 f9 7e c3       	vmovq  %xmm0,%r11
    6c3f:	48 8b 94 24 80 00 00 	mov    0x80(%rsp),%rdx
    6c46:	00 
    6c47:	48 89 d3             	mov    %rdx,%rbx
    6c4a:	39 c2                	cmp    %eax,%edx
    6c4c:	0f 84 5e fd ff ff    	je     69b0 <main+0x2910>
    6c52:	e9 8e fd ff ff       	jmp    69e5 <main+0x2945>
    6c57:	c4 c1 bb 2a c3       	vcvtsi2sd %r11,%xmm8,%xmm0
    6c5c:	48 8b 1c 24          	mov    (%rsp),%rbx
    6c60:	eb 04                	jmp    6c66 <main+0x2bc6>
    6c62:	c5 f9 57 c0          	vxorpd %xmm0,%xmm0,%xmm0
    6c66:	0f af e8             	imul   %eax,%ebp
    6c69:	0f af e8             	imul   %eax,%ebp
    6c6c:	62 f1 3f 08 7b cd    	vcvtusi2sd %ebp,%xmm8,%xmm1
    6c72:	c5 fb 5e c1          	vdivsd %xmm1,%xmm0,%xmm0
    6c76:	48 8b 3d 3b 63 00 00 	mov    0x633b(%rip),%rdi        # cfb8 <_ZSt4cout@GLIBCXX_3.4>
    6c7d:	c5 f8 77             	vzeroupper
    6c80:	e8 4b b5 ff ff       	call   21d0 <_ZNSo9_M_insertIdEERSoT_@plt>
    6c85:	49 89 c6             	mov    %rax,%r14
    6c88:	48 8b 00             	mov    (%rax),%rax
    6c8b:	48 8b 40 e8          	mov    -0x18(%rax),%rax
    6c8f:	4d 8b a4 06 f0 00 00 	mov    0xf0(%r14,%rax,1),%r12
    6c96:	00 
    6c97:	4d 85 e4             	test   %r12,%r12
    6c9a:	0f 84 be 2b 00 00    	je     985e <main+0x57be>
    6ca0:	41 80 7c 24 38 00    	cmpb   $0x0,0x38(%r12)
    6ca6:	74 08                	je     6cb0 <main+0x2c10>
    6ca8:	41 0f b6 44 24 43    	movzbl 0x43(%r12),%eax
    6cae:	eb 17                	jmp    6cc7 <main+0x2c27>
    6cb0:	4c 89 e7             	mov    %r12,%rdi
    6cb3:	e8 98 b4 ff ff       	call   2150 <_ZNKSt5ctypeIcE13_M_widen_initEv@plt>
    6cb8:	49 8b 04 24          	mov    (%r12),%rax
    6cbc:	4c 89 e7             	mov    %r12,%rdi
    6cbf:	be 0a 00 00 00       	mov    $0xa,%esi
    6cc4:	ff 50 30             	call   *0x30(%rax)
    6cc7:	0f be f0             	movsbl %al,%esi
    6cca:	4c 89 f7             	mov    %r14,%rdi
    6ccd:	e8 5e b3 ff ff       	call   2030 <_ZNSo3putEc@plt>
    6cd2:	48 89 c7             	mov    %rax,%rdi
    6cd5:	e8 e6 b3 ff ff       	call   20c0 <_ZNSo5flushEv@plt>
    6cda:	8b 4c 24 7c          	mov    0x7c(%rsp),%ecx
    6cde:	83 f9 06             	cmp    $0x6,%ecx
    6ce1:	74 09                	je     6cec <main+0x2c4c>
    6ce3:	83 f9 03             	cmp    $0x3,%ecx
    6ce6:	0f 85 7c 0e 00 00    	jne    7b68 <main+0x3ac8>
    6cec:	8b 5c 24 5c          	mov    0x5c(%rsp),%ebx
    6cf0:	48 89 da             	mov    %rbx,%rdx
    6cf3:	48 0f af d3          	imul   %rbx,%rdx
    6cf7:	48 c1 e2 02          	shl    $0x2,%rdx
    6cfb:	4c 89 ff             	mov    %r15,%rdi
    6cfe:	31 f6                	xor    %esi,%esi
    6d00:	e8 9b b3 ff ff       	call   20a0 <memset@plt>
    6d05:	48 8b 05 ac 62 00 00 	mov    0x62ac(%rip),%rax        # cfb8 <_ZSt4cout@GLIBCXX_3.4>
    6d0c:	48 8b 08             	mov    (%rax),%rcx
    6d0f:	48 8b 49 e8          	mov    -0x18(%rcx),%rcx
    6d13:	4c 8b b4 08 f0 00 00 	mov    0xf0(%rax,%rcx,1),%r14
    6d1a:	00 
    6d1b:	4d 85 f6             	test   %r14,%r14
    6d1e:	0f 84 3a 2b 00 00    	je     985e <main+0x57be>
    6d24:	41 80 7e 38 00       	cmpb   $0x0,0x38(%r14)
    6d29:	74 07                	je     6d32 <main+0x2c92>
    6d2b:	41 0f b6 46 43       	movzbl 0x43(%r14),%eax
    6d30:	eb 16                	jmp    6d48 <main+0x2ca8>
    6d32:	4c 89 f7             	mov    %r14,%rdi
    6d35:	e8 16 b4 ff ff       	call   2150 <_ZNKSt5ctypeIcE13_M_widen_initEv@plt>
    6d3a:	49 8b 06             	mov    (%r14),%rax
    6d3d:	4c 89 f7             	mov    %r14,%rdi
    6d40:	be 0a 00 00 00       	mov    $0xa,%esi
    6d45:	ff 50 30             	call   *0x30(%rax)
    6d48:	0f be f0             	movsbl %al,%esi
    6d4b:	48 8b 3d 66 62 00 00 	mov    0x6266(%rip),%rdi        # cfb8 <_ZSt4cout@GLIBCXX_3.4>
    6d52:	e8 d9 b2 ff ff       	call   2030 <_ZNSo3putEc@plt>
    6d57:	48 89 c7             	mov    %rax,%rdi
    6d5a:	e8 61 b3 ff ff       	call   20c0 <_ZNSo5flushEv@plt>
    6d5f:	49 89 c6             	mov    %rax,%r14
    6d62:	48 8d 35 51 47 00 00 	lea    0x4751(%rip),%rsi        # b4ba <_IO_stdin_used+0x4ba>
    6d69:	ba 08 00 00 00       	mov    $0x8,%edx
    6d6e:	48 89 c7             	mov    %rax,%rdi
    6d71:	e8 ca b3 ff ff       	call   2140 <_ZSt16__ostream_insertIcSt11char_traitsIcEERSt13basic_ostreamIT_T0_ES6_PKS3_l@plt>
    6d76:	48 8d 35 3b 48 00 00 	lea    0x483b(%rip),%rsi        # b5b8 <_IO_stdin_used+0x5b8>
    6d7d:	ba 1f 00 00 00       	mov    $0x1f,%edx
    6d82:	4c 89 f7             	mov    %r14,%rdi
    6d85:	e8 b6 b3 ff ff       	call   2140 <_ZSt16__ostream_insertIcSt11char_traitsIcEERSt13basic_ostreamIT_T0_ES6_PKS3_l@plt>
    6d8a:	48 8d 35 48 47 00 00 	lea    0x4748(%rip),%rsi        # b4d9 <_IO_stdin_used+0x4d9>
    6d91:	ba 05 00 00 00       	mov    $0x5,%edx
    6d96:	4c 89 f7             	mov    %r14,%rdi
    6d99:	e8 a2 b3 ff ff       	call   2140 <_ZSt16__ostream_insertIcSt11char_traitsIcEERSt13basic_ostreamIT_T0_ES6_PKS3_l@plt>
    6d9e:	bf 50 00 00 00       	mov    $0x50,%edi
    6da3:	e8 68 b3 ff ff       	call   2110 <_Znwm@plt>
    6da8:	49 89 c5             	mov    %rax,%r13
    6dab:	c5 f8 57 c0          	vxorps %xmm0,%xmm0,%xmm0
    6daf:	c5 fc 11 40 30       	vmovups %ymm0,0x30(%rax)
    6db4:	c5 fc 11 40 20       	vmovups %ymm0,0x20(%rax)
    6db9:	c5 fc 11 00          	vmovups %ymm0,(%rax)
    6dbd:	8b 6c 24 6c          	mov    0x6c(%rsp),%ebp
    6dc1:	c5 f8 77             	vzeroupper
    6dc4:	e8 77 b2 ff ff       	call   2040 <_ZNSt6chrono3_V212system_clock3nowEv@plt>
    6dc9:	49 89 c6             	mov    %rax,%r14
    6dcc:	89 df                	mov    %ebx,%edi
    6dce:	89 ee                	mov    %ebp,%esi
    6dd0:	4c 89 fa             	mov    %r15,%rdx
    6dd3:	e8 48 be ff ff       	call   2c20 <_Z31mandelbrot_cpu_vector_multicorejjPj>
    6dd8:	e8 63 b2 ff ff       	call   2040 <_ZNSt6chrono3_V212system_clock3nowEv@plt>
    6ddd:	4c 29 f0             	sub    %r14,%rax
    6de0:	62 f1 9f 08 7b c0    	vcvtusi2sd %rax,%xmm12,%xmm0
    6de6:	c4 c1 7b 11 45 00    	vmovsd %xmm0,0x0(%r13)
    6dec:	e8 4f b2 ff ff       	call   2040 <_ZNSt6chrono3_V212system_clock3nowEv@plt>
    6df1:	49 89 c6             	mov    %rax,%r14
    6df4:	89 df                	mov    %ebx,%edi
    6df6:	89 ee                	mov    %ebp,%esi
    6df8:	4c 89 fa             	mov    %r15,%rdx
    6dfb:	e8 20 be ff ff       	call   2c20 <_Z31mandelbrot_cpu_vector_multicorejjPj>
    6e00:	e8 3b b2 ff ff       	call   2040 <_ZNSt6chrono3_V212system_clock3nowEv@plt>
    6e05:	4c 29 f0             	sub    %r14,%rax
    6e08:	62 f1 9f 08 7b c0    	vcvtusi2sd %rax,%xmm12,%xmm0
    6e0e:	c4 c1 7b 11 45 08    	vmovsd %xmm0,0x8(%r13)
    6e14:	e8 27 b2 ff ff       	call   2040 <_ZNSt6chrono3_V212system_clock3nowEv@plt>
    6e19:	49 89 c6             	mov    %rax,%r14
    6e1c:	89 df                	mov    %ebx,%edi
    6e1e:	89 ee                	mov    %ebp,%esi
    6e20:	4c 89 fa             	mov    %r15,%rdx
    6e23:	e8 f8 bd ff ff       	call   2c20 <_Z31mandelbrot_cpu_vector_multicorejjPj>
    6e28:	e8 13 b2 ff ff       	call   2040 <_ZNSt6chrono3_V212system_clock3nowEv@plt>
    6e2d:	4c 29 f0             	sub    %r14,%rax
    6e30:	62 f1 9f 08 7b c0    	vcvtusi2sd %rax,%xmm12,%xmm0
    6e36:	c4 c1 7b 11 45 10    	vmovsd %xmm0,0x10(%r13)
    6e3c:	e8 ff b1 ff ff       	call   2040 <_ZNSt6chrono3_V212system_clock3nowEv@plt>
    6e41:	49 89 c6             	mov    %rax,%r14
    6e44:	89 df                	mov    %ebx,%edi
    6e46:	89 ee                	mov    %ebp,%esi
    6e48:	4c 89 fa             	mov    %r15,%rdx
    6e4b:	e8 d0 bd ff ff       	call   2c20 <_Z31mandelbrot_cpu_vector_multicorejjPj>
    6e50:	e8 eb b1 ff ff       	call   2040 <_ZNSt6chrono3_V212system_clock3nowEv@plt>
    6e55:	4c 29 f0             	sub    %r14,%rax
    6e58:	62 f1 ef 08 7b c0    	vcvtusi2sd %rax,%xmm2,%xmm0
    6e5e:	c4 c1 7b 11 45 18    	vmovsd %xmm0,0x18(%r13)
    6e64:	e8 d7 b1 ff ff       	call   2040 <_ZNSt6chrono3_V212system_clock3nowEv@plt>
    6e69:	49 89 c6             	mov    %rax,%r14
    6e6c:	89 df                	mov    %ebx,%edi
    6e6e:	89 ee                	mov    %ebp,%esi
    6e70:	4c 89 fa             	mov    %r15,%rdx
    6e73:	e8 a8 bd ff ff       	call   2c20 <_Z31mandelbrot_cpu_vector_multicorejjPj>
    6e78:	e8 c3 b1 ff ff       	call   2040 <_ZNSt6chrono3_V212system_clock3nowEv@plt>
    6e7d:	4c 29 f0             	sub    %r14,%rax
    6e80:	62 f1 f7 08 7b c0    	vcvtusi2sd %rax,%xmm1,%xmm0
    6e86:	c4 c1 7b 11 45 20    	vmovsd %xmm0,0x20(%r13)
    6e8c:	e8 af b1 ff ff       	call   2040 <_ZNSt6chrono3_V212system_clock3nowEv@plt>
    6e91:	49 89 c6             	mov    %rax,%r14
    6e94:	89 df                	mov    %ebx,%edi
    6e96:	89 ee                	mov    %ebp,%esi
    6e98:	4c 89 fa             	mov    %r15,%rdx
    6e9b:	e8 80 bd ff ff       	call   2c20 <_Z31mandelbrot_cpu_vector_multicorejjPj>
    6ea0:	e8 9b b1 ff ff       	call   2040 <_ZNSt6chrono3_V212system_clock3nowEv@plt>
    6ea5:	4c 29 f0             	sub    %r14,%rax
    6ea8:	62 f1 f7 08 7b c0    	vcvtusi2sd %rax,%xmm1,%xmm0
    6eae:	c4 c1 7b 11 45 28    	vmovsd %xmm0,0x28(%r13)
    6eb4:	e8 87 b1 ff ff       	call   2040 <_ZNSt6chrono3_V212system_clock3nowEv@plt>
    6eb9:	49 89 c6             	mov    %rax,%r14
    6ebc:	89 df                	mov    %ebx,%edi
    6ebe:	89 ee                	mov    %ebp,%esi
    6ec0:	4c 89 fa             	mov    %r15,%rdx
    6ec3:	e8 58 bd ff ff       	call   2c20 <_Z31mandelbrot_cpu_vector_multicorejjPj>
    6ec8:	e8 73 b1 ff ff       	call   2040 <_ZNSt6chrono3_V212system_clock3nowEv@plt>
    6ecd:	4c 29 f0             	sub    %r14,%rax
    6ed0:	62 f1 f7 08 7b c0    	vcvtusi2sd %rax,%xmm1,%xmm0
    6ed6:	c4 c1 7b 11 45 30    	vmovsd %xmm0,0x30(%r13)
    6edc:	e8 5f b1 ff ff       	call   2040 <_ZNSt6chrono3_V212system_clock3nowEv@plt>
    6ee1:	49 89 c6             	mov    %rax,%r14
    6ee4:	89 df                	mov    %ebx,%edi
    6ee6:	89 ee                	mov    %ebp,%esi
    6ee8:	4c 89 fa             	mov    %r15,%rdx
    6eeb:	e8 30 bd ff ff       	call   2c20 <_Z31mandelbrot_cpu_vector_multicorejjPj>
    6ef0:	e8 4b b1 ff ff       	call   2040 <_ZNSt6chrono3_V212system_clock3nowEv@plt>
    6ef5:	4c 29 f0             	sub    %r14,%rax
    6ef8:	62 f1 f7 08 7b c0    	vcvtusi2sd %rax,%xmm1,%xmm0
    6efe:	c4 c1 7b 11 45 38    	vmovsd %xmm0,0x38(%r13)
    6f04:	e8 37 b1 ff ff       	call   2040 <_ZNSt6chrono3_V212system_clock3nowEv@plt>
    6f09:	49 89 c6             	mov    %rax,%r14
    6f0c:	89 df                	mov    %ebx,%edi
    6f0e:	89 ee                	mov    %ebp,%esi
    6f10:	4c 89 fa             	mov    %r15,%rdx
    6f13:	e8 08 bd ff ff       	call   2c20 <_Z31mandelbrot_cpu_vector_multicorejjPj>
    6f18:	e8 23 b1 ff ff       	call   2040 <_ZNSt6chrono3_V212system_clock3nowEv@plt>
    6f1d:	4c 29 f0             	sub    %r14,%rax
    6f20:	62 f1 f7 08 7b c0    	vcvtusi2sd %rax,%xmm1,%xmm0
    6f26:	c4 c1 7b 11 45 40    	vmovsd %xmm0,0x40(%r13)
    6f2c:	e8 0f b1 ff ff       	call   2040 <_ZNSt6chrono3_V212system_clock3nowEv@plt>
    6f31:	49 89 c6             	mov    %rax,%r14
    6f34:	89 df                	mov    %ebx,%edi
    6f36:	89 ee                	mov    %ebp,%esi
    6f38:	4c 89 fa             	mov    %r15,%rdx
    6f3b:	e8 e0 bc ff ff       	call   2c20 <_Z31mandelbrot_cpu_vector_multicorejjPj>
    6f40:	4d 89 ec             	mov    %r13,%r12
    6f43:	49 83 c4 50          	add    $0x50,%r12
    6f47:	e8 f4 b0 ff ff       	call   2040 <_ZNSt6chrono3_V212system_clock3nowEv@plt>
    6f4c:	4c 29 f0             	sub    %r14,%rax
    6f4f:	62 f1 f7 08 7b c0    	vcvtusi2sd %rax,%xmm1,%xmm0
    6f55:	c4 c1 7b 11 45 48    	vmovsd %xmm0,0x48(%r13)
    6f5b:	ba 06 00 00 00       	mov    $0x6,%edx
    6f60:	4c 89 ef             	mov    %r13,%rdi
    6f63:	4c 89 e6             	mov    %r12,%rsi
    6f66:	e8 85 2b 00 00       	call   9af0 <_ZSt16__introsort_loopIN9__gnu_cxx17__normal_iteratorIPdSt6vectorIdSaIdEEEElNS0_5__ops15_Iter_less_iterEEvT_S9_T0_T1_>
    6f6b:	4c 89 ef             	mov    %r13,%rdi
    6f6e:	4c 89 e6             	mov    %r12,%rsi
    6f71:	e8 1a 2e 00 00       	call   9d90 <_ZSt22__final_insertion_sortIN9__gnu_cxx17__normal_iteratorIPdSt6vectorIdSaIdEEEENS0_5__ops15_Iter_less_iterEEvT_S9_T0_>
    6f76:	48 8d bc 24 20 01 00 	lea    0x120(%rsp),%rdi
    6f7d:	00 
    6f7e:	e8 4d b1 ff ff       	call   20d0 <_ZNSt7__cxx1118basic_stringstreamIcSt11char_traitsIcESaIcEEC1Ev@plt>
    6f83:	89 6c 24 10          	mov    %ebp,0x10(%rsp)
    6f87:	48 89 5c 24 48       	mov    %rbx,0x48(%rsp)
    6f8c:	48 8d bc 24 30 01 00 	lea    0x130(%rsp),%rdi
    6f93:	00 
    6f94:	48 8b 84 24 30 01 00 	mov    0x130(%rsp),%rax
    6f9b:	00 
    6f9c:	48 8b 48 e8          	mov    -0x18(%rax),%rcx
    6fa0:	ba fb fe ff ff       	mov    $0xfffffefb,%edx
    6fa5:	23 94 0c 48 01 00 00 	and    0x148(%rsp,%rcx,1),%edx
    6fac:	83 ca 04             	or     $0x4,%edx
    6faf:	89 94 0c 48 01 00 00 	mov    %edx,0x148(%rsp,%rcx,1)
    6fb6:	48 8b 48 e8          	mov    -0x18(%rax),%rcx
    6fba:	48 c7 84 0c 40 01 00 	movq   $0x6,0x140(%rsp,%rcx,1)
    6fc1:	00 06 00 00 00 
    6fc6:	48 8b 40 e8          	mov    -0x18(%rax),%rax
    6fca:	48 c7 84 04 38 01 00 	movq   $0x2,0x138(%rsp,%rax,1)
    6fd1:	00 02 00 00 00 
    6fd6:	4c 89 ed             	mov    %r13,%rbp
    6fd9:	c4 c1 7b 10 45 00    	vmovsd 0x0(%r13),%xmm0
    6fdf:	c5 fb 59 05 d9 43 00 	vmulsd 0x43d9(%rip),%xmm0,%xmm0        # b3c0 <_IO_stdin_used+0x3c0>
    6fe6:	00 
    6fe7:	e8 e4 b1 ff ff       	call   21d0 <_ZNSo9_M_insertIdEERSoT_@plt>
    6fec:	48 8b 3d c5 5f 00 00 	mov    0x5fc5(%rip),%rdi        # cfb8 <_ZSt4cout@GLIBCXX_3.4>
    6ff3:	48 8d 35 e5 44 00 00 	lea    0x44e5(%rip),%rsi        # b4df <_IO_stdin_used+0x4df>
    6ffa:	ba 0b 00 00 00       	mov    $0xb,%edx
    6fff:	e8 3c b1 ff ff       	call   2140 <_ZSt16__ostream_insertIcSt11char_traitsIcEERSt13basic_ostreamIT_T0_ES6_PKS3_l@plt>
    7004:	4c 8d 6c 24 30       	lea    0x30(%rsp),%r13
    7009:	4c 89 6c 24 20       	mov    %r13,0x20(%rsp)
    700e:	48 c7 44 24 28 00 00 	movq   $0x0,0x28(%rsp)
    7015:	00 00 
    7017:	c6 44 24 30 00       	movb   $0x0,0x30(%rsp)
    701c:	4c 8b 84 24 50 01 00 	mov    0x150(%rsp),%r8
    7023:	00 
    7024:	48 8b 84 24 60 01 00 	mov    0x160(%rsp),%rax
    702b:	00 
    702c:	48 85 c0             	test   %rax,%rax
    702f:	0f 94 c1             	sete   %cl
    7032:	4c 39 c0             	cmp    %r8,%rax
    7035:	4c 0f 47 c0          	cmova  %rax,%r8
    7039:	4d 85 c0             	test   %r8,%r8
    703c:	0f 94 c0             	sete   %al
    703f:	08 c8                	or     %cl,%al
    7041:	74 14                	je     7057 <main+0x2fb7>
    7043:	48 8d b4 24 80 01 00 	lea    0x180(%rsp),%rsi
    704a:	00 
    704b:	48 8d 7c 24 20       	lea    0x20(%rsp),%rdi
    7050:	e8 4b 34 00 00       	call   a4a0 <_ZNSt7__cxx1112basic_stringIcSt11char_traitsIcESaIcEE9_M_assignERKS4_>
    7055:	eb 19                	jmp    7070 <main+0x2fd0>
    7057:	48 8b 8c 24 58 01 00 	mov    0x158(%rsp),%rcx
    705e:	00 
    705f:	49 29 c8             	sub    %rcx,%r8
    7062:	48 8d 7c 24 20       	lea    0x20(%rsp),%rdi
    7067:	31 f6                	xor    %esi,%esi
    7069:	31 d2                	xor    %edx,%edx
    706b:	e8 60 31 00 00       	call   a1d0 <_ZNSt7__cxx1112basic_stringIcSt11char_traitsIcESaIcEE10_M_replaceEmmPKcm>
    7070:	48 8b 74 24 20       	mov    0x20(%rsp),%rsi
    7075:	48 8b 54 24 28       	mov    0x28(%rsp),%rdx
    707a:	48 8b 3d 37 5f 00 00 	mov    0x5f37(%rip),%rdi        # cfb8 <_ZSt4cout@GLIBCXX_3.4>
    7081:	e8 ba b0 ff ff       	call   2140 <_ZSt16__ostream_insertIcSt11char_traitsIcEERSt13basic_ostreamIT_T0_ES6_PKS3_l@plt>
    7086:	49 89 c4             	mov    %rax,%r12
    7089:	48 8d 35 5b 44 00 00 	lea    0x445b(%rip),%rsi        # b4eb <_IO_stdin_used+0x4eb>
    7090:	ba 03 00 00 00       	mov    $0x3,%edx
    7095:	48 89 c7             	mov    %rax,%rdi
    7098:	e8 a3 b0 ff ff       	call   2140 <_ZSt16__ostream_insertIcSt11char_traitsIcEERSt13basic_ostreamIT_T0_ES6_PKS3_l@plt>
    709d:	49 8b 04 24          	mov    (%r12),%rax
    70a1:	48 8b 40 e8          	mov    -0x18(%rax),%rax
    70a5:	4d 8b b4 04 f0 00 00 	mov    0xf0(%r12,%rax,1),%r14
    70ac:	00 
    70ad:	4d 85 f6             	test   %r14,%r14
    70b0:	0f 84 ad 27 00 00    	je     9863 <main+0x57c3>
    70b6:	41 80 7e 38 00       	cmpb   $0x0,0x38(%r14)
    70bb:	74 07                	je     70c4 <main+0x3024>
    70bd:	41 0f b6 46 43       	movzbl 0x43(%r14),%eax
    70c2:	eb 16                	jmp    70da <main+0x303a>
    70c4:	4c 89 f7             	mov    %r14,%rdi
    70c7:	e8 84 b0 ff ff       	call   2150 <_ZNKSt5ctypeIcE13_M_widen_initEv@plt>
    70cc:	49 8b 06             	mov    (%r14),%rax
    70cf:	4c 89 f7             	mov    %r14,%rdi
    70d2:	be 0a 00 00 00       	mov    $0xa,%esi
    70d7:	ff 50 30             	call   *0x30(%rax)
    70da:	0f be f0             	movsbl %al,%esi
    70dd:	4c 89 e7             	mov    %r12,%rdi
    70e0:	e8 4b af ff ff       	call   2030 <_ZNSo3putEc@plt>
    70e5:	48 89 c7             	mov    %rax,%rdi
    70e8:	e8 d3 af ff ff       	call   20c0 <_ZNSo5flushEv@plt>
    70ed:	48 8b 7c 24 20       	mov    0x20(%rsp),%rdi
    70f2:	4c 39 ef             	cmp    %r13,%rdi
    70f5:	74 0d                	je     7104 <main+0x3064>
    70f7:	48 8b 74 24 30       	mov    0x30(%rsp),%rsi
    70fc:	48 ff c6             	inc    %rsi
    70ff:	e8 1c b0 ff ff       	call   2120 <_ZdlPvm@plt>
    7104:	48 8b 1d 8d 5e 00 00 	mov    0x5e8d(%rip),%rbx        # cf98 <_ZTTNSt7__cxx1118basic_stringstreamIcSt11char_traitsIcESaIcEEE@GLIBCXX_3.4.21>
    710b:	48 8b 03             	mov    (%rbx),%rax
    710e:	48 8b 4b 40          	mov    0x40(%rbx),%rcx
    7112:	48 89 84 24 20 01 00 	mov    %rax,0x120(%rsp)
    7119:	00 
    711a:	48 8b 40 e8          	mov    -0x18(%rax),%rax
    711e:	48 89 8c 04 20 01 00 	mov    %rcx,0x120(%rsp,%rax,1)
    7125:	00 
    7126:	48 8b 43 48          	mov    0x48(%rbx),%rax
    712a:	48 89 84 24 30 01 00 	mov    %rax,0x130(%rsp)
    7131:	00 
    7132:	48 8b 05 a7 5e 00 00 	mov    0x5ea7(%rip),%rax        # cfe0 <_ZTVNSt7__cxx1115basic_stringbufIcSt11char_traitsIcESaIcEEE@GLIBCXX_3.4.21>
    7139:	48 83 c0 10          	add    $0x10,%rax
    713d:	48 89 84 24 38 01 00 	mov    %rax,0x138(%rsp)
    7144:	00 
    7145:	48 8b bc 24 80 01 00 	mov    0x180(%rsp),%rdi
    714c:	00 
    714d:	48 8d 84 24 90 01 00 	lea    0x190(%rsp),%rax
    7154:	00 
    7155:	48 39 c7             	cmp    %rax,%rdi
    7158:	4c 8b 6c 24 48       	mov    0x48(%rsp),%r13
    715d:	74 10                	je     716f <main+0x30cf>
    715f:	48 8b b4 24 90 01 00 	mov    0x190(%rsp),%rsi
    7166:	00 
    7167:	48 ff c6             	inc    %rsi
    716a:	e8 b1 af ff ff       	call   2120 <_ZdlPvm@plt>
    716f:	48 8b 05 32 5e 00 00 	mov    0x5e32(%rip),%rax        # cfa8 <_ZTVSt15basic_streambufIcSt11char_traitsIcEE@GLIBCXX_3.4>
    7176:	48 83 c0 10          	add    $0x10,%rax
    717a:	48 89 84 24 38 01 00 	mov    %rax,0x138(%rsp)
    7181:	00 
    7182:	48 8d bc 24 70 01 00 	lea    0x170(%rsp),%rdi
    7189:	00 
    718a:	e8 21 b0 ff ff       	call   21b0 <_ZNSt6localeD1Ev@plt>
    718f:	48 8b 43 10          	mov    0x10(%rbx),%rax
    7193:	48 8b 4b 18          	mov    0x18(%rbx),%rcx
    7197:	48 89 84 24 20 01 00 	mov    %rax,0x120(%rsp)
    719e:	00 
    719f:	48 8b 40 e8          	mov    -0x18(%rax),%rax
    71a3:	48 89 8c 04 20 01 00 	mov    %rcx,0x120(%rsp,%rax,1)
    71aa:	00 
    71ab:	48 c7 84 24 28 01 00 	movq   $0x0,0x128(%rsp)
    71b2:	00 00 00 00 00 
    71b7:	48 8d bc 24 a0 01 00 	lea    0x1a0(%rsp),%rdi
    71be:	00 
    71bf:	e8 8c ae ff ff       	call   2050 <_ZNSt8ios_baseD2Ev@plt>
    71c4:	be 50 00 00 00       	mov    $0x50,%esi
    71c9:	48 89 ef             	mov    %rbp,%rdi
    71cc:	e8 4f af ff ff       	call   2120 <_ZdlPvm@plt>
    71d1:	44 8b 4c 24 10       	mov    0x10(%rsp),%r9d
    71d6:	4d 85 ed             	test   %r13,%r13
    71d9:	48 8b 1c 24          	mov    (%rsp),%rbx
    71dd:	0f 84 2a 03 00 00    	je     750d <main+0x346d>
    71e3:	49 8d 45 ff          	lea    -0x1(%r13),%rax
    71e7:	44 89 e9             	mov    %r13d,%ecx
    71ea:	83 e1 e0             	and    $0xffffffe0,%ecx
    71ed:	44 89 ea             	mov    %r13d,%edx
    71f0:	83 e2 fc             	and    $0xfffffffc,%edx
    71f3:	48 89 d6             	mov    %rdx,%rsi
    71f6:	48 f7 de             	neg    %rsi
    71f9:	31 ff                	xor    %edi,%edi
    71fb:	45 31 c0             	xor    %r8d,%r8d
    71fe:	44 8b 4c 24 10       	mov    0x10(%rsp),%r9d
    7203:	eb 1a                	jmp    721f <main+0x317f>
    7205:	66 66 2e 0f 1f 84 00 	data16 cs nopw 0x0(%rax,%rax,1)
    720c:	00 00 00 00 
    7210:	41 ff c0             	inc    %r8d
    7213:	4c 01 ef             	add    %r13,%rdi
    7216:	45 39 e8             	cmp    %r13d,%r8d
    7219:	0f 84 ee 02 00 00    	je     750d <main+0x346d>
    721f:	41 83 fd 03          	cmp    $0x3,%r13d
    7223:	76 22                	jbe    7247 <main+0x31a7>
    7225:	49 89 c2             	mov    %rax,%r10
    7228:	49 c1 ea 20          	shr    $0x20,%r10
    722c:	41 0f 95 c2          	setne  %r10b
    7230:	45 89 eb             	mov    %r13d,%r11d
    7233:	45 0f af d8          	imul   %r8d,%r11d
    7237:	41 01 c3             	add    %eax,%r11d
    723a:	41 0f 92 c3          	setb   %r11b
    723e:	45 08 d3             	or     %r10b,%r11b
    7241:	0f 84 c9 01 00 00    	je     7410 <main+0x3370>
    7247:	45 31 db             	xor    %r11d,%r11d
    724a:	44 89 eb             	mov    %r13d,%ebx
    724d:	44 29 db             	sub    %r11d,%ebx
    7250:	4d 89 da             	mov    %r11,%r10
    7253:	83 e3 07             	and    $0x7,%ebx
    7256:	74 1f                	je     7277 <main+0x31d7>
    7258:	0f 1f 84 00 00 00 00 	nopl   0x0(%rax,%rax,1)
    725f:	00 
    7260:	46 8d 34 17          	lea    (%rdi,%r10,1),%r14d
    7264:	43 8b 2c b7          	mov    (%r15,%r14,4),%ebp
    7268:	44 39 cd             	cmp    %r9d,%ebp
    726b:	44 0f 42 cd          	cmovb  %ebp,%r9d
    726f:	49 ff c2             	inc    %r10
    7272:	48 ff cb             	dec    %rbx
    7275:	75 e9                	jne    7260 <main+0x31c0>
    7277:	4d 29 eb             	sub    %r13,%r11
    727a:	49 83 fb f8          	cmp    $0xfffffffffffffff8,%r11
    727e:	48 8b 1c 24          	mov    (%rsp),%rbx
    7282:	76 19                	jbe    729d <main+0x31fd>
    7284:	eb 8a                	jmp    7210 <main+0x3170>
    7286:	66 2e 0f 1f 84 00 00 	cs nopw 0x0(%rax,%rax,1)
    728d:	00 00 00 
    7290:	49 83 c2 08          	add    $0x8,%r10
    7294:	4d 39 d5             	cmp    %r10,%r13
    7297:	0f 84 73 ff ff ff    	je     7210 <main+0x3170>
    729d:	46 8d 1c 17          	lea    (%rdi,%r10,1),%r11d
    72a1:	47 8b 1c 9f          	mov    (%r15,%r11,4),%r11d
    72a5:	45 39 cb             	cmp    %r9d,%r11d
    72a8:	0f 82 b2 00 00 00    	jb     7360 <main+0x32c0>
    72ae:	45 89 cb             	mov    %r9d,%r11d
    72b1:	46 8d 0c 17          	lea    (%rdi,%r10,1),%r9d
    72b5:	41 ff c1             	inc    %r9d
    72b8:	47 8b 0c 8f          	mov    (%r15,%r9,4),%r9d
    72bc:	45 39 d9             	cmp    %r11d,%r9d
    72bf:	0f 83 af 00 00 00    	jae    7374 <main+0x32d4>
    72c5:	46 8d 1c 17          	lea    (%rdi,%r10,1),%r11d
    72c9:	41 83 c3 02          	add    $0x2,%r11d
    72cd:	47 8b 1c 9f          	mov    (%r15,%r11,4),%r11d
    72d1:	45 39 cb             	cmp    %r9d,%r11d
    72d4:	0f 82 b2 00 00 00    	jb     738c <main+0x32ec>
    72da:	45 89 cb             	mov    %r9d,%r11d
    72dd:	46 8d 0c 17          	lea    (%rdi,%r10,1),%r9d
    72e1:	41 83 c1 03          	add    $0x3,%r9d
    72e5:	47 8b 0c 8f          	mov    (%r15,%r9,4),%r9d
    72e9:	45 39 d9             	cmp    %r11d,%r9d
    72ec:	0f 83 af 00 00 00    	jae    73a1 <main+0x3301>
    72f2:	46 8d 1c 17          	lea    (%rdi,%r10,1),%r11d
    72f6:	41 83 c3 04          	add    $0x4,%r11d
    72fa:	47 8b 1c 9f          	mov    (%r15,%r11,4),%r11d
    72fe:	45 39 cb             	cmp    %r9d,%r11d
    7301:	0f 82 b2 00 00 00    	jb     73b9 <main+0x3319>
    7307:	45 89 cb             	mov    %r9d,%r11d
    730a:	46 8d 0c 17          	lea    (%rdi,%r10,1),%r9d
    730e:	41 83 c1 05          	add    $0x5,%r9d
    7312:	47 8b 0c 8f          	mov    (%r15,%r9,4),%r9d
    7316:	45 39 d9             	cmp    %r11d,%r9d
    7319:	0f 83 af 00 00 00    	jae    73ce <main+0x332e>
    731f:	46 8d 1c 17          	lea    (%rdi,%r10,1),%r11d
    7323:	41 83 c3 06          	add    $0x6,%r11d
    7327:	47 8b 1c 9f          	mov    (%r15,%r11,4),%r11d
    732b:	45 39 cb             	cmp    %r9d,%r11d
    732e:	0f 82 b2 00 00 00    	jb     73e6 <main+0x3346>
    7334:	45 89 cb             	mov    %r9d,%r11d
    7337:	46 8d 0c 17          	lea    (%rdi,%r10,1),%r9d
    733b:	41 83 c1 07          	add    $0x7,%r9d
    733f:	47 8b 0c 8f          	mov    (%r15,%r9,4),%r9d
    7343:	45 39 d9             	cmp    %r11d,%r9d
    7346:	0f 82 44 ff ff ff    	jb     7290 <main+0x31f0>
    734c:	e9 aa 00 00 00       	jmp    73fb <main+0x335b>
    7351:	66 66 66 66 66 66 2e 	data16 data16 data16 data16 data16 cs nopw 0x0(%rax,%rax,1)
    7358:	0f 1f 84 00 00 00 00 
    735f:	00 
    7360:	46 8d 0c 17          	lea    (%rdi,%r10,1),%r9d
    7364:	41 ff c1             	inc    %r9d
    7367:	47 8b 0c 8f          	mov    (%r15,%r9,4),%r9d
    736b:	45 39 d9             	cmp    %r11d,%r9d
    736e:	0f 82 51 ff ff ff    	jb     72c5 <main+0x3225>
    7374:	45 89 d9             	mov    %r11d,%r9d
    7377:	46 8d 1c 17          	lea    (%rdi,%r10,1),%r11d
    737b:	41 83 c3 02          	add    $0x2,%r11d
    737f:	47 8b 1c 9f          	mov    (%r15,%r11,4),%r11d
    7383:	45 39 cb             	cmp    %r9d,%r11d
    7386:	0f 83 4e ff ff ff    	jae    72da <main+0x323a>
    738c:	46 8d 0c 17          	lea    (%rdi,%r10,1),%r9d
    7390:	41 83 c1 03          	add    $0x3,%r9d
    7394:	47 8b 0c 8f          	mov    (%r15,%r9,4),%r9d
    7398:	45 39 d9             	cmp    %r11d,%r9d
    739b:	0f 82 51 ff ff ff    	jb     72f2 <main+0x3252>
    73a1:	45 89 d9             	mov    %r11d,%r9d
    73a4:	46 8d 1c 17          	lea    (%rdi,%r10,1),%r11d
    73a8:	41 83 c3 04          	add    $0x4,%r11d
    73ac:	47 8b 1c 9f          	mov    (%r15,%r11,4),%r11d
    73b0:	45 39 cb             	cmp    %r9d,%r11d
    73b3:	0f 83 4e ff ff ff    	jae    7307 <main+0x3267>
    73b9:	46 8d 0c 17          	lea    (%rdi,%r10,1),%r9d
    73bd:	41 83 c1 05          	add    $0x5,%r9d
    73c1:	47 8b 0c 8f          	mov    (%r15,%r9,4),%r9d
    73c5:	45 39 d9             	cmp    %r11d,%r9d
    73c8:	0f 82 51 ff ff ff    	jb     731f <main+0x327f>
    73ce:	45 89 d9             	mov    %r11d,%r9d
    73d1:	46 8d 1c 17          	lea    (%rdi,%r10,1),%r11d
    73d5:	41 83 c3 06          	add    $0x6,%r11d
    73d9:	47 8b 1c 9f          	mov    (%r15,%r11,4),%r11d
    73dd:	45 39 cb             	cmp    %r9d,%r11d
    73e0:	0f 83 4e ff ff ff    	jae    7334 <main+0x3294>
    73e6:	46 8d 0c 17          	lea    (%rdi,%r10,1),%r9d
    73ea:	41 83 c1 07          	add    $0x7,%r9d
    73ee:	47 8b 0c 8f          	mov    (%r15,%r9,4),%r9d
    73f2:	45 39 d9             	cmp    %r11d,%r9d
    73f5:	0f 82 95 fe ff ff    	jb     7290 <main+0x31f0>
    73fb:	45 89 d9             	mov    %r11d,%r9d
    73fe:	e9 8d fe ff ff       	jmp    7290 <main+0x31f0>
    7403:	66 66 66 66 2e 0f 1f 	data16 data16 data16 cs nopw 0x0(%rax,%rax,1)
    740a:	84 00 00 00 00 00 
    7410:	41 83 fd 20          	cmp    $0x20,%r13d
    7414:	73 08                	jae    741e <main+0x337e>
    7416:	45 31 d2             	xor    %r10d,%r10d
    7419:	e9 96 00 00 00       	jmp    74b4 <main+0x3414>
    741e:	62 d2 7d 28 7c c1    	vpbroadcastd %r9d,%ymm0
    7424:	41 89 f9             	mov    %edi,%r9d
    7427:	49 89 ca             	mov    %rcx,%r10
    742a:	c5 fd 6f c8          	vmovdqa %ymm0,%ymm1
    742e:	c5 fd 6f d0          	vmovdqa %ymm0,%ymm2
    7432:	c5 fd 6f d8          	vmovdqa %ymm0,%ymm3
    7436:	66 2e 0f 1f 84 00 00 	cs nopw 0x0(%rax,%rax,1)
    743d:	00 00 00 
    7440:	45 89 cb             	mov    %r9d,%r11d
    7443:	c4 82 7d 3b 04 9f    	vpminud (%r15,%r11,4),%ymm0,%ymm0
    7449:	c4 82 75 3b 4c 9f 20 	vpminud 0x20(%r15,%r11,4),%ymm1,%ymm1
    7450:	c4 82 6d 3b 54 9f 40 	vpminud 0x40(%r15,%r11,4),%ymm2,%ymm2
    7457:	c4 82 65 3b 5c 9f 60 	vpminud 0x60(%r15,%r11,4),%ymm3,%ymm3
    745e:	41 83 c1 20          	add    $0x20,%r9d
    7462:	49 83 c2 e0          	add    $0xffffffffffffffe0,%r10
    7466:	75 d8                	jne    7440 <main+0x33a0>
    7468:	c4 e2 7d 3b c1       	vpminud %ymm1,%ymm0,%ymm0
    746d:	c4 e2 6d 3b cb       	vpminud %ymm3,%ymm2,%ymm1
    7472:	c4 e2 7d 3b c1       	vpminud %ymm1,%ymm0,%ymm0
    7477:	c4 e3 7d 39 c1 01    	vextracti128 $0x1,%ymm0,%xmm1
    747d:	c4 e2 79 3b c1       	vpminud %xmm1,%xmm0,%xmm0
    7482:	c5 f9 70 c8 ee       	vpshufd $0xee,%xmm0,%xmm1
    7487:	c4 e2 79 3b c1       	vpminud %xmm1,%xmm0,%xmm0
    748c:	c5 f9 70 c8 55       	vpshufd $0x55,%xmm0,%xmm1
    7491:	c4 e2 79 3b c1       	vpminud %xmm1,%xmm0,%xmm0
    7496:	c4 c1 79 7e c1       	vmovd  %xmm0,%r9d
    749b:	44 39 e9             	cmp    %r13d,%ecx
    749e:	0f 84 6c fd ff ff    	je     7210 <main+0x3170>
    74a4:	49 89 cb             	mov    %rcx,%r11
    74a7:	49 89 ca             	mov    %rcx,%r10
    74aa:	41 f6 c5 1c          	test   $0x1c,%r13b
    74ae:	0f 84 96 fd ff ff    	je     724a <main+0x31aa>
    74b4:	62 d2 7d 08 7c c1    	vpbroadcastd %r9d,%xmm0
    74ba:	4e 8d 0c 16          	lea    (%rsi,%r10,1),%r9
    74be:	41 01 fa             	add    %edi,%r10d
    74c1:	66 66 66 66 66 66 2e 	data16 data16 data16 data16 data16 cs nopw 0x0(%rax,%rax,1)
    74c8:	0f 1f 84 00 00 00 00 
    74cf:	00 
    74d0:	45 89 d3             	mov    %r10d,%r11d
    74d3:	c4 82 79 3b 04 9f    	vpminud (%r15,%r11,4),%xmm0,%xmm0
    74d9:	41 83 c2 04          	add    $0x4,%r10d
    74dd:	49 83 c1 04          	add    $0x4,%r9
    74e1:	75 ed                	jne    74d0 <main+0x3430>
    74e3:	c5 f9 70 c8 ee       	vpshufd $0xee,%xmm0,%xmm1
    74e8:	c4 e2 79 3b c1       	vpminud %xmm1,%xmm0,%xmm0
    74ed:	c5 f9 70 c8 55       	vpshufd $0x55,%xmm0,%xmm1
    74f2:	c4 e2 79 3b c1       	vpminud %xmm1,%xmm0,%xmm0
    74f7:	c4 c1 79 7e c1       	vmovd  %xmm0,%r9d
    74fc:	49 89 d3             	mov    %rdx,%r11
    74ff:	44 39 ea             	cmp    %r13d,%edx
    7502:	0f 84 08 fd ff ff    	je     7210 <main+0x3170>
    7508:	e9 3d fd ff ff       	jmp    724a <main+0x31aa>
    750d:	62 d1 5e 08 7b c1    	vcvtusi2ss %r9d,%xmm4,%xmm0
    7513:	c5 fa 11 84 24 c0 00 	vmovss %xmm0,0xc0(%rsp)
    751a:	00 00 
    751c:	c5 f8 77             	vzeroupper
    751f:	e8 4c ac ff ff       	call   2170 <log2f@plt>
    7524:	c5 fa 11 84 24 80 00 	vmovss %xmm0,0x80(%rsp)
    752b:	00 00 
    752d:	62 f1 5e 08 7b 44 24 	vcvtusi2ssl 0x10(%rsp),%xmm4,%xmm0
    7534:	04 
    7535:	c5 fa 5e 84 24 c0 00 	vdivss 0xc0(%rsp),%xmm0,%xmm0
    753c:	00 00 
    753e:	e8 2d ac ff ff       	call   2170 <log2f@plt>
    7543:	44 89 e8             	mov    %r13d,%eax
    7546:	0f af c0             	imul   %eax,%eax
    7549:	85 c0                	test   %eax,%eax
    754b:	74 67                	je     75b4 <main+0x3514>
    754d:	c5 fa 11 84 24 c0 00 	vmovss %xmm0,0xc0(%rsp)
    7554:	00 00 
    7556:	44 8d 24 40          	lea    (%rax,%rax,2),%r12d
    755a:	4c 89 e7             	mov    %r12,%rdi
    755d:	e8 ae ab ff ff       	call   2110 <_Znwm@plt>
    7562:	49 89 c6             	mov    %rax,%r14
    7565:	48 89 84 24 20 01 00 	mov    %rax,0x120(%rsp)
    756c:	00 
    756d:	4e 8d 3c 20          	lea    (%rax,%r12,1),%r15
    7571:	4c 89 bc 24 30 01 00 	mov    %r15,0x130(%rsp)
    7578:	00 
    7579:	c6 00 00             	movb   $0x0,(%rax)
    757c:	48 89 c7             	mov    %rax,%rdi
    757f:	48 ff c7             	inc    %rdi
    7582:	49 ff cc             	dec    %r12
    7585:	4c 89 7c 24 40       	mov    %r15,0x40(%rsp)
    758a:	74 0d                	je     7599 <main+0x34f9>
    758c:	31 f6                	xor    %esi,%esi
    758e:	4c 89 e2             	mov    %r12,%rdx
    7591:	e8 0a ab ff ff       	call   20a0 <memset@plt>
    7596:	4c 89 ff             	mov    %r15,%rdi
    7599:	c5 fa 10 84 24 c0 00 	vmovss 0xc0(%rsp),%xmm0
    75a0:	00 00 
    75a2:	48 89 bc 24 28 01 00 	mov    %rdi,0x128(%rsp)
    75a9:	00 
    75aa:	4d 85 ed             	test   %r13,%r13
    75ad:	75 3d                	jne    75ec <main+0x354c>
    75af:	e9 1b 02 00 00       	jmp    77cf <main+0x372f>
    75b4:	c5 f0 57 c9          	vxorps %xmm1,%xmm1,%xmm1
    75b8:	c5 f8 29 8c 24 20 01 	vmovaps %xmm1,0x120(%rsp)
    75bf:	00 00 
    75c1:	48 c7 84 24 30 01 00 	movq   $0x0,0x130(%rsp)
    75c8:	00 00 00 00 00 
    75cd:	48 c7 44 24 40 00 00 	movq   $0x0,0x40(%rsp)
    75d4:	00 00 
    75d6:	45 31 f6             	xor    %r14d,%r14d
    75d9:	31 ff                	xor    %edi,%edi
    75db:	48 89 bc 24 28 01 00 	mov    %rdi,0x128(%rsp)
    75e2:	00 
    75e3:	4d 85 ed             	test   %r13,%r13
    75e6:	0f 84 e3 01 00 00    	je     77cf <main+0x372f>
    75ec:	45 89 ec             	mov    %r13d,%r12d
    75ef:	41 83 e4 fe          	and    $0xfffffffe,%r12d
    75f3:	c5 fa 10 0d 09 3a 00 	vmovss 0x3a09(%rip),%xmm1        # b004 <_IO_stdin_used+0x4>
    75fa:	00 
    75fb:	c5 f2 5e c0          	vdivss %xmm0,%xmm1,%xmm0
    75ff:	c5 fa 11 84 24 c0 00 	vmovss %xmm0,0xc0(%rsp)
    7606:	00 00 
    7608:	43 8d 44 6d 00       	lea    0x0(%r13,%r13,2),%eax
    760d:	89 44 24 60          	mov    %eax,0x60(%rsp)
    7611:	31 ed                	xor    %ebp,%ebp
    7613:	b8 05 00 00 00       	mov    $0x5,%eax
    7618:	b9 01 00 00 00       	mov    $0x1,%ecx
    761d:	eb 64                	jmp    7683 <main+0x35e3>
    761f:	90                   	nop
    7620:	62 f1 5e 08 7b c0    	vcvtusi2ss %eax,%xmm4,%xmm0
    7626:	e8 45 ab ff ff       	call   2170 <log2f@plt>
    762b:	c5 fa 5c 84 24 80 00 	vsubss 0x80(%rsp),%xmm0,%xmm0
    7632:	00 00 
    7634:	c5 fa 59 05 e0 39 00 	vmulss 0x39e0(%rip),%xmm0,%xmm0        # b01c <_IO_stdin_used+0x1c>
    763b:	00 
    763c:	c5 fa 59 84 24 c0 00 	vmulss 0xc0(%rsp),%xmm0,%xmm0
    7643:	00 00 
    7645:	c5 fa 2c c0          	vcvttss2si %xmm0,%eax
    7649:	04 20                	add    $0x20,%al
    764b:	b1 20                	mov    $0x20,%cl
    764d:	8d 14 5b             	lea    (%rbx,%rbx,2),%edx
    7650:	41 88 0c 16          	mov    %cl,(%r14,%rdx,1)
    7654:	8d 14 5b             	lea    (%rbx,%rbx,2),%edx
    7657:	ff c2                	inc    %edx
    7659:	41 88 04 16          	mov    %al,(%r14,%rdx,1)
    765d:	8d 44 5b 02          	lea    0x2(%rbx,%rbx,2),%eax
    7661:	41 88 0c 06          	mov    %cl,(%r14,%rax,1)
    7665:	48 8b 1c 24          	mov    (%rsp),%rbx
    7669:	8b 44 24 18          	mov    0x18(%rsp),%eax
    766d:	8b 4c 24 50          	mov    0x50(%rsp),%ecx
    7671:	ff c5                	inc    %ebp
    7673:	03 44 24 60          	add    0x60(%rsp),%eax
    7677:	44 01 e9             	add    %r13d,%ecx
    767a:	44 39 ed             	cmp    %r13d,%ebp
    767d:	0f 84 4c 01 00 00    	je     77cf <main+0x372f>
    7683:	41 bf 00 00 00 00    	mov    $0x0,%r15d
    7689:	49 83 fd 01          	cmp    $0x1,%r13
    768d:	89 44 24 18          	mov    %eax,0x18(%rsp)
    7691:	89 4c 24 50          	mov    %ecx,0x50(%rsp)
    7695:	0f 84 06 01 00 00    	je     77a1 <main+0x3701>
    769b:	41 89 cd             	mov    %ecx,%r13d
    769e:	89 c3                	mov    %eax,%ebx
    76a0:	45 31 ff             	xor    %r15d,%r15d
    76a3:	eb 60                	jmp    7705 <main+0x3665>
    76a5:	66 66 2e 0f 1f 84 00 	data16 cs nopw 0x0(%rax,%rax,1)
    76ac:	00 00 00 00 
    76b0:	62 f1 5e 08 7b c0    	vcvtusi2ss %eax,%xmm4,%xmm0
    76b6:	e8 b5 aa ff ff       	call   2170 <log2f@plt>
    76bb:	c5 fa 5c 84 24 80 00 	vsubss 0x80(%rsp),%xmm0,%xmm0
    76c2:	00 00 
    76c4:	c5 fa 59 05 50 39 00 	vmulss 0x3950(%rip),%xmm0,%xmm0        # b01c <_IO_stdin_used+0x1c>
    76cb:	00 
    76cc:	c5 fa 59 84 24 c0 00 	vmulss 0xc0(%rsp),%xmm0,%xmm0
    76d3:	00 00 
    76d5:	c5 fa 2c c0          	vcvttss2si %xmm0,%eax
    76d9:	04 20                	add    $0x20,%al
    76db:	b1 20                	mov    $0x20,%cl
    76dd:	8d 53 fe             	lea    -0x2(%rbx),%edx
    76e0:	41 88 0c 16          	mov    %cl,(%r14,%rdx,1)
    76e4:	8d 53 ff             	lea    -0x1(%rbx),%edx
    76e7:	41 88 04 16          	mov    %al,(%r14,%rdx,1)
    76eb:	89 d8                	mov    %ebx,%eax
    76ed:	41 88 0c 06          	mov    %cl,(%r14,%rax,1)
    76f1:	49 83 c7 02          	add    $0x2,%r15
    76f5:	83 c3 06             	add    $0x6,%ebx
    76f8:	41 83 c5 02          	add    $0x2,%r13d
    76fc:	4d 39 fc             	cmp    %r15,%r12
    76ff:	0f 84 8b 00 00 00    	je     7790 <main+0x36f0>
    7705:	41 8d 45 ff          	lea    -0x1(%r13),%eax
    7709:	48 8b 4c 24 08       	mov    0x8(%rsp),%rcx
    770e:	8b 04 81             	mov    (%rcx,%rax,4),%eax
    7711:	3b 44 24 10          	cmp    0x10(%rsp),%eax
    7715:	73 39                	jae    7750 <main+0x36b0>
    7717:	62 f1 5e 08 7b c0    	vcvtusi2ss %eax,%xmm4,%xmm0
    771d:	e8 4e aa ff ff       	call   2170 <log2f@plt>
    7722:	c5 fa 5c 84 24 80 00 	vsubss 0x80(%rsp),%xmm0,%xmm0
    7729:	00 00 
    772b:	c5 fa 59 05 e9 38 00 	vmulss 0x38e9(%rip),%xmm0,%xmm0        # b01c <_IO_stdin_used+0x1c>
    7732:	00 
    7733:	c5 fa 59 84 24 c0 00 	vmulss 0xc0(%rsp),%xmm0,%xmm0
    773a:	00 00 
    773c:	c5 fa 2c c0          	vcvttss2si %xmm0,%eax
    7740:	04 20                	add    $0x20,%al
    7742:	b1 20                	mov    $0x20,%cl
    7744:	eb 0e                	jmp    7754 <main+0x36b4>
    7746:	66 2e 0f 1f 84 00 00 	cs nopw 0x0(%rax,%rax,1)
    774d:	00 00 00 
    7750:	31 c0                	xor    %eax,%eax
    7752:	31 c9                	xor    %ecx,%ecx
    7754:	8d 53 fb             	lea    -0x5(%rbx),%edx
    7757:	41 88 0c 16          	mov    %cl,(%r14,%rdx,1)
    775b:	8d 53 fc             	lea    -0x4(%rbx),%edx
    775e:	41 88 04 16          	mov    %al,(%r14,%rdx,1)
    7762:	8d 43 fd             	lea    -0x3(%rbx),%eax
    7765:	41 88 0c 06          	mov    %cl,(%r14,%rax,1)
    7769:	44 89 e8             	mov    %r13d,%eax
    776c:	48 8b 4c 24 08       	mov    0x8(%rsp),%rcx
    7771:	8b 04 81             	mov    (%rcx,%rax,4),%eax
    7774:	3b 44 24 10          	cmp    0x10(%rsp),%eax
    7778:	0f 82 32 ff ff ff    	jb     76b0 <main+0x3610>
    777e:	31 c0                	xor    %eax,%eax
    7780:	31 c9                	xor    %ecx,%ecx
    7782:	e9 56 ff ff ff       	jmp    76dd <main+0x363d>
    7787:	66 0f 1f 84 00 00 00 	nopw   0x0(%rax,%rax,1)
    778e:	00 00 
    7790:	48 8b 1c 24          	mov    (%rsp),%rbx
    7794:	4c 8b 6c 24 48       	mov    0x48(%rsp),%r13
    7799:	8b 44 24 18          	mov    0x18(%rsp),%eax
    779d:	8b 4c 24 50          	mov    0x50(%rsp),%ecx
    77a1:	41 f6 c5 01          	test   $0x1,%r13b
    77a5:	0f 84 c6 fe ff ff    	je     7671 <main+0x35d1>
    77ab:	89 eb                	mov    %ebp,%ebx
    77ad:	41 0f af dd          	imul   %r13d,%ebx
    77b1:	44 01 fb             	add    %r15d,%ebx
    77b4:	48 8b 44 24 08       	mov    0x8(%rsp),%rax
    77b9:	8b 04 98             	mov    (%rax,%rbx,4),%eax
    77bc:	3b 44 24 10          	cmp    0x10(%rsp),%eax
    77c0:	0f 82 5a fe ff ff    	jb     7620 <main+0x3580>
    77c6:	31 c0                	xor    %eax,%eax
    77c8:	31 c9                	xor    %ecx,%ecx
    77ca:	e9 7e fe ff ff       	jmp    764d <main+0x35ad>
    77cf:	48 8d 3d 02 3e 00 00 	lea    0x3e02(%rip),%rdi        # b5d8 <_IO_stdin_used+0x5d8>
    77d6:	48 8d 94 24 20 01 00 	lea    0x120(%rsp),%rdx
    77dd:	00 
    77de:	44 89 ee             	mov    %r13d,%esi
    77e1:	e8 9a be ff ff       	call   3680 <_Z8writeBMPPKcjRKSt6vectorIhSaIhEE>
    77e6:	4d 85 f6             	test   %r14,%r14
    77e9:	4c 8b 7c 24 08       	mov    0x8(%rsp),%r15
    77ee:	74 10                	je     7800 <main+0x3760>
    77f0:	48 8b 74 24 40       	mov    0x40(%rsp),%rsi
    77f5:	4c 29 f6             	sub    %r14,%rsi
    77f8:	4c 89 f7             	mov    %r14,%rdi
    77fb:	e8 20 a9 ff ff       	call   2120 <_ZdlPvm@plt>
    7800:	48 8b 3d b1 57 00 00 	mov    0x57b1(%rip),%rdi        # cfb8 <_ZSt4cout@GLIBCXX_3.4>
    7807:	48 8d 35 33 3d 00 00 	lea    0x3d33(%rip),%rsi        # b541 <_IO_stdin_used+0x541>
    780e:	ba 3a 00 00 00       	mov    $0x3a,%edx
    7813:	e8 28 a9 ff ff       	call   2140 <_ZSt16__ostream_insertIcSt11char_traitsIcEERSt13basic_ostreamIT_T0_ES6_PKS3_l@plt>
    7818:	4d 85 ed             	test   %r13,%r13
    781b:	0f 84 c9 02 00 00    	je     7aea <main+0x3a4a>
    7821:	49 8d 45 ff          	lea    -0x1(%r13),%rax
    7825:	44 89 e9             	mov    %r13d,%ecx
    7828:	83 e1 f0             	and    $0xfffffff0,%ecx
    782b:	44 89 ea             	mov    %r13d,%edx
    782e:	83 e2 fc             	and    $0xfffffffc,%edx
    7831:	44 89 ee             	mov    %r13d,%esi
    7834:	83 e6 03             	and    $0x3,%esi
    7837:	48 89 d7             	mov    %rdx,%rdi
    783a:	48 f7 df             	neg    %rdi
    783d:	48 89 bc 24 80 00 00 	mov    %rdi,0x80(%rsp)
    7844:	00 
    7845:	45 31 c0             	xor    %r8d,%r8d
    7848:	45 31 c9             	xor    %r9d,%r9d
    784b:	45 31 d2             	xor    %r10d,%r10d
    784e:	eb 0f                	jmp    785f <main+0x37bf>
    7850:	41 ff c1             	inc    %r9d
    7853:	4d 01 e8             	add    %r13,%r8
    7856:	45 39 e9             	cmp    %r13d,%r9d
    7859:	0f 84 80 02 00 00    	je     7adf <main+0x3a3f>
    785f:	41 83 fd 03          	cmp    $0x3,%r13d
    7863:	76 20                	jbe    7885 <main+0x37e5>
    7865:	49 89 c3             	mov    %rax,%r11
    7868:	49 c1 eb 20          	shr    $0x20,%r11
    786c:	41 0f 95 c3          	setne  %r11b
    7870:	44 89 eb             	mov    %r13d,%ebx
    7873:	41 0f af d9          	imul   %r9d,%ebx
    7877:	01 c3                	add    %eax,%ebx
    7879:	0f 92 c3             	setb   %bl
    787c:	44 08 db             	or     %r11b,%bl
    787f:	0f 84 0b 01 00 00    	je     7990 <main+0x38f0>
    7885:	31 db                	xor    %ebx,%ebx
    7887:	48 85 f6             	test   %rsi,%rsi
    788a:	74 44                	je     78d0 <main+0x3830>
    788c:	49 89 f6             	mov    %rsi,%r14
    788f:	49 89 db             	mov    %rbx,%r11
    7892:	4c 8b 6c 24 08       	mov    0x8(%rsp),%r13
    7897:	48 8b 3c 24          	mov    (%rsp),%rdi
    789b:	0f 1f 44 00 00       	nopl   0x0(%rax,%rax,1)
    78a0:	47 8d 3c 18          	lea    (%r8,%r11,1),%r15d
    78a4:	43 8b 6c bd 00       	mov    0x0(%r13,%r15,4),%ebp
    78a9:	46 8b 3c bf          	mov    (%rdi,%r15,4),%r15d
    78ad:	41 89 ec             	mov    %ebp,%r12d
    78b0:	45 29 fc             	sub    %r15d,%r12d
    78b3:	41 29 ef             	sub    %ebp,%r15d
    78b6:	45 0f 4c fc          	cmovl  %r12d,%r15d
    78ba:	4d 01 fa             	add    %r15,%r10
    78bd:	49 ff c3             	inc    %r11
    78c0:	49 ff ce             	dec    %r14
    78c3:	75 db                	jne    78a0 <main+0x3800>
    78c5:	eb 15                	jmp    78dc <main+0x383c>
    78c7:	66 0f 1f 84 00 00 00 	nopw   0x0(%rax,%rax,1)
    78ce:	00 00 
    78d0:	49 89 db             	mov    %rbx,%r11
    78d3:	4c 8b 6c 24 08       	mov    0x8(%rsp),%r13
    78d8:	48 8b 3c 24          	mov    (%rsp),%rdi
    78dc:	4c 8b 74 24 48       	mov    0x48(%rsp),%r14
    78e1:	4c 29 f3             	sub    %r14,%rbx
    78e4:	48 83 fb fc          	cmp    $0xfffffffffffffffc,%rbx
    78e8:	4d 89 ef             	mov    %r13,%r15
    78eb:	4d 89 f5             	mov    %r14,%r13
    78ee:	0f 87 5c ff ff ff    	ja     7850 <main+0x37b0>
    78f4:	66 66 66 2e 0f 1f 84 	data16 data16 cs nopw 0x0(%rax,%rax,1)
    78fb:	00 00 00 00 00 
    7900:	43 8d 1c 18          	lea    (%r8,%r11,1),%ebx
    7904:	41 8b 2c 9f          	mov    (%r15,%rbx,4),%ebp
    7908:	8b 1c 9f             	mov    (%rdi,%rbx,4),%ebx
    790b:	41 89 ee             	mov    %ebp,%r14d
    790e:	41 29 de             	sub    %ebx,%r14d
    7911:	29 eb                	sub    %ebp,%ebx
    7913:	41 0f 4c de          	cmovl  %r14d,%ebx
    7917:	4c 01 d3             	add    %r10,%rbx
    791a:	47 8d 14 18          	lea    (%r8,%r11,1),%r10d
    791e:	41 ff c2             	inc    %r10d
    7921:	43 8b 2c 97          	mov    (%r15,%r10,4),%ebp
    7925:	46 8b 14 97          	mov    (%rdi,%r10,4),%r10d
    7929:	41 89 ee             	mov    %ebp,%r14d
    792c:	45 29 d6             	sub    %r10d,%r14d
    792f:	41 29 ea             	sub    %ebp,%r10d
    7932:	45 0f 4c d6          	cmovl  %r14d,%r10d
    7936:	47 8d 74 18 02       	lea    0x2(%r8,%r11,1),%r14d
    793b:	43 8b 2c b7          	mov    (%r15,%r14,4),%ebp
    793f:	46 8b 34 b7          	mov    (%rdi,%r14,4),%r14d
    7943:	41 89 ef             	mov    %ebp,%r15d
    7946:	45 29 f7             	sub    %r14d,%r15d
    7949:	41 29 ee             	sub    %ebp,%r14d
    794c:	45 0f 4c f7          	cmovl  %r15d,%r14d
    7950:	4c 8b 7c 24 08       	mov    0x8(%rsp),%r15
    7955:	4d 01 d6             	add    %r10,%r14
    7958:	49 01 de             	add    %rbx,%r14
    795b:	47 8d 14 18          	lea    (%r8,%r11,1),%r10d
    795f:	41 83 c2 03          	add    $0x3,%r10d
    7963:	43 8b 1c 97          	mov    (%r15,%r10,4),%ebx
    7967:	46 8b 14 97          	mov    (%rdi,%r10,4),%r10d
    796b:	89 dd                	mov    %ebx,%ebp
    796d:	44 29 d5             	sub    %r10d,%ebp
    7970:	41 29 da             	sub    %ebx,%r10d
    7973:	44 0f 4c d5          	cmovl  %ebp,%r10d
    7977:	4d 01 f2             	add    %r14,%r10
    797a:	49 83 c3 04          	add    $0x4,%r11
    797e:	4d 39 dd             	cmp    %r11,%r13
    7981:	0f 85 79 ff ff ff    	jne    7900 <main+0x3860>
    7987:	e9 c4 fe ff ff       	jmp    7850 <main+0x37b0>
    798c:	0f 1f 40 00          	nopl   0x0(%rax)
    7990:	41 83 fd 10          	cmp    $0x10,%r13d
    7994:	73 0c                	jae    79a2 <main+0x3902>
    7996:	45 31 db             	xor    %r11d,%r11d
    7999:	48 8b 3c 24          	mov    (%rsp),%rdi
    799d:	e9 d6 00 00 00       	jmp    7a78 <main+0x39d8>
    79a2:	c4 c1 f9 6e c2       	vmovq  %r10,%xmm0
    79a7:	c5 f0 57 c9          	vxorps %xmm1,%xmm1,%xmm1
    79ab:	45 89 c2             	mov    %r8d,%r10d
    79ae:	49 89 cb             	mov    %rcx,%r11
    79b1:	c5 e8 57 d2          	vxorps %xmm2,%xmm2,%xmm2
    79b5:	c5 e0 57 db          	vxorps %xmm3,%xmm3,%xmm3
    79b9:	48 8b 3c 24          	mov    (%rsp),%rdi
    79bd:	0f 1f 00             	nopl   (%rax)
    79c0:	44 89 d3             	mov    %r10d,%ebx
    79c3:	c4 c1 7a 6f 24 9f    	vmovdqu (%r15,%rbx,4),%xmm4
    79c9:	c4 c1 7a 6f 6c 9f 10 	vmovdqu 0x10(%r15,%rbx,4),%xmm5
    79d0:	c4 c1 7a 6f 74 9f 20 	vmovdqu 0x20(%r15,%rbx,4),%xmm6
    79d7:	c4 c1 7a 6f 7c 9f 30 	vmovdqu 0x30(%r15,%rbx,4),%xmm7
    79de:	c5 d9 fa 24 9f       	vpsubd (%rdi,%rbx,4),%xmm4,%xmm4
    79e3:	c5 d1 fa 6c 9f 10    	vpsubd 0x10(%rdi,%rbx,4),%xmm5,%xmm5
    79e9:	c5 c9 fa 74 9f 20    	vpsubd 0x20(%rdi,%rbx,4),%xmm6,%xmm6
    79ef:	c5 c1 fa 7c 9f 30    	vpsubd 0x30(%rdi,%rbx,4),%xmm7,%xmm7
    79f5:	c4 e2 79 1e e4       	vpabsd %xmm4,%xmm4
    79fa:	c4 e2 79 1e ed       	vpabsd %xmm5,%xmm5
    79ff:	c4 e2 79 1e f6       	vpabsd %xmm6,%xmm6
    7a04:	c4 e2 79 1e ff       	vpabsd %xmm7,%xmm7
    7a09:	c4 e2 7d 35 e4       	vpmovzxdq %xmm4,%ymm4
    7a0e:	c5 fd d4 c4          	vpaddq %ymm4,%ymm0,%ymm0
    7a12:	c4 e2 7d 35 e5       	vpmovzxdq %xmm5,%ymm4
    7a17:	c5 f5 d4 cc          	vpaddq %ymm4,%ymm1,%ymm1
    7a1b:	c4 e2 7d 35 e6       	vpmovzxdq %xmm6,%ymm4
    7a20:	c5 ed d4 d4          	vpaddq %ymm4,%ymm2,%ymm2
    7a24:	c4 e2 7d 35 e7       	vpmovzxdq %xmm7,%ymm4
    7a29:	c5 e5 d4 dc          	vpaddq %ymm4,%ymm3,%ymm3
    7a2d:	41 83 c2 10          	add    $0x10,%r10d
    7a31:	49 83 c3 f0          	add    $0xfffffffffffffff0,%r11
    7a35:	75 89                	jne    79c0 <main+0x3920>
    7a37:	c5 f5 d4 c0          	vpaddq %ymm0,%ymm1,%ymm0
    7a3b:	c5 ed d4 c0          	vpaddq %ymm0,%ymm2,%ymm0
    7a3f:	c5 e5 d4 c0          	vpaddq %ymm0,%ymm3,%ymm0
    7a43:	c4 e3 7d 39 c1 01    	vextracti128 $0x1,%ymm0,%xmm1
    7a49:	c5 f9 d4 c1          	vpaddq %xmm1,%xmm0,%xmm0
    7a4d:	c5 f9 70 c8 ee       	vpshufd $0xee,%xmm0,%xmm1
    7a52:	c5 f9 d4 c1          	vpaddq %xmm1,%xmm0,%xmm0
    7a56:	c4 c1 f9 7e c2       	vmovq  %xmm0,%r10
    7a5b:	44 39 e9             	cmp    %r13d,%ecx
    7a5e:	0f 84 ec fd ff ff    	je     7850 <main+0x37b0>
    7a64:	48 89 cb             	mov    %rcx,%rbx
    7a67:	49 89 cb             	mov    %rcx,%r11
    7a6a:	41 f6 c5 0c          	test   $0xc,%r13b
    7a6e:	48 8b 3c 24          	mov    (%rsp),%rdi
    7a72:	0f 84 0f fe ff ff    	je     7887 <main+0x37e7>
    7a78:	c4 c1 f9 6e c2       	vmovq  %r10,%xmm0
    7a7d:	4c 8b 94 24 80 00 00 	mov    0x80(%rsp),%r10
    7a84:	00 
    7a85:	4d 01 da             	add    %r11,%r10
    7a88:	45 01 c3             	add    %r8d,%r11d
    7a8b:	0f 1f 44 00 00       	nopl   0x0(%rax,%rax,1)
    7a90:	44 89 db             	mov    %r11d,%ebx
    7a93:	c4 c1 7a 6f 0c 9f    	vmovdqu (%r15,%rbx,4),%xmm1
    7a99:	c5 f1 fa 0c 9f       	vpsubd (%rdi,%rbx,4),%xmm1,%xmm1
    7a9e:	c4 e2 79 1e c9       	vpabsd %xmm1,%xmm1
    7aa3:	c4 e2 7d 35 c9       	vpmovzxdq %xmm1,%ymm1
    7aa8:	c5 fd d4 c1          	vpaddq %ymm1,%ymm0,%ymm0
    7aac:	41 83 c3 04          	add    $0x4,%r11d
    7ab0:	49 83 c2 04          	add    $0x4,%r10
    7ab4:	75 da                	jne    7a90 <main+0x39f0>
    7ab6:	c4 e3 7d 39 c1 01    	vextracti128 $0x1,%ymm0,%xmm1
    7abc:	c5 f9 d4 c1          	vpaddq %xmm1,%xmm0,%xmm0
    7ac0:	c5 f9 70 c8 ee       	vpshufd $0xee,%xmm0,%xmm1
    7ac5:	c5 f9 d4 c1          	vpaddq %xmm1,%xmm0,%xmm0
    7ac9:	c4 c1 f9 7e c2       	vmovq  %xmm0,%r10
    7ace:	48 89 d3             	mov    %rdx,%rbx
    7ad1:	44 39 ea             	cmp    %r13d,%edx
    7ad4:	0f 84 76 fd ff ff    	je     7850 <main+0x37b0>
    7ada:	e9 a8 fd ff ff       	jmp    7887 <main+0x37e7>
    7adf:	c4 c1 bb 2a c2       	vcvtsi2sd %r10,%xmm8,%xmm0
    7ae4:	48 8b 1c 24          	mov    (%rsp),%rbx
    7ae8:	eb 04                	jmp    7aee <main+0x3a4e>
    7aea:	c5 f9 57 c0          	vxorpd %xmm0,%xmm0,%xmm0
    7aee:	8b 44 24 10          	mov    0x10(%rsp),%eax
    7af2:	41 0f af c5          	imul   %r13d,%eax
    7af6:	41 0f af c5          	imul   %r13d,%eax
    7afa:	62 f1 3f 08 7b c8    	vcvtusi2sd %eax,%xmm8,%xmm1
    7b00:	c5 fb 5e c1          	vdivsd %xmm1,%xmm0,%xmm0
    7b04:	48 8b 3d ad 54 00 00 	mov    0x54ad(%rip),%rdi        # cfb8 <_ZSt4cout@GLIBCXX_3.4>
    7b0b:	c5 f8 77             	vzeroupper
    7b0e:	e8 bd a6 ff ff       	call   21d0 <_ZNSo9_M_insertIdEERSoT_@plt>
    7b13:	49 89 c6             	mov    %rax,%r14
    7b16:	48 8b 00             	mov    (%rax),%rax
    7b19:	48 8b 40 e8          	mov    -0x18(%rax),%rax
    7b1d:	4d 8b a4 06 f0 00 00 	mov    0xf0(%r14,%rax,1),%r12
    7b24:	00 
    7b25:	4d 85 e4             	test   %r12,%r12
    7b28:	0f 84 30 1d 00 00    	je     985e <main+0x57be>
    7b2e:	41 80 7c 24 38 00    	cmpb   $0x0,0x38(%r12)
    7b34:	74 08                	je     7b3e <main+0x3a9e>
    7b36:	41 0f b6 44 24 43    	movzbl 0x43(%r12),%eax
    7b3c:	eb 17                	jmp    7b55 <main+0x3ab5>
    7b3e:	4c 89 e7             	mov    %r12,%rdi
    7b41:	e8 0a a6 ff ff       	call   2150 <_ZNKSt5ctypeIcE13_M_widen_initEv@plt>
    7b46:	49 8b 04 24          	mov    (%r12),%rax
    7b4a:	4c 89 e7             	mov    %r12,%rdi
    7b4d:	be 0a 00 00 00       	mov    $0xa,%esi
    7b52:	ff 50 30             	call   *0x30(%rax)
    7b55:	0f be f0             	movsbl %al,%esi
    7b58:	4c 89 f7             	mov    %r14,%rdi
    7b5b:	e8 d0 a4 ff ff       	call   2030 <_ZNSo3putEc@plt>
    7b60:	48 89 c7             	mov    %rax,%rdi
    7b63:	e8 58 a5 ff ff       	call   20c0 <_ZNSo5flushEv@plt>
    7b68:	8b 44 24 7c          	mov    0x7c(%rsp),%eax
    7b6c:	89 44 24 40          	mov    %eax,0x40(%rsp)
    7b70:	83 e0 fd             	and    $0xfffffffd,%eax
    7b73:	83 f8 04             	cmp    $0x4,%eax
    7b76:	0f 85 7c 0e 00 00    	jne    89f8 <main+0x4958>
    7b7c:	8b 5c 24 5c          	mov    0x5c(%rsp),%ebx
    7b80:	48 89 da             	mov    %rbx,%rdx
    7b83:	48 0f af d3          	imul   %rbx,%rdx
    7b87:	48 c1 e2 02          	shl    $0x2,%rdx
    7b8b:	4c 89 ff             	mov    %r15,%rdi
    7b8e:	31 f6                	xor    %esi,%esi
    7b90:	e8 0b a5 ff ff       	call   20a0 <memset@plt>
    7b95:	48 8b 05 1c 54 00 00 	mov    0x541c(%rip),%rax        # cfb8 <_ZSt4cout@GLIBCXX_3.4>
    7b9c:	48 8b 08             	mov    (%rax),%rcx
    7b9f:	48 8b 49 e8          	mov    -0x18(%rcx),%rcx
    7ba3:	4c 8b b4 08 f0 00 00 	mov    0xf0(%rax,%rcx,1),%r14
    7baa:	00 
    7bab:	4d 85 f6             	test   %r14,%r14
    7bae:	0f 84 aa 1c 00 00    	je     985e <main+0x57be>
    7bb4:	41 80 7e 38 00       	cmpb   $0x0,0x38(%r14)
    7bb9:	74 07                	je     7bc2 <main+0x3b22>
    7bbb:	41 0f b6 46 43       	movzbl 0x43(%r14),%eax
    7bc0:	eb 16                	jmp    7bd8 <main+0x3b38>
    7bc2:	4c 89 f7             	mov    %r14,%rdi
    7bc5:	e8 86 a5 ff ff       	call   2150 <_ZNKSt5ctypeIcE13_M_widen_initEv@plt>
    7bca:	49 8b 06             	mov    (%r14),%rax
    7bcd:	4c 89 f7             	mov    %r14,%rdi
    7bd0:	be 0a 00 00 00       	mov    $0xa,%esi
    7bd5:	ff 50 30             	call   *0x30(%rax)
    7bd8:	0f be f0             	movsbl %al,%esi
    7bdb:	48 8b 3d d6 53 00 00 	mov    0x53d6(%rip),%rdi        # cfb8 <_ZSt4cout@GLIBCXX_3.4>
    7be2:	e8 49 a4 ff ff       	call   2030 <_ZNSo3putEc@plt>
    7be7:	48 89 c7             	mov    %rax,%rdi
    7bea:	e8 d1 a4 ff ff       	call   20c0 <_ZNSo5flushEv@plt>
    7bef:	49 89 c6             	mov    %rax,%r14
    7bf2:	48 8d 35 c1 38 00 00 	lea    0x38c1(%rip),%rsi        # b4ba <_IO_stdin_used+0x4ba>
    7bf9:	ba 08 00 00 00       	mov    $0x8,%edx
    7bfe:	48 89 c7             	mov    %rax,%rdi
    7c01:	e8 3a a5 ff ff       	call   2140 <_ZSt16__ostream_insertIcSt11char_traitsIcEERSt13basic_ostreamIT_T0_ES6_PKS3_l@plt>
    7c06:	48 8d 35 f3 39 00 00 	lea    0x39f3(%rip),%rsi        # b600 <_IO_stdin_used+0x600>
    7c0d:	ba 2b 00 00 00       	mov    $0x2b,%edx
    7c12:	4c 89 f7             	mov    %r14,%rdi
    7c15:	e8 26 a5 ff ff       	call   2140 <_ZSt16__ostream_insertIcSt11char_traitsIcEERSt13basic_ostreamIT_T0_ES6_PKS3_l@plt>
    7c1a:	48 8d 35 b8 38 00 00 	lea    0x38b8(%rip),%rsi        # b4d9 <_IO_stdin_used+0x4d9>
    7c21:	ba 05 00 00 00       	mov    $0x5,%edx
    7c26:	4c 89 f7             	mov    %r14,%rdi
    7c29:	e8 12 a5 ff ff       	call   2140 <_ZSt16__ostream_insertIcSt11char_traitsIcEERSt13basic_ostreamIT_T0_ES6_PKS3_l@plt>
    7c2e:	bf 50 00 00 00       	mov    $0x50,%edi
    7c33:	e8 d8 a4 ff ff       	call   2110 <_Znwm@plt>
    7c38:	49 89 c5             	mov    %rax,%r13
    7c3b:	c5 f8 57 c0          	vxorps %xmm0,%xmm0,%xmm0
    7c3f:	c5 fc 11 40 30       	vmovups %ymm0,0x30(%rax)
    7c44:	c5 fc 11 40 20       	vmovups %ymm0,0x20(%rax)
    7c49:	c5 fc 11 00          	vmovups %ymm0,(%rax)
    7c4d:	8b 6c 24 6c          	mov    0x6c(%rsp),%ebp
    7c51:	c5 f8 77             	vzeroupper
    7c54:	e8 e7 a3 ff ff       	call   2040 <_ZNSt6chrono3_V212system_clock3nowEv@plt>
    7c59:	49 89 c6             	mov    %rax,%r14
    7c5c:	89 df                	mov    %ebx,%edi
    7c5e:	89 ee                	mov    %ebp,%esi
    7c60:	4c 89 fa             	mov    %r15,%rdx
    7c63:	e8 48 b2 ff ff       	call   2eb0 <_Z43mandelbrot_cpu_vector_multicore_multithreadjjPj>
    7c68:	e8 d3 a3 ff ff       	call   2040 <_ZNSt6chrono3_V212system_clock3nowEv@plt>
    7c6d:	4c 29 f0             	sub    %r14,%rax
    7c70:	62 f1 9f 08 7b c0    	vcvtusi2sd %rax,%xmm12,%xmm0
    7c76:	c4 c1 7b 11 45 00    	vmovsd %xmm0,0x0(%r13)
    7c7c:	e8 bf a3 ff ff       	call   2040 <_ZNSt6chrono3_V212system_clock3nowEv@plt>
    7c81:	49 89 c6             	mov    %rax,%r14
    7c84:	89 df                	mov    %ebx,%edi
    7c86:	89 ee                	mov    %ebp,%esi
    7c88:	4c 89 fa             	mov    %r15,%rdx
    7c8b:	e8 20 b2 ff ff       	call   2eb0 <_Z43mandelbrot_cpu_vector_multicore_multithreadjjPj>
    7c90:	e8 ab a3 ff ff       	call   2040 <_ZNSt6chrono3_V212system_clock3nowEv@plt>
    7c95:	4c 29 f0             	sub    %r14,%rax
    7c98:	62 f1 9f 08 7b c0    	vcvtusi2sd %rax,%xmm12,%xmm0
    7c9e:	c4 c1 7b 11 45 08    	vmovsd %xmm0,0x8(%r13)
    7ca4:	e8 97 a3 ff ff       	call   2040 <_ZNSt6chrono3_V212system_clock3nowEv@plt>
    7ca9:	49 89 c6             	mov    %rax,%r14
    7cac:	89 df                	mov    %ebx,%edi
    7cae:	89 ee                	mov    %ebp,%esi
    7cb0:	4c 89 fa             	mov    %r15,%rdx
    7cb3:	e8 f8 b1 ff ff       	call   2eb0 <_Z43mandelbrot_cpu_vector_multicore_multithreadjjPj>
    7cb8:	e8 83 a3 ff ff       	call   2040 <_ZNSt6chrono3_V212system_clock3nowEv@plt>
    7cbd:	4c 29 f0             	sub    %r14,%rax
    7cc0:	62 f1 ef 08 7b c0    	vcvtusi2sd %rax,%xmm2,%xmm0
    7cc6:	c4 c1 7b 11 45 10    	vmovsd %xmm0,0x10(%r13)
    7ccc:	e8 6f a3 ff ff       	call   2040 <_ZNSt6chrono3_V212system_clock3nowEv@plt>
    7cd1:	49 89 c6             	mov    %rax,%r14
    7cd4:	89 df                	mov    %ebx,%edi
    7cd6:	89 ee                	mov    %ebp,%esi
    7cd8:	4c 89 fa             	mov    %r15,%rdx
    7cdb:	e8 d0 b1 ff ff       	call   2eb0 <_Z43mandelbrot_cpu_vector_multicore_multithreadjjPj>
    7ce0:	e8 5b a3 ff ff       	call   2040 <_ZNSt6chrono3_V212system_clock3nowEv@plt>
    7ce5:	4c 29 f0             	sub    %r14,%rax
    7ce8:	62 f1 f7 08 7b c0    	vcvtusi2sd %rax,%xmm1,%xmm0
    7cee:	c4 c1 7b 11 45 18    	vmovsd %xmm0,0x18(%r13)
    7cf4:	e8 47 a3 ff ff       	call   2040 <_ZNSt6chrono3_V212system_clock3nowEv@plt>
    7cf9:	49 89 c6             	mov    %rax,%r14
    7cfc:	89 df                	mov    %ebx,%edi
    7cfe:	89 ee                	mov    %ebp,%esi
    7d00:	4c 89 fa             	mov    %r15,%rdx
    7d03:	e8 a8 b1 ff ff       	call   2eb0 <_Z43mandelbrot_cpu_vector_multicore_multithreadjjPj>
    7d08:	e8 33 a3 ff ff       	call   2040 <_ZNSt6chrono3_V212system_clock3nowEv@plt>
    7d0d:	4c 29 f0             	sub    %r14,%rax
    7d10:	62 f1 f7 08 7b c0    	vcvtusi2sd %rax,%xmm1,%xmm0
    7d16:	c4 c1 7b 11 45 20    	vmovsd %xmm0,0x20(%r13)
    7d1c:	e8 1f a3 ff ff       	call   2040 <_ZNSt6chrono3_V212system_clock3nowEv@plt>
    7d21:	49 89 c6             	mov    %rax,%r14
    7d24:	89 df                	mov    %ebx,%edi
    7d26:	89 ee                	mov    %ebp,%esi
    7d28:	4c 89 fa             	mov    %r15,%rdx
    7d2b:	e8 80 b1 ff ff       	call   2eb0 <_Z43mandelbrot_cpu_vector_multicore_multithreadjjPj>
    7d30:	e8 0b a3 ff ff       	call   2040 <_ZNSt6chrono3_V212system_clock3nowEv@plt>
    7d35:	4c 29 f0             	sub    %r14,%rax
    7d38:	62 f1 f7 08 7b c0    	vcvtusi2sd %rax,%xmm1,%xmm0
    7d3e:	c4 c1 7b 11 45 28    	vmovsd %xmm0,0x28(%r13)
    7d44:	e8 f7 a2 ff ff       	call   2040 <_ZNSt6chrono3_V212system_clock3nowEv@plt>
    7d49:	49 89 c6             	mov    %rax,%r14
    7d4c:	89 df                	mov    %ebx,%edi
    7d4e:	89 ee                	mov    %ebp,%esi
    7d50:	4c 89 fa             	mov    %r15,%rdx
    7d53:	e8 58 b1 ff ff       	call   2eb0 <_Z43mandelbrot_cpu_vector_multicore_multithreadjjPj>
    7d58:	e8 e3 a2 ff ff       	call   2040 <_ZNSt6chrono3_V212system_clock3nowEv@plt>
    7d5d:	4c 29 f0             	sub    %r14,%rax
    7d60:	62 f1 f7 08 7b c0    	vcvtusi2sd %rax,%xmm1,%xmm0
    7d66:	c4 c1 7b 11 45 30    	vmovsd %xmm0,0x30(%r13)
    7d6c:	e8 cf a2 ff ff       	call   2040 <_ZNSt6chrono3_V212system_clock3nowEv@plt>
    7d71:	49 89 c6             	mov    %rax,%r14
    7d74:	89 df                	mov    %ebx,%edi
    7d76:	89 ee                	mov    %ebp,%esi
    7d78:	4c 89 fa             	mov    %r15,%rdx
    7d7b:	e8 30 b1 ff ff       	call   2eb0 <_Z43mandelbrot_cpu_vector_multicore_multithreadjjPj>
    7d80:	e8 bb a2 ff ff       	call   2040 <_ZNSt6chrono3_V212system_clock3nowEv@plt>
    7d85:	4c 29 f0             	sub    %r14,%rax
    7d88:	62 f1 f7 08 7b c0    	vcvtusi2sd %rax,%xmm1,%xmm0
    7d8e:	c4 c1 7b 11 45 38    	vmovsd %xmm0,0x38(%r13)
    7d94:	e8 a7 a2 ff ff       	call   2040 <_ZNSt6chrono3_V212system_clock3nowEv@plt>
    7d99:	49 89 c6             	mov    %rax,%r14
    7d9c:	89 df                	mov    %ebx,%edi
    7d9e:	89 ee                	mov    %ebp,%esi
    7da0:	4c 89 fa             	mov    %r15,%rdx
    7da3:	e8 08 b1 ff ff       	call   2eb0 <_Z43mandelbrot_cpu_vector_multicore_multithreadjjPj>
    7da8:	e8 93 a2 ff ff       	call   2040 <_ZNSt6chrono3_V212system_clock3nowEv@plt>
    7dad:	4c 29 f0             	sub    %r14,%rax
    7db0:	62 f1 f7 08 7b c0    	vcvtusi2sd %rax,%xmm1,%xmm0
    7db6:	c4 c1 7b 11 45 40    	vmovsd %xmm0,0x40(%r13)
    7dbc:	e8 7f a2 ff ff       	call   2040 <_ZNSt6chrono3_V212system_clock3nowEv@plt>
    7dc1:	49 89 c6             	mov    %rax,%r14
    7dc4:	89 df                	mov    %ebx,%edi
    7dc6:	89 ee                	mov    %ebp,%esi
    7dc8:	4c 89 fa             	mov    %r15,%rdx
    7dcb:	e8 e0 b0 ff ff       	call   2eb0 <_Z43mandelbrot_cpu_vector_multicore_multithreadjjPj>
    7dd0:	4d 89 ec             	mov    %r13,%r12
    7dd3:	49 83 c4 50          	add    $0x50,%r12
    7dd7:	e8 64 a2 ff ff       	call   2040 <_ZNSt6chrono3_V212system_clock3nowEv@plt>
    7ddc:	4c 29 f0             	sub    %r14,%rax
    7ddf:	62 f1 f7 08 7b c0    	vcvtusi2sd %rax,%xmm1,%xmm0
    7de5:	c4 c1 7b 11 45 48    	vmovsd %xmm0,0x48(%r13)
    7deb:	ba 06 00 00 00       	mov    $0x6,%edx
    7df0:	4c 89 ef             	mov    %r13,%rdi
    7df3:	4c 89 e6             	mov    %r12,%rsi
    7df6:	e8 f5 1c 00 00       	call   9af0 <_ZSt16__introsort_loopIN9__gnu_cxx17__normal_iteratorIPdSt6vectorIdSaIdEEEElNS0_5__ops15_Iter_less_iterEEvT_S9_T0_T1_>
    7dfb:	4c 89 ef             	mov    %r13,%rdi
    7dfe:	4c 89 e6             	mov    %r12,%rsi
    7e01:	e8 8a 1f 00 00       	call   9d90 <_ZSt22__final_insertion_sortIN9__gnu_cxx17__normal_iteratorIPdSt6vectorIdSaIdEEEENS0_5__ops15_Iter_less_iterEEvT_S9_T0_>
    7e06:	48 8d bc 24 20 01 00 	lea    0x120(%rsp),%rdi
    7e0d:	00 
    7e0e:	e8 bd a2 ff ff       	call   20d0 <_ZNSt7__cxx1118basic_stringstreamIcSt11char_traitsIcESaIcEEC1Ev@plt>
    7e13:	89 6c 24 10          	mov    %ebp,0x10(%rsp)
    7e17:	48 89 5c 24 48       	mov    %rbx,0x48(%rsp)
    7e1c:	48 8d bc 24 30 01 00 	lea    0x130(%rsp),%rdi
    7e23:	00 
    7e24:	48 8b 84 24 30 01 00 	mov    0x130(%rsp),%rax
    7e2b:	00 
    7e2c:	48 8b 48 e8          	mov    -0x18(%rax),%rcx
    7e30:	ba fb fe ff ff       	mov    $0xfffffefb,%edx
    7e35:	23 94 0c 48 01 00 00 	and    0x148(%rsp,%rcx,1),%edx
    7e3c:	83 ca 04             	or     $0x4,%edx
    7e3f:	89 94 0c 48 01 00 00 	mov    %edx,0x148(%rsp,%rcx,1)
    7e46:	48 8b 48 e8          	mov    -0x18(%rax),%rcx
    7e4a:	48 c7 84 0c 40 01 00 	movq   $0x6,0x140(%rsp,%rcx,1)
    7e51:	00 06 00 00 00 
    7e56:	48 8b 40 e8          	mov    -0x18(%rax),%rax
    7e5a:	48 c7 84 04 38 01 00 	movq   $0x2,0x138(%rsp,%rax,1)
    7e61:	00 02 00 00 00 
    7e66:	4c 89 ed             	mov    %r13,%rbp
    7e69:	c4 c1 7b 10 45 00    	vmovsd 0x0(%r13),%xmm0
    7e6f:	c5 fb 59 05 49 35 00 	vmulsd 0x3549(%rip),%xmm0,%xmm0        # b3c0 <_IO_stdin_used+0x3c0>
    7e76:	00 
    7e77:	e8 54 a3 ff ff       	call   21d0 <_ZNSo9_M_insertIdEERSoT_@plt>
    7e7c:	48 8b 3d 35 51 00 00 	mov    0x5135(%rip),%rdi        # cfb8 <_ZSt4cout@GLIBCXX_3.4>
    7e83:	48 8d 35 55 36 00 00 	lea    0x3655(%rip),%rsi        # b4df <_IO_stdin_used+0x4df>
    7e8a:	ba 0b 00 00 00       	mov    $0xb,%edx
    7e8f:	e8 ac a2 ff ff       	call   2140 <_ZSt16__ostream_insertIcSt11char_traitsIcEERSt13basic_ostreamIT_T0_ES6_PKS3_l@plt>
    7e94:	4c 8d 6c 24 30       	lea    0x30(%rsp),%r13
    7e99:	4c 89 6c 24 20       	mov    %r13,0x20(%rsp)
    7e9e:	48 c7 44 24 28 00 00 	movq   $0x0,0x28(%rsp)
    7ea5:	00 00 
    7ea7:	c6 44 24 30 00       	movb   $0x0,0x30(%rsp)
    7eac:	4c 8b 84 24 50 01 00 	mov    0x150(%rsp),%r8
    7eb3:	00 
    7eb4:	48 8b 84 24 60 01 00 	mov    0x160(%rsp),%rax
    7ebb:	00 
    7ebc:	48 85 c0             	test   %rax,%rax
    7ebf:	0f 94 c1             	sete   %cl
    7ec2:	4c 39 c0             	cmp    %r8,%rax
    7ec5:	4c 0f 47 c0          	cmova  %rax,%r8
    7ec9:	4d 85 c0             	test   %r8,%r8
    7ecc:	0f 94 c0             	sete   %al
    7ecf:	08 c8                	or     %cl,%al
    7ed1:	74 14                	je     7ee7 <main+0x3e47>
    7ed3:	48 8d b4 24 80 01 00 	lea    0x180(%rsp),%rsi
    7eda:	00 
    7edb:	48 8d 7c 24 20       	lea    0x20(%rsp),%rdi
    7ee0:	e8 bb 25 00 00       	call   a4a0 <_ZNSt7__cxx1112basic_stringIcSt11char_traitsIcESaIcEE9_M_assignERKS4_>
    7ee5:	eb 19                	jmp    7f00 <main+0x3e60>
    7ee7:	48 8b 8c 24 58 01 00 	mov    0x158(%rsp),%rcx
    7eee:	00 
    7eef:	49 29 c8             	sub    %rcx,%r8
    7ef2:	48 8d 7c 24 20       	lea    0x20(%rsp),%rdi
    7ef7:	31 f6                	xor    %esi,%esi
    7ef9:	31 d2                	xor    %edx,%edx
    7efb:	e8 d0 22 00 00       	call   a1d0 <_ZNSt7__cxx1112basic_stringIcSt11char_traitsIcESaIcEE10_M_replaceEmmPKcm>
    7f00:	48 8b 74 24 20       	mov    0x20(%rsp),%rsi
    7f05:	48 8b 54 24 28       	mov    0x28(%rsp),%rdx
    7f0a:	48 8b 3d a7 50 00 00 	mov    0x50a7(%rip),%rdi        # cfb8 <_ZSt4cout@GLIBCXX_3.4>
    7f11:	e8 2a a2 ff ff       	call   2140 <_ZSt16__ostream_insertIcSt11char_traitsIcEERSt13basic_ostreamIT_T0_ES6_PKS3_l@plt>
    7f16:	49 89 c4             	mov    %rax,%r12
    7f19:	48 8d 35 cb 35 00 00 	lea    0x35cb(%rip),%rsi        # b4eb <_IO_stdin_used+0x4eb>
    7f20:	ba 03 00 00 00       	mov    $0x3,%edx
    7f25:	48 89 c7             	mov    %rax,%rdi
    7f28:	e8 13 a2 ff ff       	call   2140 <_ZSt16__ostream_insertIcSt11char_traitsIcEERSt13basic_ostreamIT_T0_ES6_PKS3_l@plt>
    7f2d:	49 8b 04 24          	mov    (%r12),%rax
    7f31:	48 8b 40 e8          	mov    -0x18(%rax),%rax
    7f35:	4d 8b b4 04 f0 00 00 	mov    0xf0(%r12,%rax,1),%r14
    7f3c:	00 
    7f3d:	4d 85 f6             	test   %r14,%r14
    7f40:	0f 84 31 19 00 00    	je     9877 <main+0x57d7>
    7f46:	41 80 7e 38 00       	cmpb   $0x0,0x38(%r14)
    7f4b:	74 07                	je     7f54 <main+0x3eb4>
    7f4d:	41 0f b6 46 43       	movzbl 0x43(%r14),%eax
    7f52:	eb 16                	jmp    7f6a <main+0x3eca>
    7f54:	4c 89 f7             	mov    %r14,%rdi
    7f57:	e8 f4 a1 ff ff       	call   2150 <_ZNKSt5ctypeIcE13_M_widen_initEv@plt>
    7f5c:	49 8b 06             	mov    (%r14),%rax
    7f5f:	4c 89 f7             	mov    %r14,%rdi
    7f62:	be 0a 00 00 00       	mov    $0xa,%esi
    7f67:	ff 50 30             	call   *0x30(%rax)
    7f6a:	0f be f0             	movsbl %al,%esi
    7f6d:	4c 89 e7             	mov    %r12,%rdi
    7f70:	e8 bb a0 ff ff       	call   2030 <_ZNSo3putEc@plt>
    7f75:	48 89 c7             	mov    %rax,%rdi
    7f78:	e8 43 a1 ff ff       	call   20c0 <_ZNSo5flushEv@plt>
    7f7d:	48 8b 7c 24 20       	mov    0x20(%rsp),%rdi
    7f82:	4c 39 ef             	cmp    %r13,%rdi
    7f85:	74 0d                	je     7f94 <main+0x3ef4>
    7f87:	48 8b 74 24 30       	mov    0x30(%rsp),%rsi
    7f8c:	48 ff c6             	inc    %rsi
    7f8f:	e8 8c a1 ff ff       	call   2120 <_ZdlPvm@plt>
    7f94:	48 8b 1d fd 4f 00 00 	mov    0x4ffd(%rip),%rbx        # cf98 <_ZTTNSt7__cxx1118basic_stringstreamIcSt11char_traitsIcESaIcEEE@GLIBCXX_3.4.21>
    7f9b:	48 8b 03             	mov    (%rbx),%rax
    7f9e:	48 8b 4b 40          	mov    0x40(%rbx),%rcx
    7fa2:	48 89 84 24 20 01 00 	mov    %rax,0x120(%rsp)
    7fa9:	00 
    7faa:	48 8b 40 e8          	mov    -0x18(%rax),%rax
    7fae:	48 89 8c 04 20 01 00 	mov    %rcx,0x120(%rsp,%rax,1)
    7fb5:	00 
    7fb6:	48 8b 43 48          	mov    0x48(%rbx),%rax
    7fba:	48 89 84 24 30 01 00 	mov    %rax,0x130(%rsp)
    7fc1:	00 
    7fc2:	48 8b 05 17 50 00 00 	mov    0x5017(%rip),%rax        # cfe0 <_ZTVNSt7__cxx1115basic_stringbufIcSt11char_traitsIcESaIcEEE@GLIBCXX_3.4.21>
    7fc9:	48 83 c0 10          	add    $0x10,%rax
    7fcd:	48 89 84 24 38 01 00 	mov    %rax,0x138(%rsp)
    7fd4:	00 
    7fd5:	48 8b bc 24 80 01 00 	mov    0x180(%rsp),%rdi
    7fdc:	00 
    7fdd:	48 8d 84 24 90 01 00 	lea    0x190(%rsp),%rax
    7fe4:	00 
    7fe5:	48 39 c7             	cmp    %rax,%rdi
    7fe8:	4c 8b 6c 24 48       	mov    0x48(%rsp),%r13
    7fed:	74 10                	je     7fff <main+0x3f5f>
    7fef:	48 8b b4 24 90 01 00 	mov    0x190(%rsp),%rsi
    7ff6:	00 
    7ff7:	48 ff c6             	inc    %rsi
    7ffa:	e8 21 a1 ff ff       	call   2120 <_ZdlPvm@plt>
    7fff:	48 8b 05 a2 4f 00 00 	mov    0x4fa2(%rip),%rax        # cfa8 <_ZTVSt15basic_streambufIcSt11char_traitsIcEE@GLIBCXX_3.4>
    8006:	48 83 c0 10          	add    $0x10,%rax
    800a:	48 89 84 24 38 01 00 	mov    %rax,0x138(%rsp)
    8011:	00 
    8012:	48 8d bc 24 70 01 00 	lea    0x170(%rsp),%rdi
    8019:	00 
    801a:	e8 91 a1 ff ff       	call   21b0 <_ZNSt6localeD1Ev@plt>
    801f:	48 8b 43 10          	mov    0x10(%rbx),%rax
    8023:	48 8b 4b 18          	mov    0x18(%rbx),%rcx
    8027:	48 89 84 24 20 01 00 	mov    %rax,0x120(%rsp)
    802e:	00 
    802f:	48 8b 40 e8          	mov    -0x18(%rax),%rax
    8033:	48 89 8c 04 20 01 00 	mov    %rcx,0x120(%rsp,%rax,1)
    803a:	00 
    803b:	48 c7 84 24 28 01 00 	movq   $0x0,0x128(%rsp)
    8042:	00 00 00 00 00 
    8047:	48 8d bc 24 a0 01 00 	lea    0x1a0(%rsp),%rdi
    804e:	00 
    804f:	e8 fc 9f ff ff       	call   2050 <_ZNSt8ios_baseD2Ev@plt>
    8054:	be 50 00 00 00       	mov    $0x50,%esi
    8059:	48 89 ef             	mov    %rbp,%rdi
    805c:	e8 bf a0 ff ff       	call   2120 <_ZdlPvm@plt>
    8061:	44 8b 4c 24 10       	mov    0x10(%rsp),%r9d
    8066:	4d 85 ed             	test   %r13,%r13
    8069:	48 8b 1c 24          	mov    (%rsp),%rbx
    806d:	0f 84 2a 03 00 00    	je     839d <main+0x42fd>
    8073:	49 8d 45 ff          	lea    -0x1(%r13),%rax
    8077:	44 89 e9             	mov    %r13d,%ecx
    807a:	83 e1 e0             	and    $0xffffffe0,%ecx
    807d:	44 89 ea             	mov    %r13d,%edx
    8080:	83 e2 fc             	and    $0xfffffffc,%edx
    8083:	48 89 d6             	mov    %rdx,%rsi
    8086:	48 f7 de             	neg    %rsi
    8089:	31 ff                	xor    %edi,%edi
    808b:	45 31 c0             	xor    %r8d,%r8d
    808e:	44 8b 4c 24 10       	mov    0x10(%rsp),%r9d
    8093:	eb 1a                	jmp    80af <main+0x400f>
    8095:	66 66 2e 0f 1f 84 00 	data16 cs nopw 0x0(%rax,%rax,1)
    809c:	00 00 00 00 
    80a0:	41 ff c0             	inc    %r8d
    80a3:	4c 01 ef             	add    %r13,%rdi
    80a6:	45 39 e8             	cmp    %r13d,%r8d
    80a9:	0f 84 ee 02 00 00    	je     839d <main+0x42fd>
    80af:	41 83 fd 03          	cmp    $0x3,%r13d
    80b3:	76 22                	jbe    80d7 <main+0x4037>
    80b5:	49 89 c2             	mov    %rax,%r10
    80b8:	49 c1 ea 20          	shr    $0x20,%r10
    80bc:	41 0f 95 c2          	setne  %r10b
    80c0:	45 89 eb             	mov    %r13d,%r11d
    80c3:	45 0f af d8          	imul   %r8d,%r11d
    80c7:	41 01 c3             	add    %eax,%r11d
    80ca:	41 0f 92 c3          	setb   %r11b
    80ce:	45 08 d3             	or     %r10b,%r11b
    80d1:	0f 84 c9 01 00 00    	je     82a0 <main+0x4200>
    80d7:	45 31 db             	xor    %r11d,%r11d
    80da:	44 89 eb             	mov    %r13d,%ebx
    80dd:	44 29 db             	sub    %r11d,%ebx
    80e0:	4d 89 da             	mov    %r11,%r10
    80e3:	83 e3 07             	and    $0x7,%ebx
    80e6:	74 1f                	je     8107 <main+0x4067>
    80e8:	0f 1f 84 00 00 00 00 	nopl   0x0(%rax,%rax,1)
    80ef:	00 
    80f0:	46 8d 34 17          	lea    (%rdi,%r10,1),%r14d
    80f4:	43 8b 2c b7          	mov    (%r15,%r14,4),%ebp
    80f8:	44 39 cd             	cmp    %r9d,%ebp
    80fb:	44 0f 42 cd          	cmovb  %ebp,%r9d
    80ff:	49 ff c2             	inc    %r10
    8102:	48 ff cb             	dec    %rbx
    8105:	75 e9                	jne    80f0 <main+0x4050>
    8107:	4d 29 eb             	sub    %r13,%r11
    810a:	49 83 fb f8          	cmp    $0xfffffffffffffff8,%r11
    810e:	48 8b 1c 24          	mov    (%rsp),%rbx
    8112:	76 19                	jbe    812d <main+0x408d>
    8114:	eb 8a                	jmp    80a0 <main+0x4000>
    8116:	66 2e 0f 1f 84 00 00 	cs nopw 0x0(%rax,%rax,1)
    811d:	00 00 00 
    8120:	49 83 c2 08          	add    $0x8,%r10
    8124:	4d 39 d5             	cmp    %r10,%r13
    8127:	0f 84 73 ff ff ff    	je     80a0 <main+0x4000>
    812d:	46 8d 1c 17          	lea    (%rdi,%r10,1),%r11d
    8131:	47 8b 1c 9f          	mov    (%r15,%r11,4),%r11d
    8135:	45 39 cb             	cmp    %r9d,%r11d
    8138:	0f 82 b2 00 00 00    	jb     81f0 <main+0x4150>
    813e:	45 89 cb             	mov    %r9d,%r11d
    8141:	46 8d 0c 17          	lea    (%rdi,%r10,1),%r9d
    8145:	41 ff c1             	inc    %r9d
    8148:	47 8b 0c 8f          	mov    (%r15,%r9,4),%r9d
    814c:	45 39 d9             	cmp    %r11d,%r9d
    814f:	0f 83 af 00 00 00    	jae    8204 <main+0x4164>
    8155:	46 8d 1c 17          	lea    (%rdi,%r10,1),%r11d
    8159:	41 83 c3 02          	add    $0x2,%r11d
    815d:	47 8b 1c 9f          	mov    (%r15,%r11,4),%r11d
    8161:	45 39 cb             	cmp    %r9d,%r11d
    8164:	0f 82 b2 00 00 00    	jb     821c <main+0x417c>
    816a:	45 89 cb             	mov    %r9d,%r11d
    816d:	46 8d 0c 17          	lea    (%rdi,%r10,1),%r9d
    8171:	41 83 c1 03          	add    $0x3,%r9d
    8175:	47 8b 0c 8f          	mov    (%r15,%r9,4),%r9d
    8179:	45 39 d9             	cmp    %r11d,%r9d
    817c:	0f 83 af 00 00 00    	jae    8231 <main+0x4191>
    8182:	46 8d 1c 17          	lea    (%rdi,%r10,1),%r11d
    8186:	41 83 c3 04          	add    $0x4,%r11d
    818a:	47 8b 1c 9f          	mov    (%r15,%r11,4),%r11d
    818e:	45 39 cb             	cmp    %r9d,%r11d
    8191:	0f 82 b2 00 00 00    	jb     8249 <main+0x41a9>
    8197:	45 89 cb             	mov    %r9d,%r11d
    819a:	46 8d 0c 17          	lea    (%rdi,%r10,1),%r9d
    819e:	41 83 c1 05          	add    $0x5,%r9d
    81a2:	47 8b 0c 8f          	mov    (%r15,%r9,4),%r9d
    81a6:	45 39 d9             	cmp    %r11d,%r9d
    81a9:	0f 83 af 00 00 00    	jae    825e <main+0x41be>
    81af:	46 8d 1c 17          	lea    (%rdi,%r10,1),%r11d
    81b3:	41 83 c3 06          	add    $0x6,%r11d
    81b7:	47 8b 1c 9f          	mov    (%r15,%r11,4),%r11d
    81bb:	45 39 cb             	cmp    %r9d,%r11d
    81be:	0f 82 b2 00 00 00    	jb     8276 <main+0x41d6>
    81c4:	45 89 cb             	mov    %r9d,%r11d
    81c7:	46 8d 0c 17          	lea    (%rdi,%r10,1),%r9d
    81cb:	41 83 c1 07          	add    $0x7,%r9d
    81cf:	47 8b 0c 8f          	mov    (%r15,%r9,4),%r9d
    81d3:	45 39 d9             	cmp    %r11d,%r9d
    81d6:	0f 82 44 ff ff ff    	jb     8120 <main+0x4080>
    81dc:	e9 aa 00 00 00       	jmp    828b <main+0x41eb>
    81e1:	66 66 66 66 66 66 2e 	data16 data16 data16 data16 data16 cs nopw 0x0(%rax,%rax,1)
    81e8:	0f 1f 84 00 00 00 00 
    81ef:	00 
    81f0:	46 8d 0c 17          	lea    (%rdi,%r10,1),%r9d
    81f4:	41 ff c1             	inc    %r9d
    81f7:	47 8b 0c 8f          	mov    (%r15,%r9,4),%r9d
    81fb:	45 39 d9             	cmp    %r11d,%r9d
    81fe:	0f 82 51 ff ff ff    	jb     8155 <main+0x40b5>
    8204:	45 89 d9             	mov    %r11d,%r9d
    8207:	46 8d 1c 17          	lea    (%rdi,%r10,1),%r11d
    820b:	41 83 c3 02          	add    $0x2,%r11d
    820f:	47 8b 1c 9f          	mov    (%r15,%r11,4),%r11d
    8213:	45 39 cb             	cmp    %r9d,%r11d
    8216:	0f 83 4e ff ff ff    	jae    816a <main+0x40ca>
    821c:	46 8d 0c 17          	lea    (%rdi,%r10,1),%r9d
    8220:	41 83 c1 03          	add    $0x3,%r9d
    8224:	47 8b 0c 8f          	mov    (%r15,%r9,4),%r9d
    8228:	45 39 d9             	cmp    %r11d,%r9d
    822b:	0f 82 51 ff ff ff    	jb     8182 <main+0x40e2>
    8231:	45 89 d9             	mov    %r11d,%r9d
    8234:	46 8d 1c 17          	lea    (%rdi,%r10,1),%r11d
    8238:	41 83 c3 04          	add    $0x4,%r11d
    823c:	47 8b 1c 9f          	mov    (%r15,%r11,4),%r11d
    8240:	45 39 cb             	cmp    %r9d,%r11d
    8243:	0f 83 4e ff ff ff    	jae    8197 <main+0x40f7>
    8249:	46 8d 0c 17          	lea    (%rdi,%r10,1),%r9d
    824d:	41 83 c1 05          	add    $0x5,%r9d
    8251:	47 8b 0c 8f          	mov    (%r15,%r9,4),%r9d
    8255:	45 39 d9             	cmp    %r11d,%r9d
    8258:	0f 82 51 ff ff ff    	jb     81af <main+0x410f>
    825e:	45 89 d9             	mov    %r11d,%r9d
    8261:	46 8d 1c 17          	lea    (%rdi,%r10,1),%r11d
    8265:	41 83 c3 06          	add    $0x6,%r11d
    8269:	47 8b 1c 9f          	mov    (%r15,%r11,4),%r11d
    826d:	45 39 cb             	cmp    %r9d,%r11d
    8270:	0f 83 4e ff ff ff    	jae    81c4 <main+0x4124>
    8276:	46 8d 0c 17          	lea    (%rdi,%r10,1),%r9d
    827a:	41 83 c1 07          	add    $0x7,%r9d
    827e:	47 8b 0c 8f          	mov    (%r15,%r9,4),%r9d
    8282:	45 39 d9             	cmp    %r11d,%r9d
    8285:	0f 82 95 fe ff ff    	jb     8120 <main+0x4080>
    828b:	45 89 d9             	mov    %r11d,%r9d
    828e:	e9 8d fe ff ff       	jmp    8120 <main+0x4080>
    8293:	66 66 66 66 2e 0f 1f 	data16 data16 data16 cs nopw 0x0(%rax,%rax,1)
    829a:	84 00 00 00 00 00 
    82a0:	41 83 fd 20          	cmp    $0x20,%r13d
    82a4:	73 08                	jae    82ae <main+0x420e>
    82a6:	45 31 d2             	xor    %r10d,%r10d
    82a9:	e9 96 00 00 00       	jmp    8344 <main+0x42a4>
    82ae:	62 d2 7d 28 7c c1    	vpbroadcastd %r9d,%ymm0
    82b4:	41 89 f9             	mov    %edi,%r9d
    82b7:	49 89 ca             	mov    %rcx,%r10
    82ba:	c5 fd 6f c8          	vmovdqa %ymm0,%ymm1
    82be:	c5 fd 6f d0          	vmovdqa %ymm0,%ymm2
    82c2:	c5 fd 6f d8          	vmovdqa %ymm0,%ymm3
    82c6:	66 2e 0f 1f 84 00 00 	cs nopw 0x0(%rax,%rax,1)
    82cd:	00 00 00 
    82d0:	45 89 cb             	mov    %r9d,%r11d
    82d3:	c4 82 7d 3b 04 9f    	vpminud (%r15,%r11,4),%ymm0,%ymm0
    82d9:	c4 82 75 3b 4c 9f 20 	vpminud 0x20(%r15,%r11,4),%ymm1,%ymm1
    82e0:	c4 82 6d 3b 54 9f 40 	vpminud 0x40(%r15,%r11,4),%ymm2,%ymm2
    82e7:	c4 82 65 3b 5c 9f 60 	vpminud 0x60(%r15,%r11,4),%ymm3,%ymm3
    82ee:	41 83 c1 20          	add    $0x20,%r9d
    82f2:	49 83 c2 e0          	add    $0xffffffffffffffe0,%r10
    82f6:	75 d8                	jne    82d0 <main+0x4230>
    82f8:	c4 e2 7d 3b c1       	vpminud %ymm1,%ymm0,%ymm0
    82fd:	c4 e2 6d 3b cb       	vpminud %ymm3,%ymm2,%ymm1
    8302:	c4 e2 7d 3b c1       	vpminud %ymm1,%ymm0,%ymm0
    8307:	c4 e3 7d 39 c1 01    	vextracti128 $0x1,%ymm0,%xmm1
    830d:	c4 e2 79 3b c1       	vpminud %xmm1,%xmm0,%xmm0
    8312:	c5 f9 70 c8 ee       	vpshufd $0xee,%xmm0,%xmm1
    8317:	c4 e2 79 3b c1       	vpminud %xmm1,%xmm0,%xmm0
    831c:	c5 f9 70 c8 55       	vpshufd $0x55,%xmm0,%xmm1
    8321:	c4 e2 79 3b c1       	vpminud %xmm1,%xmm0,%xmm0
    8326:	c4 c1 79 7e c1       	vmovd  %xmm0,%r9d
    832b:	44 39 e9             	cmp    %r13d,%ecx
    832e:	0f 84 6c fd ff ff    	je     80a0 <main+0x4000>
    8334:	49 89 cb             	mov    %rcx,%r11
    8337:	49 89 ca             	mov    %rcx,%r10
    833a:	41 f6 c5 1c          	test   $0x1c,%r13b
    833e:	0f 84 96 fd ff ff    	je     80da <main+0x403a>
    8344:	62 d2 7d 08 7c c1    	vpbroadcastd %r9d,%xmm0
    834a:	4e 8d 0c 16          	lea    (%rsi,%r10,1),%r9
    834e:	41 01 fa             	add    %edi,%r10d
    8351:	66 66 66 66 66 66 2e 	data16 data16 data16 data16 data16 cs nopw 0x0(%rax,%rax,1)
    8358:	0f 1f 84 00 00 00 00 
    835f:	00 
    8360:	45 89 d3             	mov    %r10d,%r11d
    8363:	c4 82 79 3b 04 9f    	vpminud (%r15,%r11,4),%xmm0,%xmm0
    8369:	41 83 c2 04          	add    $0x4,%r10d
    836d:	49 83 c1 04          	add    $0x4,%r9
    8371:	75 ed                	jne    8360 <main+0x42c0>
    8373:	c5 f9 70 c8 ee       	vpshufd $0xee,%xmm0,%xmm1
    8378:	c4 e2 79 3b c1       	vpminud %xmm1,%xmm0,%xmm0
    837d:	c5 f9 70 c8 55       	vpshufd $0x55,%xmm0,%xmm1
    8382:	c4 e2 79 3b c1       	vpminud %xmm1,%xmm0,%xmm0
    8387:	c4 c1 79 7e c1       	vmovd  %xmm0,%r9d
    838c:	49 89 d3             	mov    %rdx,%r11
    838f:	44 39 ea             	cmp    %r13d,%edx
    8392:	0f 84 08 fd ff ff    	je     80a0 <main+0x4000>
    8398:	e9 3d fd ff ff       	jmp    80da <main+0x403a>
    839d:	62 d1 5e 08 7b c1    	vcvtusi2ss %r9d,%xmm4,%xmm0
    83a3:	c5 fa 11 84 24 c0 00 	vmovss %xmm0,0xc0(%rsp)
    83aa:	00 00 
    83ac:	c5 f8 77             	vzeroupper
    83af:	e8 bc 9d ff ff       	call   2170 <log2f@plt>
    83b4:	c5 fa 11 84 24 80 00 	vmovss %xmm0,0x80(%rsp)
    83bb:	00 00 
    83bd:	62 f1 5e 08 7b 44 24 	vcvtusi2ssl 0x10(%rsp),%xmm4,%xmm0
    83c4:	04 
    83c5:	c5 fa 5e 84 24 c0 00 	vdivss 0xc0(%rsp),%xmm0,%xmm0
    83cc:	00 00 
    83ce:	e8 9d 9d ff ff       	call   2170 <log2f@plt>
    83d3:	44 89 e8             	mov    %r13d,%eax
    83d6:	0f af c0             	imul   %eax,%eax
    83d9:	85 c0                	test   %eax,%eax
    83db:	74 67                	je     8444 <main+0x43a4>
    83dd:	c5 fa 11 84 24 c0 00 	vmovss %xmm0,0xc0(%rsp)
    83e4:	00 00 
    83e6:	44 8d 24 40          	lea    (%rax,%rax,2),%r12d
    83ea:	4c 89 e7             	mov    %r12,%rdi
    83ed:	e8 1e 9d ff ff       	call   2110 <_Znwm@plt>
    83f2:	49 89 c6             	mov    %rax,%r14
    83f5:	48 89 84 24 20 01 00 	mov    %rax,0x120(%rsp)
    83fc:	00 
    83fd:	4e 8d 3c 20          	lea    (%rax,%r12,1),%r15
    8401:	4c 89 bc 24 30 01 00 	mov    %r15,0x130(%rsp)
    8408:	00 
    8409:	c6 00 00             	movb   $0x0,(%rax)
    840c:	48 89 c7             	mov    %rax,%rdi
    840f:	48 ff c7             	inc    %rdi
    8412:	49 ff cc             	dec    %r12
    8415:	4c 89 7c 24 70       	mov    %r15,0x70(%rsp)
    841a:	74 0d                	je     8429 <main+0x4389>
    841c:	31 f6                	xor    %esi,%esi
    841e:	4c 89 e2             	mov    %r12,%rdx
    8421:	e8 7a 9c ff ff       	call   20a0 <memset@plt>
    8426:	4c 89 ff             	mov    %r15,%rdi
    8429:	c5 fa 10 84 24 c0 00 	vmovss 0xc0(%rsp),%xmm0
    8430:	00 00 
    8432:	48 89 bc 24 28 01 00 	mov    %rdi,0x128(%rsp)
    8439:	00 
    843a:	4d 85 ed             	test   %r13,%r13
    843d:	75 3d                	jne    847c <main+0x43dc>
    843f:	e9 1b 02 00 00       	jmp    865f <main+0x45bf>
    8444:	c5 f0 57 c9          	vxorps %xmm1,%xmm1,%xmm1
    8448:	c5 f8 29 8c 24 20 01 	vmovaps %xmm1,0x120(%rsp)
    844f:	00 00 
    8451:	48 c7 84 24 30 01 00 	movq   $0x0,0x130(%rsp)
    8458:	00 00 00 00 00 
    845d:	48 c7 44 24 70 00 00 	movq   $0x0,0x70(%rsp)
    8464:	00 00 
    8466:	45 31 f6             	xor    %r14d,%r14d
    8469:	31 ff                	xor    %edi,%edi
    846b:	48 89 bc 24 28 01 00 	mov    %rdi,0x128(%rsp)
    8472:	00 
    8473:	4d 85 ed             	test   %r13,%r13
    8476:	0f 84 e3 01 00 00    	je     865f <main+0x45bf>
    847c:	45 89 ec             	mov    %r13d,%r12d
    847f:	41 83 e4 fe          	and    $0xfffffffe,%r12d
    8483:	c5 fa 10 0d 79 2b 00 	vmovss 0x2b79(%rip),%xmm1        # b004 <_IO_stdin_used+0x4>
    848a:	00 
    848b:	c5 f2 5e c0          	vdivss %xmm0,%xmm1,%xmm0
    848f:	c5 fa 11 84 24 c0 00 	vmovss %xmm0,0xc0(%rsp)
    8496:	00 00 
    8498:	43 8d 44 6d 00       	lea    0x0(%r13,%r13,2),%eax
    849d:	89 44 24 60          	mov    %eax,0x60(%rsp)
    84a1:	31 ed                	xor    %ebp,%ebp
    84a3:	b8 05 00 00 00       	mov    $0x5,%eax
    84a8:	b9 01 00 00 00       	mov    $0x1,%ecx
    84ad:	eb 64                	jmp    8513 <main+0x4473>
    84af:	90                   	nop
    84b0:	62 f1 5e 08 7b c0    	vcvtusi2ss %eax,%xmm4,%xmm0
    84b6:	e8 b5 9c ff ff       	call   2170 <log2f@plt>
    84bb:	c5 fa 5c 84 24 80 00 	vsubss 0x80(%rsp),%xmm0,%xmm0
    84c2:	00 00 
    84c4:	c5 fa 59 05 50 2b 00 	vmulss 0x2b50(%rip),%xmm0,%xmm0        # b01c <_IO_stdin_used+0x1c>
    84cb:	00 
    84cc:	c5 fa 59 84 24 c0 00 	vmulss 0xc0(%rsp),%xmm0,%xmm0
    84d3:	00 00 
    84d5:	c5 fa 2c c0          	vcvttss2si %xmm0,%eax
    84d9:	04 20                	add    $0x20,%al
    84db:	b1 20                	mov    $0x20,%cl
    84dd:	8d 14 5b             	lea    (%rbx,%rbx,2),%edx
    84e0:	41 88 0c 16          	mov    %cl,(%r14,%rdx,1)
    84e4:	8d 14 5b             	lea    (%rbx,%rbx,2),%edx
    84e7:	ff c2                	inc    %edx
    84e9:	41 88 04 16          	mov    %al,(%r14,%rdx,1)
    84ed:	8d 44 5b 02          	lea    0x2(%rbx,%rbx,2),%eax
    84f1:	41 88 0c 06          	mov    %cl,(%r14,%rax,1)
    84f5:	48 8b 1c 24          	mov    (%rsp),%rbx
    84f9:	8b 44 24 18          	mov    0x18(%rsp),%eax
    84fd:	8b 4c 24 50          	mov    0x50(%rsp),%ecx
    8501:	ff c5                	inc    %ebp
    8503:	03 44 24 60          	add    0x60(%rsp),%eax
    8507:	44 01 e9             	add    %r13d,%ecx
    850a:	44 39 ed             	cmp    %r13d,%ebp
    850d:	0f 84 4c 01 00 00    	je     865f <main+0x45bf>
    8513:	41 bf 00 00 00 00    	mov    $0x0,%r15d
    8519:	49 83 fd 01          	cmp    $0x1,%r13
    851d:	89 44 24 18          	mov    %eax,0x18(%rsp)
    8521:	89 4c 24 50          	mov    %ecx,0x50(%rsp)
    8525:	0f 84 06 01 00 00    	je     8631 <main+0x4591>
    852b:	41 89 cd             	mov    %ecx,%r13d
    852e:	89 c3                	mov    %eax,%ebx
    8530:	45 31 ff             	xor    %r15d,%r15d
    8533:	eb 60                	jmp    8595 <main+0x44f5>
    8535:	66 66 2e 0f 1f 84 00 	data16 cs nopw 0x0(%rax,%rax,1)
    853c:	00 00 00 00 
    8540:	62 f1 5e 08 7b c0    	vcvtusi2ss %eax,%xmm4,%xmm0
    8546:	e8 25 9c ff ff       	call   2170 <log2f@plt>
    854b:	c5 fa 5c 84 24 80 00 	vsubss 0x80(%rsp),%xmm0,%xmm0
    8552:	00 00 
    8554:	c5 fa 59 05 c0 2a 00 	vmulss 0x2ac0(%rip),%xmm0,%xmm0        # b01c <_IO_stdin_used+0x1c>
    855b:	00 
    855c:	c5 fa 59 84 24 c0 00 	vmulss 0xc0(%rsp),%xmm0,%xmm0
    8563:	00 00 
    8565:	c5 fa 2c c0          	vcvttss2si %xmm0,%eax
    8569:	04 20                	add    $0x20,%al
    856b:	b1 20                	mov    $0x20,%cl
    856d:	8d 53 fe             	lea    -0x2(%rbx),%edx
    8570:	41 88 0c 16          	mov    %cl,(%r14,%rdx,1)
    8574:	8d 53 ff             	lea    -0x1(%rbx),%edx
    8577:	41 88 04 16          	mov    %al,(%r14,%rdx,1)
    857b:	89 d8                	mov    %ebx,%eax
    857d:	41 88 0c 06          	mov    %cl,(%r14,%rax,1)
    8581:	49 83 c7 02          	add    $0x2,%r15
    8585:	83 c3 06             	add    $0x6,%ebx
    8588:	41 83 c5 02          	add    $0x2,%r13d
    858c:	4d 39 fc             	cmp    %r15,%r12
    858f:	0f 84 8b 00 00 00    	je     8620 <main+0x4580>
    8595:	41 8d 45 ff          	lea    -0x1(%r13),%eax
    8599:	48 8b 4c 24 08       	mov    0x8(%rsp),%rcx
    859e:	8b 04 81             	mov    (%rcx,%rax,4),%eax
    85a1:	3b 44 24 10          	cmp    0x10(%rsp),%eax
    85a5:	73 39                	jae    85e0 <main+0x4540>
    85a7:	62 f1 5e 08 7b c0    	vcvtusi2ss %eax,%xmm4,%xmm0
    85ad:	e8 be 9b ff ff       	call   2170 <log2f@plt>
    85b2:	c5 fa 5c 84 24 80 00 	vsubss 0x80(%rsp),%xmm0,%xmm0
    85b9:	00 00 
    85bb:	c5 fa 59 05 59 2a 00 	vmulss 0x2a59(%rip),%xmm0,%xmm0        # b01c <_IO_stdin_used+0x1c>
    85c2:	00 
    85c3:	c5 fa 59 84 24 c0 00 	vmulss 0xc0(%rsp),%xmm0,%xmm0
    85ca:	00 00 
    85cc:	c5 fa 2c c0          	vcvttss2si %xmm0,%eax
    85d0:	04 20                	add    $0x20,%al
    85d2:	b1 20                	mov    $0x20,%cl
    85d4:	eb 0e                	jmp    85e4 <main+0x4544>
    85d6:	66 2e 0f 1f 84 00 00 	cs nopw 0x0(%rax,%rax,1)
    85dd:	00 00 00 
    85e0:	31 c0                	xor    %eax,%eax
    85e2:	31 c9                	xor    %ecx,%ecx
    85e4:	8d 53 fb             	lea    -0x5(%rbx),%edx
    85e7:	41 88 0c 16          	mov    %cl,(%r14,%rdx,1)
    85eb:	8d 53 fc             	lea    -0x4(%rbx),%edx
    85ee:	41 88 04 16          	mov    %al,(%r14,%rdx,1)
    85f2:	8d 43 fd             	lea    -0x3(%rbx),%eax
    85f5:	41 88 0c 06          	mov    %cl,(%r14,%rax,1)
    85f9:	44 89 e8             	mov    %r13d,%eax
    85fc:	48 8b 4c 24 08       	mov    0x8(%rsp),%rcx
    8601:	8b 04 81             	mov    (%rcx,%rax,4),%eax
    8604:	3b 44 24 10          	cmp    0x10(%rsp),%eax
    8608:	0f 82 32 ff ff ff    	jb     8540 <main+0x44a0>
    860e:	31 c0                	xor    %eax,%eax
    8610:	31 c9                	xor    %ecx,%ecx
    8612:	e9 56 ff ff ff       	jmp    856d <main+0x44cd>
    8617:	66 0f 1f 84 00 00 00 	nopw   0x0(%rax,%rax,1)
    861e:	00 00 
    8620:	48 8b 1c 24          	mov    (%rsp),%rbx
    8624:	4c 8b 6c 24 48       	mov    0x48(%rsp),%r13
    8629:	8b 44 24 18          	mov    0x18(%rsp),%eax
    862d:	8b 4c 24 50          	mov    0x50(%rsp),%ecx
    8631:	41 f6 c5 01          	test   $0x1,%r13b
    8635:	0f 84 c6 fe ff ff    	je     8501 <main+0x4461>
    863b:	89 eb                	mov    %ebp,%ebx
    863d:	41 0f af dd          	imul   %r13d,%ebx
    8641:	44 01 fb             	add    %r15d,%ebx
    8644:	48 8b 44 24 08       	mov    0x8(%rsp),%rax
    8649:	8b 04 98             	mov    (%rax,%rbx,4),%eax
    864c:	3b 44 24 10          	cmp    0x10(%rsp),%eax
    8650:	0f 82 5a fe ff ff    	jb     84b0 <main+0x4410>
    8656:	31 c0                	xor    %eax,%eax
    8658:	31 c9                	xor    %ecx,%ecx
    865a:	e9 7e fe ff ff       	jmp    84dd <main+0x443d>
    865f:	48 8d 3d c6 2f 00 00 	lea    0x2fc6(%rip),%rdi        # b62c <_IO_stdin_used+0x62c>
    8666:	48 8d 94 24 20 01 00 	lea    0x120(%rsp),%rdx
    866d:	00 
    866e:	44 89 ee             	mov    %r13d,%esi
    8671:	e8 0a b0 ff ff       	call   3680 <_Z8writeBMPPKcjRKSt6vectorIhSaIhEE>
    8676:	4d 85 f6             	test   %r14,%r14
    8679:	4c 8b 7c 24 08       	mov    0x8(%rsp),%r15
    867e:	74 10                	je     8690 <main+0x45f0>
    8680:	48 8b 74 24 70       	mov    0x70(%rsp),%rsi
    8685:	4c 29 f6             	sub    %r14,%rsi
    8688:	4c 89 f7             	mov    %r14,%rdi
    868b:	e8 90 9a ff ff       	call   2120 <_ZdlPvm@plt>
    8690:	48 8b 3d 21 49 00 00 	mov    0x4921(%rip),%rdi        # cfb8 <_ZSt4cout@GLIBCXX_3.4>
    8697:	48 8d 35 a3 2e 00 00 	lea    0x2ea3(%rip),%rsi        # b541 <_IO_stdin_used+0x541>
    869e:	ba 3a 00 00 00       	mov    $0x3a,%edx
    86a3:	e8 98 9a ff ff       	call   2140 <_ZSt16__ostream_insertIcSt11char_traitsIcEERSt13basic_ostreamIT_T0_ES6_PKS3_l@plt>
    86a8:	4d 85 ed             	test   %r13,%r13
    86ab:	0f 84 c9 02 00 00    	je     897a <main+0x48da>
    86b1:	49 8d 45 ff          	lea    -0x1(%r13),%rax
    86b5:	44 89 e9             	mov    %r13d,%ecx
    86b8:	83 e1 f0             	and    $0xfffffff0,%ecx
    86bb:	44 89 ea             	mov    %r13d,%edx
    86be:	83 e2 fc             	and    $0xfffffffc,%edx
    86c1:	44 89 ee             	mov    %r13d,%esi
    86c4:	83 e6 03             	and    $0x3,%esi
    86c7:	48 89 d7             	mov    %rdx,%rdi
    86ca:	48 f7 df             	neg    %rdi
    86cd:	48 89 bc 24 80 00 00 	mov    %rdi,0x80(%rsp)
    86d4:	00 
    86d5:	45 31 c0             	xor    %r8d,%r8d
    86d8:	45 31 c9             	xor    %r9d,%r9d
    86db:	45 31 d2             	xor    %r10d,%r10d
    86de:	eb 0f                	jmp    86ef <main+0x464f>
    86e0:	41 ff c1             	inc    %r9d
    86e3:	4d 01 e8             	add    %r13,%r8
    86e6:	45 39 e9             	cmp    %r13d,%r9d
    86e9:	0f 84 80 02 00 00    	je     896f <main+0x48cf>
    86ef:	41 83 fd 03          	cmp    $0x3,%r13d
    86f3:	76 20                	jbe    8715 <main+0x4675>
    86f5:	49 89 c3             	mov    %rax,%r11
    86f8:	49 c1 eb 20          	shr    $0x20,%r11
    86fc:	41 0f 95 c3          	setne  %r11b
    8700:	44 89 eb             	mov    %r13d,%ebx
    8703:	41 0f af d9          	imul   %r9d,%ebx
    8707:	01 c3                	add    %eax,%ebx
    8709:	0f 92 c3             	setb   %bl
    870c:	44 08 db             	or     %r11b,%bl
    870f:	0f 84 0b 01 00 00    	je     8820 <main+0x4780>
    8715:	31 db                	xor    %ebx,%ebx
    8717:	48 85 f6             	test   %rsi,%rsi
    871a:	74 44                	je     8760 <main+0x46c0>
    871c:	49 89 f6             	mov    %rsi,%r14
    871f:	49 89 db             	mov    %rbx,%r11
    8722:	4c 8b 6c 24 08       	mov    0x8(%rsp),%r13
    8727:	48 8b 3c 24          	mov    (%rsp),%rdi
    872b:	0f 1f 44 00 00       	nopl   0x0(%rax,%rax,1)
    8730:	47 8d 3c 18          	lea    (%r8,%r11,1),%r15d
    8734:	43 8b 6c bd 00       	mov    0x0(%r13,%r15,4),%ebp
    8739:	46 8b 3c bf          	mov    (%rdi,%r15,4),%r15d
    873d:	41 89 ec             	mov    %ebp,%r12d
    8740:	45 29 fc             	sub    %r15d,%r12d
    8743:	41 29 ef             	sub    %ebp,%r15d
    8746:	45 0f 4c fc          	cmovl  %r12d,%r15d
    874a:	4d 01 fa             	add    %r15,%r10
    874d:	49 ff c3             	inc    %r11
    8750:	49 ff ce             	dec    %r14
    8753:	75 db                	jne    8730 <main+0x4690>
    8755:	eb 15                	jmp    876c <main+0x46cc>
    8757:	66 0f 1f 84 00 00 00 	nopw   0x0(%rax,%rax,1)
    875e:	00 00 
    8760:	49 89 db             	mov    %rbx,%r11
    8763:	4c 8b 6c 24 08       	mov    0x8(%rsp),%r13
    8768:	48 8b 3c 24          	mov    (%rsp),%rdi
    876c:	4c 8b 74 24 48       	mov    0x48(%rsp),%r14
    8771:	4c 29 f3             	sub    %r14,%rbx
    8774:	48 83 fb fc          	cmp    $0xfffffffffffffffc,%rbx
    8778:	4d 89 ef             	mov    %r13,%r15
    877b:	4d 89 f5             	mov    %r14,%r13
    877e:	0f 87 5c ff ff ff    	ja     86e0 <main+0x4640>
    8784:	66 66 66 2e 0f 1f 84 	data16 data16 cs nopw 0x0(%rax,%rax,1)
    878b:	00 00 00 00 00 
    8790:	43 8d 1c 18          	lea    (%r8,%r11,1),%ebx
    8794:	41 8b 2c 9f          	mov    (%r15,%rbx,4),%ebp
    8798:	8b 1c 9f             	mov    (%rdi,%rbx,4),%ebx
    879b:	41 89 ee             	mov    %ebp,%r14d
    879e:	41 29 de             	sub    %ebx,%r14d
    87a1:	29 eb                	sub    %ebp,%ebx
    87a3:	41 0f 4c de          	cmovl  %r14d,%ebx
    87a7:	4c 01 d3             	add    %r10,%rbx
    87aa:	47 8d 14 18          	lea    (%r8,%r11,1),%r10d
    87ae:	41 ff c2             	inc    %r10d
    87b1:	43 8b 2c 97          	mov    (%r15,%r10,4),%ebp
    87b5:	46 8b 14 97          	mov    (%rdi,%r10,4),%r10d
    87b9:	41 89 ee             	mov    %ebp,%r14d
    87bc:	45 29 d6             	sub    %r10d,%r14d
    87bf:	41 29 ea             	sub    %ebp,%r10d
    87c2:	45 0f 4c d6          	cmovl  %r14d,%r10d
    87c6:	47 8d 74 18 02       	lea    0x2(%r8,%r11,1),%r14d
    87cb:	43 8b 2c b7          	mov    (%r15,%r14,4),%ebp
    87cf:	46 8b 34 b7          	mov    (%rdi,%r14,4),%r14d
    87d3:	41 89 ef             	mov    %ebp,%r15d
    87d6:	45 29 f7             	sub    %r14d,%r15d
    87d9:	41 29 ee             	sub    %ebp,%r14d
    87dc:	45 0f 4c f7          	cmovl  %r15d,%r14d
    87e0:	4c 8b 7c 24 08       	mov    0x8(%rsp),%r15
    87e5:	4d 01 d6             	add    %r10,%r14
    87e8:	49 01 de             	add    %rbx,%r14
    87eb:	47 8d 14 18          	lea    (%r8,%r11,1),%r10d
    87ef:	41 83 c2 03          	add    $0x3,%r10d
    87f3:	43 8b 1c 97          	mov    (%r15,%r10,4),%ebx
    87f7:	46 8b 14 97          	mov    (%rdi,%r10,4),%r10d
    87fb:	89 dd                	mov    %ebx,%ebp
    87fd:	44 29 d5             	sub    %r10d,%ebp
    8800:	41 29 da             	sub    %ebx,%r10d
    8803:	44 0f 4c d5          	cmovl  %ebp,%r10d
    8807:	4d 01 f2             	add    %r14,%r10
    880a:	49 83 c3 04          	add    $0x4,%r11
    880e:	4d 39 dd             	cmp    %r11,%r13
    8811:	0f 85 79 ff ff ff    	jne    8790 <main+0x46f0>
    8817:	e9 c4 fe ff ff       	jmp    86e0 <main+0x4640>
    881c:	0f 1f 40 00          	nopl   0x0(%rax)
    8820:	41 83 fd 10          	cmp    $0x10,%r13d
    8824:	73 0c                	jae    8832 <main+0x4792>
    8826:	45 31 db             	xor    %r11d,%r11d
    8829:	48 8b 3c 24          	mov    (%rsp),%rdi
    882d:	e9 d6 00 00 00       	jmp    8908 <main+0x4868>
    8832:	c4 c1 f9 6e c2       	vmovq  %r10,%xmm0
    8837:	c5 f0 57 c9          	vxorps %xmm1,%xmm1,%xmm1
    883b:	45 89 c2             	mov    %r8d,%r10d
    883e:	49 89 cb             	mov    %rcx,%r11
    8841:	c5 e8 57 d2          	vxorps %xmm2,%xmm2,%xmm2
    8845:	c5 e0 57 db          	vxorps %xmm3,%xmm3,%xmm3
    8849:	48 8b 3c 24          	mov    (%rsp),%rdi
    884d:	0f 1f 00             	nopl   (%rax)
    8850:	44 89 d3             	mov    %r10d,%ebx
    8853:	c4 c1 7a 6f 24 9f    	vmovdqu (%r15,%rbx,4),%xmm4
    8859:	c4 c1 7a 6f 6c 9f 10 	vmovdqu 0x10(%r15,%rbx,4),%xmm5
    8860:	c4 c1 7a 6f 74 9f 20 	vmovdqu 0x20(%r15,%rbx,4),%xmm6
    8867:	c4 c1 7a 6f 7c 9f 30 	vmovdqu 0x30(%r15,%rbx,4),%xmm7
    886e:	c5 d9 fa 24 9f       	vpsubd (%rdi,%rbx,4),%xmm4,%xmm4
    8873:	c5 d1 fa 6c 9f 10    	vpsubd 0x10(%rdi,%rbx,4),%xmm5,%xmm5
    8879:	c5 c9 fa 74 9f 20    	vpsubd 0x20(%rdi,%rbx,4),%xmm6,%xmm6
    887f:	c5 c1 fa 7c 9f 30    	vpsubd 0x30(%rdi,%rbx,4),%xmm7,%xmm7
    8885:	c4 e2 79 1e e4       	vpabsd %xmm4,%xmm4
    888a:	c4 e2 79 1e ed       	vpabsd %xmm5,%xmm5
    888f:	c4 e2 79 1e f6       	vpabsd %xmm6,%xmm6
    8894:	c4 e2 79 1e ff       	vpabsd %xmm7,%xmm7
    8899:	c4 e2 7d 35 e4       	vpmovzxdq %xmm4,%ymm4
    889e:	c5 fd d4 c4          	vpaddq %ymm4,%ymm0,%ymm0
    88a2:	c4 e2 7d 35 e5       	vpmovzxdq %xmm5,%ymm4
    88a7:	c5 f5 d4 cc          	vpaddq %ymm4,%ymm1,%ymm1
    88ab:	c4 e2 7d 35 e6       	vpmovzxdq %xmm6,%ymm4
    88b0:	c5 ed d4 d4          	vpaddq %ymm4,%ymm2,%ymm2
    88b4:	c4 e2 7d 35 e7       	vpmovzxdq %xmm7,%ymm4
    88b9:	c5 e5 d4 dc          	vpaddq %ymm4,%ymm3,%ymm3
    88bd:	41 83 c2 10          	add    $0x10,%r10d
    88c1:	49 83 c3 f0          	add    $0xfffffffffffffff0,%r11
    88c5:	75 89                	jne    8850 <main+0x47b0>
    88c7:	c5 f5 d4 c0          	vpaddq %ymm0,%ymm1,%ymm0
    88cb:	c5 ed d4 c0          	vpaddq %ymm0,%ymm2,%ymm0
    88cf:	c5 e5 d4 c0          	vpaddq %ymm0,%ymm3,%ymm0
    88d3:	c4 e3 7d 39 c1 01    	vextracti128 $0x1,%ymm0,%xmm1
    88d9:	c5 f9 d4 c1          	vpaddq %xmm1,%xmm0,%xmm0
    88dd:	c5 f9 70 c8 ee       	vpshufd $0xee,%xmm0,%xmm1
    88e2:	c5 f9 d4 c1          	vpaddq %xmm1,%xmm0,%xmm0
    88e6:	c4 c1 f9 7e c2       	vmovq  %xmm0,%r10
    88eb:	44 39 e9             	cmp    %r13d,%ecx
    88ee:	0f 84 ec fd ff ff    	je     86e0 <main+0x4640>
    88f4:	48 89 cb             	mov    %rcx,%rbx
    88f7:	49 89 cb             	mov    %rcx,%r11
    88fa:	41 f6 c5 0c          	test   $0xc,%r13b
    88fe:	48 8b 3c 24          	mov    (%rsp),%rdi
    8902:	0f 84 0f fe ff ff    	je     8717 <main+0x4677>
    8908:	c4 c1 f9 6e c2       	vmovq  %r10,%xmm0
    890d:	4c 8b 94 24 80 00 00 	mov    0x80(%rsp),%r10
    8914:	00 
    8915:	4d 01 da             	add    %r11,%r10
    8918:	45 01 c3             	add    %r8d,%r11d
    891b:	0f 1f 44 00 00       	nopl   0x0(%rax,%rax,1)
    8920:	44 89 db             	mov    %r11d,%ebx
    8923:	c4 c1 7a 6f 0c 9f    	vmovdqu (%r15,%rbx,4),%xmm1
    8929:	c5 f1 fa 0c 9f       	vpsubd (%rdi,%rbx,4),%xmm1,%xmm1
    892e:	c4 e2 79 1e c9       	vpabsd %xmm1,%xmm1
    8933:	c4 e2 7d 35 c9       	vpmovzxdq %xmm1,%ymm1
    8938:	c5 fd d4 c1          	vpaddq %ymm1,%ymm0,%ymm0
    893c:	41 83 c3 04          	add    $0x4,%r11d
    8940:	49 83 c2 04          	add    $0x4,%r10
    8944:	75 da                	jne    8920 <main+0x4880>
    8946:	c4 e3 7d 39 c1 01    	vextracti128 $0x1,%ymm0,%xmm1
    894c:	c5 f9 d4 c1          	vpaddq %xmm1,%xmm0,%xmm0
    8950:	c5 f9 70 c8 ee       	vpshufd $0xee,%xmm0,%xmm1
    8955:	c5 f9 d4 c1          	vpaddq %xmm1,%xmm0,%xmm0
    8959:	c4 c1 f9 7e c2       	vmovq  %xmm0,%r10
    895e:	48 89 d3             	mov    %rdx,%rbx
    8961:	44 39 ea             	cmp    %r13d,%edx
    8964:	0f 84 76 fd ff ff    	je     86e0 <main+0x4640>
    896a:	e9 a8 fd ff ff       	jmp    8717 <main+0x4677>
    896f:	c4 c1 bb 2a c2       	vcvtsi2sd %r10,%xmm8,%xmm0
    8974:	48 8b 1c 24          	mov    (%rsp),%rbx
    8978:	eb 04                	jmp    897e <main+0x48de>
    897a:	c5 f9 57 c0          	vxorpd %xmm0,%xmm0,%xmm0
    897e:	8b 44 24 10          	mov    0x10(%rsp),%eax
    8982:	41 0f af c5          	imul   %r13d,%eax
    8986:	41 0f af c5          	imul   %r13d,%eax
    898a:	62 f1 3f 08 7b c8    	vcvtusi2sd %eax,%xmm8,%xmm1
    8990:	c5 fb 5e c1          	vdivsd %xmm1,%xmm0,%xmm0
    8994:	48 8b 3d 1d 46 00 00 	mov    0x461d(%rip),%rdi        # cfb8 <_ZSt4cout@GLIBCXX_3.4>
    899b:	c5 f8 77             	vzeroupper
    899e:	e8 2d 98 ff ff       	call   21d0 <_ZNSo9_M_insertIdEERSoT_@plt>
    89a3:	49 89 c6             	mov    %rax,%r14
    89a6:	48 8b 00             	mov    (%rax),%rax
    89a9:	48 8b 40 e8          	mov    -0x18(%rax),%rax
    89ad:	4d 8b a4 06 f0 00 00 	mov    0xf0(%r14,%rax,1),%r12
    89b4:	00 
    89b5:	4d 85 e4             	test   %r12,%r12
    89b8:	0f 84 a0 0e 00 00    	je     985e <main+0x57be>
    89be:	41 80 7c 24 38 00    	cmpb   $0x0,0x38(%r12)
    89c4:	74 08                	je     89ce <main+0x492e>
    89c6:	41 0f b6 44 24 43    	movzbl 0x43(%r12),%eax
    89cc:	eb 17                	jmp    89e5 <main+0x4945>
    89ce:	4c 89 e7             	mov    %r12,%rdi
    89d1:	e8 7a 97 ff ff       	call   2150 <_ZNKSt5ctypeIcE13_M_widen_initEv@plt>
    89d6:	49 8b 04 24          	mov    (%r12),%rax
    89da:	4c 89 e7             	mov    %r12,%rdi
    89dd:	be 0a 00 00 00       	mov    $0xa,%esi
    89e2:	ff 50 30             	call   *0x30(%rax)
    89e5:	0f be f0             	movsbl %al,%esi
    89e8:	4c 89 f7             	mov    %r14,%rdi
    89eb:	e8 40 96 ff ff       	call   2030 <_ZNSo3putEc@plt>
    89f0:	48 89 c7             	mov    %rax,%rdi
    89f3:	e8 c8 96 ff ff       	call   20c0 <_ZNSo5flushEv@plt>
    89f8:	8b 44 24 40          	mov    0x40(%rsp),%eax
    89fc:	83 c0 fb             	add    $0xfffffffb,%eax
    89ff:	83 f8 01             	cmp    $0x1,%eax
    8a02:	0f 87 10 0e 00 00    	ja     9818 <main+0x5778>
    8a08:	8b 5c 24 5c          	mov    0x5c(%rsp),%ebx
    8a0c:	48 89 da             	mov    %rbx,%rdx
    8a0f:	48 0f af d3          	imul   %rbx,%rdx
    8a13:	48 c1 e2 02          	shl    $0x2,%rdx
    8a17:	4c 89 ff             	mov    %r15,%rdi
    8a1a:	31 f6                	xor    %esi,%esi
    8a1c:	e8 7f 96 ff ff       	call   20a0 <memset@plt>
    8a21:	48 8b 05 90 45 00 00 	mov    0x4590(%rip),%rax        # cfb8 <_ZSt4cout@GLIBCXX_3.4>
    8a28:	48 8b 08             	mov    (%rax),%rcx
    8a2b:	48 8b 49 e8          	mov    -0x18(%rcx),%rcx
    8a2f:	4c 8b b4 08 f0 00 00 	mov    0xf0(%rax,%rcx,1),%r14
    8a36:	00 
    8a37:	4d 85 f6             	test   %r14,%r14
    8a3a:	0f 84 1e 0e 00 00    	je     985e <main+0x57be>
    8a40:	41 80 7e 38 00       	cmpb   $0x0,0x38(%r14)
    8a45:	74 07                	je     8a4e <main+0x49ae>
    8a47:	41 0f b6 46 43       	movzbl 0x43(%r14),%eax
    8a4c:	eb 16                	jmp    8a64 <main+0x49c4>
    8a4e:	4c 89 f7             	mov    %r14,%rdi
    8a51:	e8 fa 96 ff ff       	call   2150 <_ZNKSt5ctypeIcE13_M_widen_initEv@plt>
    8a56:	49 8b 06             	mov    (%r14),%rax
    8a59:	4c 89 f7             	mov    %r14,%rdi
    8a5c:	be 0a 00 00 00       	mov    $0xa,%esi
    8a61:	ff 50 30             	call   *0x30(%rax)
    8a64:	0f be f0             	movsbl %al,%esi
    8a67:	48 8b 3d 4a 45 00 00 	mov    0x454a(%rip),%rdi        # cfb8 <_ZSt4cout@GLIBCXX_3.4>
    8a6e:	e8 bd 95 ff ff       	call   2030 <_ZNSo3putEc@plt>
    8a73:	48 89 c7             	mov    %rax,%rdi
    8a76:	e8 45 96 ff ff       	call   20c0 <_ZNSo5flushEv@plt>
    8a7b:	49 89 c6             	mov    %rax,%r14
    8a7e:	48 8d 35 35 2a 00 00 	lea    0x2a35(%rip),%rsi        # b4ba <_IO_stdin_used+0x4ba>
    8a85:	ba 08 00 00 00       	mov    $0x8,%edx
    8a8a:	48 89 c7             	mov    %rax,%rdi
    8a8d:	e8 ae 96 ff ff       	call   2140 <_ZSt16__ostream_insertIcSt11char_traitsIcEERSt13basic_ostreamIT_T0_ES6_PKS3_l@plt>
    8a92:	48 8d 35 c7 2b 00 00 	lea    0x2bc7(%rip),%rsi        # b660 <_IO_stdin_used+0x660>
    8a99:	ba 2f 00 00 00       	mov    $0x2f,%edx
    8a9e:	4c 89 f7             	mov    %r14,%rdi
    8aa1:	e8 9a 96 ff ff       	call   2140 <_ZSt16__ostream_insertIcSt11char_traitsIcEERSt13basic_ostreamIT_T0_ES6_PKS3_l@plt>
    8aa6:	48 8d 35 2c 2a 00 00 	lea    0x2a2c(%rip),%rsi        # b4d9 <_IO_stdin_used+0x4d9>
    8aad:	ba 05 00 00 00       	mov    $0x5,%edx
    8ab2:	4c 89 f7             	mov    %r14,%rdi
    8ab5:	e8 86 96 ff ff       	call   2140 <_ZSt16__ostream_insertIcSt11char_traitsIcEERSt13basic_ostreamIT_T0_ES6_PKS3_l@plt>
    8aba:	bf 50 00 00 00       	mov    $0x50,%edi
    8abf:	e8 4c 96 ff ff       	call   2110 <_Znwm@plt>
    8ac4:	49 89 c6             	mov    %rax,%r14
    8ac7:	c5 f8 57 c0          	vxorps %xmm0,%xmm0,%xmm0
    8acb:	c5 fc 11 40 30       	vmovups %ymm0,0x30(%rax)
    8ad0:	c5 fc 11 40 20       	vmovups %ymm0,0x20(%rax)
    8ad5:	c5 fc 11 00          	vmovups %ymm0,(%rax)
    8ad9:	c5 f8 77             	vzeroupper
    8adc:	e8 5f 95 ff ff       	call   2040 <_ZNSt6chrono3_V212system_clock3nowEv@plt>
    8ae1:	49 89 c4             	mov    %rax,%r12
    8ae4:	e8 57 95 ff ff       	call   2040 <_ZNSt6chrono3_V212system_clock3nowEv@plt>
    8ae9:	4c 29 e0             	sub    %r12,%rax
    8aec:	62 f1 9f 08 7b c0    	vcvtusi2sd %rax,%xmm12,%xmm0
    8af2:	c4 c1 7b 11 06       	vmovsd %xmm0,(%r14)
    8af7:	e8 44 95 ff ff       	call   2040 <_ZNSt6chrono3_V212system_clock3nowEv@plt>
    8afc:	49 89 c4             	mov    %rax,%r12
    8aff:	e8 3c 95 ff ff       	call   2040 <_ZNSt6chrono3_V212system_clock3nowEv@plt>
    8b04:	4c 29 e0             	sub    %r12,%rax
    8b07:	62 f1 9f 08 7b c0    	vcvtusi2sd %rax,%xmm12,%xmm0
    8b0d:	c4 c1 7b 11 46 08    	vmovsd %xmm0,0x8(%r14)
    8b13:	e8 28 95 ff ff       	call   2040 <_ZNSt6chrono3_V212system_clock3nowEv@plt>
    8b18:	49 89 c4             	mov    %rax,%r12
    8b1b:	e8 20 95 ff ff       	call   2040 <_ZNSt6chrono3_V212system_clock3nowEv@plt>
    8b20:	4c 29 e0             	sub    %r12,%rax
    8b23:	62 f1 9f 08 7b c0    	vcvtusi2sd %rax,%xmm12,%xmm0
    8b29:	c4 c1 7b 11 46 10    	vmovsd %xmm0,0x10(%r14)
    8b2f:	e8 0c 95 ff ff       	call   2040 <_ZNSt6chrono3_V212system_clock3nowEv@plt>
    8b34:	49 89 c4             	mov    %rax,%r12
    8b37:	e8 04 95 ff ff       	call   2040 <_ZNSt6chrono3_V212system_clock3nowEv@plt>
    8b3c:	4c 29 e0             	sub    %r12,%rax
    8b3f:	62 f1 9f 08 7b c0    	vcvtusi2sd %rax,%xmm12,%xmm0
    8b45:	c4 c1 7b 11 46 18    	vmovsd %xmm0,0x18(%r14)
    8b4b:	e8 f0 94 ff ff       	call   2040 <_ZNSt6chrono3_V212system_clock3nowEv@plt>
    8b50:	49 89 c4             	mov    %rax,%r12
    8b53:	e8 e8 94 ff ff       	call   2040 <_ZNSt6chrono3_V212system_clock3nowEv@plt>
    8b58:	4c 29 e0             	sub    %r12,%rax
    8b5b:	62 f1 cf 08 7b c0    	vcvtusi2sd %rax,%xmm6,%xmm0
    8b61:	c4 c1 7b 11 46 20    	vmovsd %xmm0,0x20(%r14)
    8b67:	e8 d4 94 ff ff       	call   2040 <_ZNSt6chrono3_V212system_clock3nowEv@plt>
    8b6c:	49 89 c4             	mov    %rax,%r12
    8b6f:	e8 cc 94 ff ff       	call   2040 <_ZNSt6chrono3_V212system_clock3nowEv@plt>
    8b74:	4c 29 e0             	sub    %r12,%rax
    8b77:	62 f1 ef 08 7b c0    	vcvtusi2sd %rax,%xmm2,%xmm0
    8b7d:	c4 c1 7b 11 46 28    	vmovsd %xmm0,0x28(%r14)
    8b83:	e8 b8 94 ff ff       	call   2040 <_ZNSt6chrono3_V212system_clock3nowEv@plt>
    8b88:	49 89 c4             	mov    %rax,%r12
    8b8b:	e8 b0 94 ff ff       	call   2040 <_ZNSt6chrono3_V212system_clock3nowEv@plt>
    8b90:	4c 29 e0             	sub    %r12,%rax
    8b93:	62 f1 ef 08 7b c0    	vcvtusi2sd %rax,%xmm2,%xmm0
    8b99:	c4 c1 7b 11 46 30    	vmovsd %xmm0,0x30(%r14)
    8b9f:	e8 9c 94 ff ff       	call   2040 <_ZNSt6chrono3_V212system_clock3nowEv@plt>
    8ba4:	49 89 c4             	mov    %rax,%r12
    8ba7:	e8 94 94 ff ff       	call   2040 <_ZNSt6chrono3_V212system_clock3nowEv@plt>
    8bac:	4c 29 e0             	sub    %r12,%rax
    8baf:	62 f1 f7 08 7b c0    	vcvtusi2sd %rax,%xmm1,%xmm0
    8bb5:	c4 c1 7b 11 46 38    	vmovsd %xmm0,0x38(%r14)
    8bbb:	e8 80 94 ff ff       	call   2040 <_ZNSt6chrono3_V212system_clock3nowEv@plt>
    8bc0:	49 89 c4             	mov    %rax,%r12
    8bc3:	e8 78 94 ff ff       	call   2040 <_ZNSt6chrono3_V212system_clock3nowEv@plt>
    8bc8:	4c 29 e0             	sub    %r12,%rax
    8bcb:	62 f1 f7 08 7b c0    	vcvtusi2sd %rax,%xmm1,%xmm0
    8bd1:	c4 c1 7b 11 46 40    	vmovsd %xmm0,0x40(%r14)
    8bd7:	e8 64 94 ff ff       	call   2040 <_ZNSt6chrono3_V212system_clock3nowEv@plt>
    8bdc:	49 89 c4             	mov    %rax,%r12
    8bdf:	e8 5c 94 ff ff       	call   2040 <_ZNSt6chrono3_V212system_clock3nowEv@plt>
    8be4:	4c 29 e0             	sub    %r12,%rax
    8be7:	62 f1 f7 08 7b c0    	vcvtusi2sd %rax,%xmm1,%xmm0
    8bed:	c4 c1 7b 11 46 48    	vmovsd %xmm0,0x48(%r14)
    8bf3:	4d 89 f4             	mov    %r14,%r12
    8bf6:	49 83 c4 50          	add    $0x50,%r12
    8bfa:	ba 06 00 00 00       	mov    $0x6,%edx
    8bff:	4c 89 f7             	mov    %r14,%rdi
    8c02:	4c 89 e6             	mov    %r12,%rsi
    8c05:	e8 e6 0e 00 00       	call   9af0 <_ZSt16__introsort_loopIN9__gnu_cxx17__normal_iteratorIPdSt6vectorIdSaIdEEEElNS0_5__ops15_Iter_less_iterEEvT_S9_T0_T1_>
    8c0a:	4c 89 f7             	mov    %r14,%rdi
    8c0d:	4c 89 e6             	mov    %r12,%rsi
    8c10:	e8 7b 11 00 00       	call   9d90 <_ZSt22__final_insertion_sortIN9__gnu_cxx17__normal_iteratorIPdSt6vectorIdSaIdEEEENS0_5__ops15_Iter_less_iterEEvT_S9_T0_>
    8c15:	48 8d bc 24 20 01 00 	lea    0x120(%rsp),%rdi
    8c1c:	00 
    8c1d:	e8 ae 94 ff ff       	call   20d0 <_ZNSt7__cxx1118basic_stringstreamIcSt11char_traitsIcESaIcEEC1Ev@plt>
    8c22:	48 89 5c 24 18       	mov    %rbx,0x18(%rsp)
    8c27:	48 8d bc 24 30 01 00 	lea    0x130(%rsp),%rdi
    8c2e:	00 
    8c2f:	48 8b 84 24 30 01 00 	mov    0x130(%rsp),%rax
    8c36:	00 
    8c37:	48 8b 48 e8          	mov    -0x18(%rax),%rcx
    8c3b:	ba fb fe ff ff       	mov    $0xfffffefb,%edx
    8c40:	23 94 0c 48 01 00 00 	and    0x148(%rsp,%rcx,1),%edx
    8c47:	83 ca 04             	or     $0x4,%edx
    8c4a:	89 94 0c 48 01 00 00 	mov    %edx,0x148(%rsp,%rcx,1)
    8c51:	48 8b 48 e8          	mov    -0x18(%rax),%rcx
    8c55:	48 c7 84 0c 40 01 00 	movq   $0x6,0x140(%rsp,%rcx,1)
    8c5c:	00 06 00 00 00 
    8c61:	48 8b 40 e8          	mov    -0x18(%rax),%rax
    8c65:	48 c7 84 04 38 01 00 	movq   $0x2,0x138(%rsp,%rax,1)
    8c6c:	00 02 00 00 00 
    8c71:	c4 c1 7b 10 06       	vmovsd (%r14),%xmm0
    8c76:	c5 fb 59 05 42 27 00 	vmulsd 0x2742(%rip),%xmm0,%xmm0        # b3c0 <_IO_stdin_used+0x3c0>
    8c7d:	00 
    8c7e:	e8 4d 95 ff ff       	call   21d0 <_ZNSo9_M_insertIdEERSoT_@plt>
    8c83:	48 8b 3d 2e 43 00 00 	mov    0x432e(%rip),%rdi        # cfb8 <_ZSt4cout@GLIBCXX_3.4>
    8c8a:	48 8d 35 4e 28 00 00 	lea    0x284e(%rip),%rsi        # b4df <_IO_stdin_used+0x4df>
    8c91:	ba 0b 00 00 00       	mov    $0xb,%edx
    8c96:	e8 a5 94 ff ff       	call   2140 <_ZSt16__ostream_insertIcSt11char_traitsIcEERSt13basic_ostreamIT_T0_ES6_PKS3_l@plt>
    8c9b:	4c 8d 6c 24 30       	lea    0x30(%rsp),%r13
    8ca0:	4c 89 6c 24 20       	mov    %r13,0x20(%rsp)
    8ca5:	48 c7 44 24 28 00 00 	movq   $0x0,0x28(%rsp)
    8cac:	00 00 
    8cae:	c6 44 24 30 00       	movb   $0x0,0x30(%rsp)
    8cb3:	4c 8b 84 24 50 01 00 	mov    0x150(%rsp),%r8
    8cba:	00 
    8cbb:	48 8b 84 24 60 01 00 	mov    0x160(%rsp),%rax
    8cc2:	00 
    8cc3:	48 85 c0             	test   %rax,%rax
    8cc6:	0f 94 c1             	sete   %cl
    8cc9:	4c 39 c0             	cmp    %r8,%rax
    8ccc:	4c 0f 47 c0          	cmova  %rax,%r8
    8cd0:	4d 85 c0             	test   %r8,%r8
    8cd3:	0f 94 c0             	sete   %al
    8cd6:	08 c8                	or     %cl,%al
    8cd8:	74 14                	je     8cee <main+0x4c4e>
    8cda:	48 8d b4 24 80 01 00 	lea    0x180(%rsp),%rsi
    8ce1:	00 
    8ce2:	48 8d 7c 24 20       	lea    0x20(%rsp),%rdi
    8ce7:	e8 b4 17 00 00       	call   a4a0 <_ZNSt7__cxx1112basic_stringIcSt11char_traitsIcESaIcEE9_M_assignERKS4_>
    8cec:	eb 19                	jmp    8d07 <main+0x4c67>
    8cee:	48 8b 8c 24 58 01 00 	mov    0x158(%rsp),%rcx
    8cf5:	00 
    8cf6:	49 29 c8             	sub    %rcx,%r8
    8cf9:	48 8d 7c 24 20       	lea    0x20(%rsp),%rdi
    8cfe:	31 f6                	xor    %esi,%esi
    8d00:	31 d2                	xor    %edx,%edx
    8d02:	e8 c9 14 00 00       	call   a1d0 <_ZNSt7__cxx1112basic_stringIcSt11char_traitsIcESaIcEE10_M_replaceEmmPKcm>
    8d07:	48 8b 74 24 20       	mov    0x20(%rsp),%rsi
    8d0c:	48 8b 54 24 28       	mov    0x28(%rsp),%rdx
    8d11:	48 8b 3d a0 42 00 00 	mov    0x42a0(%rip),%rdi        # cfb8 <_ZSt4cout@GLIBCXX_3.4>
    8d18:	e8 23 94 ff ff       	call   2140 <_ZSt16__ostream_insertIcSt11char_traitsIcEERSt13basic_ostreamIT_T0_ES6_PKS3_l@plt>
    8d1d:	49 89 c4             	mov    %rax,%r12
    8d20:	48 8d 35 c4 27 00 00 	lea    0x27c4(%rip),%rsi        # b4eb <_IO_stdin_used+0x4eb>
    8d27:	ba 03 00 00 00       	mov    $0x3,%edx
    8d2c:	48 89 c7             	mov    %rax,%rdi
    8d2f:	e8 0c 94 ff ff       	call   2140 <_ZSt16__ostream_insertIcSt11char_traitsIcEERSt13basic_ostreamIT_T0_ES6_PKS3_l@plt>
    8d34:	49 8b 04 24          	mov    (%r12),%rax
    8d38:	48 8b 40 e8          	mov    -0x18(%rax),%rax
    8d3c:	49 8b ac 04 f0 00 00 	mov    0xf0(%r12,%rax,1),%rbp
    8d43:	00 
    8d44:	48 85 ed             	test   %rbp,%rbp
    8d47:	0f 84 2f 0b 00 00    	je     987c <main+0x57dc>
    8d4d:	80 7d 38 00          	cmpb   $0x0,0x38(%rbp)
    8d51:	74 06                	je     8d59 <main+0x4cb9>
    8d53:	0f b6 45 43          	movzbl 0x43(%rbp),%eax
    8d57:	eb 17                	jmp    8d70 <main+0x4cd0>
    8d59:	48 89 ef             	mov    %rbp,%rdi
    8d5c:	e8 ef 93 ff ff       	call   2150 <_ZNKSt5ctypeIcE13_M_widen_initEv@plt>
    8d61:	48 8b 45 00          	mov    0x0(%rbp),%rax
    8d65:	48 89 ef             	mov    %rbp,%rdi
    8d68:	be 0a 00 00 00       	mov    $0xa,%esi
    8d6d:	ff 50 30             	call   *0x30(%rax)
    8d70:	0f be f0             	movsbl %al,%esi
    8d73:	4c 89 e7             	mov    %r12,%rdi
    8d76:	e8 b5 92 ff ff       	call   2030 <_ZNSo3putEc@plt>
    8d7b:	48 89 c7             	mov    %rax,%rdi
    8d7e:	e8 3d 93 ff ff       	call   20c0 <_ZNSo5flushEv@plt>
    8d83:	48 8b 7c 24 20       	mov    0x20(%rsp),%rdi
    8d88:	4c 39 ef             	cmp    %r13,%rdi
    8d8b:	74 0d                	je     8d9a <main+0x4cfa>
    8d8d:	48 8b 74 24 30       	mov    0x30(%rsp),%rsi
    8d92:	48 ff c6             	inc    %rsi
    8d95:	e8 86 93 ff ff       	call   2120 <_ZdlPvm@plt>
    8d9a:	48 8b 1d f7 41 00 00 	mov    0x41f7(%rip),%rbx        # cf98 <_ZTTNSt7__cxx1118basic_stringstreamIcSt11char_traitsIcESaIcEEE@GLIBCXX_3.4.21>
    8da1:	48 8b 03             	mov    (%rbx),%rax
    8da4:	48 8b 4b 40          	mov    0x40(%rbx),%rcx
    8da8:	48 89 84 24 20 01 00 	mov    %rax,0x120(%rsp)
    8daf:	00 
    8db0:	48 8b 40 e8          	mov    -0x18(%rax),%rax
    8db4:	48 89 8c 04 20 01 00 	mov    %rcx,0x120(%rsp,%rax,1)
    8dbb:	00 
    8dbc:	48 8b 43 48          	mov    0x48(%rbx),%rax
    8dc0:	48 89 84 24 30 01 00 	mov    %rax,0x130(%rsp)
    8dc7:	00 
    8dc8:	48 8b 05 11 42 00 00 	mov    0x4211(%rip),%rax        # cfe0 <_ZTVNSt7__cxx1115basic_stringbufIcSt11char_traitsIcESaIcEEE@GLIBCXX_3.4.21>
    8dcf:	48 83 c0 10          	add    $0x10,%rax
    8dd3:	48 89 84 24 38 01 00 	mov    %rax,0x138(%rsp)
    8dda:	00 
    8ddb:	48 8b bc 24 80 01 00 	mov    0x180(%rsp),%rdi
    8de2:	00 
    8de3:	48 8d 84 24 90 01 00 	lea    0x190(%rsp),%rax
    8dea:	00 
    8deb:	48 39 c7             	cmp    %rax,%rdi
    8dee:	4c 8b 64 24 18       	mov    0x18(%rsp),%r12
    8df3:	74 10                	je     8e05 <main+0x4d65>
    8df5:	48 8b b4 24 90 01 00 	mov    0x190(%rsp),%rsi
    8dfc:	00 
    8dfd:	48 ff c6             	inc    %rsi
    8e00:	e8 1b 93 ff ff       	call   2120 <_ZdlPvm@plt>
    8e05:	48 8b 05 9c 41 00 00 	mov    0x419c(%rip),%rax        # cfa8 <_ZTVSt15basic_streambufIcSt11char_traitsIcEE@GLIBCXX_3.4>
    8e0c:	48 83 c0 10          	add    $0x10,%rax
    8e10:	48 89 84 24 38 01 00 	mov    %rax,0x138(%rsp)
    8e17:	00 
    8e18:	48 8d bc 24 70 01 00 	lea    0x170(%rsp),%rdi
    8e1f:	00 
    8e20:	e8 8b 93 ff ff       	call   21b0 <_ZNSt6localeD1Ev@plt>
    8e25:	48 8b 43 10          	mov    0x10(%rbx),%rax
    8e29:	48 8b 4b 18          	mov    0x18(%rbx),%rcx
    8e2d:	48 89 84 24 20 01 00 	mov    %rax,0x120(%rsp)
    8e34:	00 
    8e35:	48 8b 40 e8          	mov    -0x18(%rax),%rax
    8e39:	48 89 8c 04 20 01 00 	mov    %rcx,0x120(%rsp,%rax,1)
    8e40:	00 
    8e41:	48 c7 84 24 28 01 00 	movq   $0x0,0x128(%rsp)
    8e48:	00 00 00 00 00 
    8e4d:	48 8d bc 24 a0 01 00 	lea    0x1a0(%rsp),%rdi
    8e54:	00 
    8e55:	e8 f6 91 ff ff       	call   2050 <_ZNSt8ios_baseD2Ev@plt>
    8e5a:	be 50 00 00 00       	mov    $0x50,%esi
    8e5f:	4c 89 f7             	mov    %r14,%rdi
    8e62:	e8 b9 92 ff ff       	call   2120 <_ZdlPvm@plt>
    8e67:	44 8b 4c 24 6c       	mov    0x6c(%rsp),%r9d
    8e6c:	44 89 4c 24 10       	mov    %r9d,0x10(%rsp)
    8e71:	4d 85 e4             	test   %r12,%r12
    8e74:	48 8b 1c 24          	mov    (%rsp),%rbx
    8e78:	0f 84 2f 03 00 00    	je     91ad <main+0x510d>
    8e7e:	49 8d 44 24 ff       	lea    -0x1(%r12),%rax
    8e83:	44 89 e1             	mov    %r12d,%ecx
    8e86:	83 e1 e0             	and    $0xffffffe0,%ecx
    8e89:	44 89 e2             	mov    %r12d,%edx
    8e8c:	83 e2 fc             	and    $0xfffffffc,%edx
    8e8f:	48 89 d6             	mov    %rdx,%rsi
    8e92:	48 f7 de             	neg    %rsi
    8e95:	31 ff                	xor    %edi,%edi
    8e97:	45 31 c0             	xor    %r8d,%r8d
    8e9a:	44 8b 4c 24 10       	mov    0x10(%rsp),%r9d
    8e9f:	eb 1e                	jmp    8ebf <main+0x4e1f>
    8ea1:	66 66 66 66 66 66 2e 	data16 data16 data16 data16 data16 cs nopw 0x0(%rax,%rax,1)
    8ea8:	0f 1f 84 00 00 00 00 
    8eaf:	00 
    8eb0:	41 ff c0             	inc    %r8d
    8eb3:	4c 01 e7             	add    %r12,%rdi
    8eb6:	45 39 e0             	cmp    %r12d,%r8d
    8eb9:	0f 84 ee 02 00 00    	je     91ad <main+0x510d>
    8ebf:	41 83 fc 03          	cmp    $0x3,%r12d
    8ec3:	76 22                	jbe    8ee7 <main+0x4e47>
    8ec5:	49 89 c2             	mov    %rax,%r10
    8ec8:	49 c1 ea 20          	shr    $0x20,%r10
    8ecc:	41 0f 95 c2          	setne  %r10b
    8ed0:	45 89 e3             	mov    %r12d,%r11d
    8ed3:	45 0f af d8          	imul   %r8d,%r11d
    8ed7:	41 01 c3             	add    %eax,%r11d
    8eda:	41 0f 92 c3          	setb   %r11b
    8ede:	45 08 d3             	or     %r10b,%r11b
    8ee1:	0f 84 c9 01 00 00    	je     90b0 <main+0x5010>
    8ee7:	45 31 db             	xor    %r11d,%r11d
    8eea:	44 89 e3             	mov    %r12d,%ebx
    8eed:	44 29 db             	sub    %r11d,%ebx
    8ef0:	4d 89 da             	mov    %r11,%r10
    8ef3:	83 e3 07             	and    $0x7,%ebx
    8ef6:	74 1f                	je     8f17 <main+0x4e77>
    8ef8:	0f 1f 84 00 00 00 00 	nopl   0x0(%rax,%rax,1)
    8eff:	00 
    8f00:	46 8d 34 17          	lea    (%rdi,%r10,1),%r14d
    8f04:	43 8b 2c b7          	mov    (%r15,%r14,4),%ebp
    8f08:	44 39 cd             	cmp    %r9d,%ebp
    8f0b:	44 0f 42 cd          	cmovb  %ebp,%r9d
    8f0f:	49 ff c2             	inc    %r10
    8f12:	48 ff cb             	dec    %rbx
    8f15:	75 e9                	jne    8f00 <main+0x4e60>
    8f17:	4d 29 e3             	sub    %r12,%r11
    8f1a:	49 83 fb f8          	cmp    $0xfffffffffffffff8,%r11
    8f1e:	48 8b 1c 24          	mov    (%rsp),%rbx
    8f22:	76 19                	jbe    8f3d <main+0x4e9d>
    8f24:	eb 8a                	jmp    8eb0 <main+0x4e10>
    8f26:	66 2e 0f 1f 84 00 00 	cs nopw 0x0(%rax,%rax,1)
    8f2d:	00 00 00 
    8f30:	49 83 c2 08          	add    $0x8,%r10
    8f34:	4d 39 d4             	cmp    %r10,%r12
    8f37:	0f 84 73 ff ff ff    	je     8eb0 <main+0x4e10>
    8f3d:	46 8d 1c 17          	lea    (%rdi,%r10,1),%r11d
    8f41:	47 8b 1c 9f          	mov    (%r15,%r11,4),%r11d
    8f45:	45 39 cb             	cmp    %r9d,%r11d
    8f48:	0f 82 b2 00 00 00    	jb     9000 <main+0x4f60>
    8f4e:	45 89 cb             	mov    %r9d,%r11d
    8f51:	46 8d 0c 17          	lea    (%rdi,%r10,1),%r9d
    8f55:	41 ff c1             	inc    %r9d
    8f58:	47 8b 0c 8f          	mov    (%r15,%r9,4),%r9d
    8f5c:	45 39 d9             	cmp    %r11d,%r9d
    8f5f:	0f 83 af 00 00 00    	jae    9014 <main+0x4f74>
    8f65:	46 8d 1c 17          	lea    (%rdi,%r10,1),%r11d
    8f69:	41 83 c3 02          	add    $0x2,%r11d
    8f6d:	47 8b 1c 9f          	mov    (%r15,%r11,4),%r11d
    8f71:	45 39 cb             	cmp    %r9d,%r11d
    8f74:	0f 82 b2 00 00 00    	jb     902c <main+0x4f8c>
    8f7a:	45 89 cb             	mov    %r9d,%r11d
    8f7d:	46 8d 0c 17          	lea    (%rdi,%r10,1),%r9d
    8f81:	41 83 c1 03          	add    $0x3,%r9d
    8f85:	47 8b 0c 8f          	mov    (%r15,%r9,4),%r9d
    8f89:	45 39 d9             	cmp    %r11d,%r9d
    8f8c:	0f 83 af 00 00 00    	jae    9041 <main+0x4fa1>
    8f92:	46 8d 1c 17          	lea    (%rdi,%r10,1),%r11d
    8f96:	41 83 c3 04          	add    $0x4,%r11d
    8f9a:	47 8b 1c 9f          	mov    (%r15,%r11,4),%r11d
    8f9e:	45 39 cb             	cmp    %r9d,%r11d
    8fa1:	0f 82 b2 00 00 00    	jb     9059 <main+0x4fb9>
    8fa7:	45 89 cb             	mov    %r9d,%r11d
    8faa:	46 8d 0c 17          	lea    (%rdi,%r10,1),%r9d
    8fae:	41 83 c1 05          	add    $0x5,%r9d
    8fb2:	47 8b 0c 8f          	mov    (%r15,%r9,4),%r9d
    8fb6:	45 39 d9             	cmp    %r11d,%r9d
    8fb9:	0f 83 af 00 00 00    	jae    906e <main+0x4fce>
    8fbf:	46 8d 1c 17          	lea    (%rdi,%r10,1),%r11d
    8fc3:	41 83 c3 06          	add    $0x6,%r11d
    8fc7:	47 8b 1c 9f          	mov    (%r15,%r11,4),%r11d
    8fcb:	45 39 cb             	cmp    %r9d,%r11d
    8fce:	0f 82 b2 00 00 00    	jb     9086 <main+0x4fe6>
    8fd4:	45 89 cb             	mov    %r9d,%r11d
    8fd7:	46 8d 0c 17          	lea    (%rdi,%r10,1),%r9d
    8fdb:	41 83 c1 07          	add    $0x7,%r9d
    8fdf:	47 8b 0c 8f          	mov    (%r15,%r9,4),%r9d
    8fe3:	45 39 d9             	cmp    %r11d,%r9d
    8fe6:	0f 82 44 ff ff ff    	jb     8f30 <main+0x4e90>
    8fec:	e9 aa 00 00 00       	jmp    909b <main+0x4ffb>
    8ff1:	66 66 66 66 66 66 2e 	data16 data16 data16 data16 data16 cs nopw 0x0(%rax,%rax,1)
    8ff8:	0f 1f 84 00 00 00 00 
    8fff:	00 
    9000:	46 8d 0c 17          	lea    (%rdi,%r10,1),%r9d
    9004:	41 ff c1             	inc    %r9d
    9007:	47 8b 0c 8f          	mov    (%r15,%r9,4),%r9d
    900b:	45 39 d9             	cmp    %r11d,%r9d
    900e:	0f 82 51 ff ff ff    	jb     8f65 <main+0x4ec5>
    9014:	45 89 d9             	mov    %r11d,%r9d
    9017:	46 8d 1c 17          	lea    (%rdi,%r10,1),%r11d
    901b:	41 83 c3 02          	add    $0x2,%r11d
    901f:	47 8b 1c 9f          	mov    (%r15,%r11,4),%r11d
    9023:	45 39 cb             	cmp    %r9d,%r11d
    9026:	0f 83 4e ff ff ff    	jae    8f7a <main+0x4eda>
    902c:	46 8d 0c 17          	lea    (%rdi,%r10,1),%r9d
    9030:	41 83 c1 03          	add    $0x3,%r9d
    9034:	47 8b 0c 8f          	mov    (%r15,%r9,4),%r9d
    9038:	45 39 d9             	cmp    %r11d,%r9d
    903b:	0f 82 51 ff ff ff    	jb     8f92 <main+0x4ef2>
    9041:	45 89 d9             	mov    %r11d,%r9d
    9044:	46 8d 1c 17          	lea    (%rdi,%r10,1),%r11d
    9048:	41 83 c3 04          	add    $0x4,%r11d
    904c:	47 8b 1c 9f          	mov    (%r15,%r11,4),%r11d
    9050:	45 39 cb             	cmp    %r9d,%r11d
    9053:	0f 83 4e ff ff ff    	jae    8fa7 <main+0x4f07>
    9059:	46 8d 0c 17          	lea    (%rdi,%r10,1),%r9d
    905d:	41 83 c1 05          	add    $0x5,%r9d
    9061:	47 8b 0c 8f          	mov    (%r15,%r9,4),%r9d
    9065:	45 39 d9             	cmp    %r11d,%r9d
    9068:	0f 82 51 ff ff ff    	jb     8fbf <main+0x4f1f>
    906e:	45 89 d9             	mov    %r11d,%r9d
    9071:	46 8d 1c 17          	lea    (%rdi,%r10,1),%r11d
    9075:	41 83 c3 06          	add    $0x6,%r11d
    9079:	47 8b 1c 9f          	mov    (%r15,%r11,4),%r11d
    907d:	45 39 cb             	cmp    %r9d,%r11d
    9080:	0f 83 4e ff ff ff    	jae    8fd4 <main+0x4f34>
    9086:	46 8d 0c 17          	lea    (%rdi,%r10,1),%r9d
    908a:	41 83 c1 07          	add    $0x7,%r9d
    908e:	47 8b 0c 8f          	mov    (%r15,%r9,4),%r9d
    9092:	45 39 d9             	cmp    %r11d,%r9d
    9095:	0f 82 95 fe ff ff    	jb     8f30 <main+0x4e90>
    909b:	45 89 d9             	mov    %r11d,%r9d
    909e:	e9 8d fe ff ff       	jmp    8f30 <main+0x4e90>
    90a3:	66 66 66 66 2e 0f 1f 	data16 data16 data16 cs nopw 0x0(%rax,%rax,1)
    90aa:	84 00 00 00 00 00 
    90b0:	41 83 fc 20          	cmp    $0x20,%r12d
    90b4:	73 08                	jae    90be <main+0x501e>
    90b6:	45 31 d2             	xor    %r10d,%r10d
    90b9:	e9 96 00 00 00       	jmp    9154 <main+0x50b4>
    90be:	62 d2 7d 28 7c c1    	vpbroadcastd %r9d,%ymm0
    90c4:	41 89 f9             	mov    %edi,%r9d
    90c7:	49 89 ca             	mov    %rcx,%r10
    90ca:	c5 fd 6f c8          	vmovdqa %ymm0,%ymm1
    90ce:	c5 fd 6f d0          	vmovdqa %ymm0,%ymm2
    90d2:	c5 fd 6f d8          	vmovdqa %ymm0,%ymm3
    90d6:	66 2e 0f 1f 84 00 00 	cs nopw 0x0(%rax,%rax,1)
    90dd:	00 00 00 
    90e0:	45 89 cb             	mov    %r9d,%r11d
    90e3:	c4 82 7d 3b 04 9f    	vpminud (%r15,%r11,4),%ymm0,%ymm0
    90e9:	c4 82 75 3b 4c 9f 20 	vpminud 0x20(%r15,%r11,4),%ymm1,%ymm1
    90f0:	c4 82 6d 3b 54 9f 40 	vpminud 0x40(%r15,%r11,4),%ymm2,%ymm2
    90f7:	c4 82 65 3b 5c 9f 60 	vpminud 0x60(%r15,%r11,4),%ymm3,%ymm3
    90fe:	41 83 c1 20          	add    $0x20,%r9d
    9102:	49 83 c2 e0          	add    $0xffffffffffffffe0,%r10
    9106:	75 d8                	jne    90e0 <main+0x5040>
    9108:	c4 e2 7d 3b c1       	vpminud %ymm1,%ymm0,%ymm0
    910d:	c4 e2 6d 3b cb       	vpminud %ymm3,%ymm2,%ymm1
    9112:	c4 e2 7d 3b c1       	vpminud %ymm1,%ymm0,%ymm0
    9117:	c4 e3 7d 39 c1 01    	vextracti128 $0x1,%ymm0,%xmm1
    911d:	c4 e2 79 3b c1       	vpminud %xmm1,%xmm0,%xmm0
    9122:	c5 f9 70 c8 ee       	vpshufd $0xee,%xmm0,%xmm1
    9127:	c4 e2 79 3b c1       	vpminud %xmm1,%xmm0,%xmm0
    912c:	c5 f9 70 c8 55       	vpshufd $0x55,%xmm0,%xmm1
    9131:	c4 e2 79 3b c1       	vpminud %xmm1,%xmm0,%xmm0
    9136:	c4 c1 79 7e c1       	vmovd  %xmm0,%r9d
    913b:	44 39 e1             	cmp    %r12d,%ecx
    913e:	0f 84 6c fd ff ff    	je     8eb0 <main+0x4e10>
    9144:	49 89 cb             	mov    %rcx,%r11
    9147:	49 89 ca             	mov    %rcx,%r10
    914a:	41 f6 c4 1c          	test   $0x1c,%r12b
    914e:	0f 84 96 fd ff ff    	je     8eea <main+0x4e4a>
    9154:	62 d2 7d 08 7c c1    	vpbroadcastd %r9d,%xmm0
    915a:	4e 8d 0c 16          	lea    (%rsi,%r10,1),%r9
    915e:	41 01 fa             	add    %edi,%r10d
    9161:	66 66 66 66 66 66 2e 	data16 data16 data16 data16 data16 cs nopw 0x0(%rax,%rax,1)
    9168:	0f 1f 84 00 00 00 00 
    916f:	00 
    9170:	45 89 d3             	mov    %r10d,%r11d
    9173:	c4 82 79 3b 04 9f    	vpminud (%r15,%r11,4),%xmm0,%xmm0
    9179:	41 83 c2 04          	add    $0x4,%r10d
    917d:	49 83 c1 04          	add    $0x4,%r9
    9181:	75 ed                	jne    9170 <main+0x50d0>
    9183:	c5 f9 70 c8 ee       	vpshufd $0xee,%xmm0,%xmm1
    9188:	c4 e2 79 3b c1       	vpminud %xmm1,%xmm0,%xmm0
    918d:	c5 f9 70 c8 55       	vpshufd $0x55,%xmm0,%xmm1
    9192:	c4 e2 79 3b c1       	vpminud %xmm1,%xmm0,%xmm0
    9197:	c4 c1 79 7e c1       	vmovd  %xmm0,%r9d
    919c:	49 89 d3             	mov    %rdx,%r11
    919f:	44 39 e2             	cmp    %r12d,%edx
    91a2:	0f 84 08 fd ff ff    	je     8eb0 <main+0x4e10>
    91a8:	e9 3d fd ff ff       	jmp    8eea <main+0x4e4a>
    91ad:	62 d1 5e 08 7b c1    	vcvtusi2ss %r9d,%xmm4,%xmm0
    91b3:	c5 fa 11 84 24 c0 00 	vmovss %xmm0,0xc0(%rsp)
    91ba:	00 00 
    91bc:	c5 f8 77             	vzeroupper
    91bf:	e8 ac 8f ff ff       	call   2170 <log2f@plt>
    91c4:	c5 fa 11 84 24 80 00 	vmovss %xmm0,0x80(%rsp)
    91cb:	00 00 
    91cd:	62 f1 5e 08 7b 44 24 	vcvtusi2ssl 0x10(%rsp),%xmm4,%xmm0
    91d4:	04 
    91d5:	c5 fa 5e 84 24 c0 00 	vdivss 0xc0(%rsp),%xmm0,%xmm0
    91dc:	00 00 
    91de:	e8 8d 8f ff ff       	call   2170 <log2f@plt>
    91e3:	44 89 e0             	mov    %r12d,%eax
    91e6:	0f af c0             	imul   %eax,%eax
    91e9:	85 c0                	test   %eax,%eax
    91eb:	74 66                	je     9253 <main+0x51b3>
    91ed:	c5 fa 11 84 24 c0 00 	vmovss %xmm0,0xc0(%rsp)
    91f4:	00 00 
    91f6:	8d 2c 40             	lea    (%rax,%rax,2),%ebp
    91f9:	48 89 ef             	mov    %rbp,%rdi
    91fc:	e8 0f 8f ff ff       	call   2110 <_Znwm@plt>
    9201:	49 89 c6             	mov    %rax,%r14
    9204:	48 89 84 24 20 01 00 	mov    %rax,0x120(%rsp)
    920b:	00 
    920c:	4c 8d 3c 28          	lea    (%rax,%rbp,1),%r15
    9210:	4c 89 bc 24 30 01 00 	mov    %r15,0x130(%rsp)
    9217:	00 
    9218:	c6 00 00             	movb   $0x0,(%rax)
    921b:	48 89 c7             	mov    %rax,%rdi
    921e:	48 ff c7             	inc    %rdi
    9221:	48 ff cd             	dec    %rbp
    9224:	4c 89 7c 24 40       	mov    %r15,0x40(%rsp)
    9229:	74 0d                	je     9238 <main+0x5198>
    922b:	31 f6                	xor    %esi,%esi
    922d:	48 89 ea             	mov    %rbp,%rdx
    9230:	e8 6b 8e ff ff       	call   20a0 <memset@plt>
    9235:	4c 89 ff             	mov    %r15,%rdi
    9238:	c5 fa 10 84 24 c0 00 	vmovss 0xc0(%rsp),%xmm0
    923f:	00 00 
    9241:	48 89 bc 24 28 01 00 	mov    %rdi,0x128(%rsp)
    9248:	00 
    9249:	4d 85 e4             	test   %r12,%r12
    924c:	75 3d                	jne    928b <main+0x51eb>
    924e:	e9 1d 02 00 00       	jmp    9470 <main+0x53d0>
    9253:	c5 f0 57 c9          	vxorps %xmm1,%xmm1,%xmm1
    9257:	c5 f8 29 8c 24 20 01 	vmovaps %xmm1,0x120(%rsp)
    925e:	00 00 
    9260:	48 c7 84 24 30 01 00 	movq   $0x0,0x130(%rsp)
    9267:	00 00 00 00 00 
    926c:	48 c7 44 24 40 00 00 	movq   $0x0,0x40(%rsp)
    9273:	00 00 
    9275:	45 31 f6             	xor    %r14d,%r14d
    9278:	31 ff                	xor    %edi,%edi
    927a:	48 89 bc 24 28 01 00 	mov    %rdi,0x128(%rsp)
    9281:	00 
    9282:	4d 85 e4             	test   %r12,%r12
    9285:	0f 84 e5 01 00 00    	je     9470 <main+0x53d0>
    928b:	44 89 e5             	mov    %r12d,%ebp
    928e:	83 e5 fe             	and    $0xfffffffe,%ebp
    9291:	c5 fa 10 0d 6b 1d 00 	vmovss 0x1d6b(%rip),%xmm1        # b004 <_IO_stdin_used+0x4>
    9298:	00 
    9299:	c5 f2 5e c0          	vdivss %xmm0,%xmm1,%xmm0
    929d:	c5 fa 11 84 24 c0 00 	vmovss %xmm0,0xc0(%rsp)
    92a4:	00 00 
    92a6:	43 8d 04 64          	lea    (%r12,%r12,2),%eax
    92aa:	89 44 24 60          	mov    %eax,0x60(%rsp)
    92ae:	45 31 ed             	xor    %r13d,%r13d
    92b1:	b8 05 00 00 00       	mov    $0x5,%eax
    92b6:	b9 01 00 00 00       	mov    $0x1,%ecx
    92bb:	eb 6c                	jmp    9329 <main+0x5289>
    92bd:	0f 1f 00             	nopl   (%rax)
    92c0:	62 f1 5e 08 7b c0    	vcvtusi2ss %eax,%xmm4,%xmm0
    92c6:	e8 a5 8e ff ff       	call   2170 <log2f@plt>
    92cb:	c5 fa 5c 84 24 80 00 	vsubss 0x80(%rsp),%xmm0,%xmm0
    92d2:	00 00 
    92d4:	c5 fa 59 05 40 1d 00 	vmulss 0x1d40(%rip),%xmm0,%xmm0        # b01c <_IO_stdin_used+0x1c>
    92db:	00 
    92dc:	c5 fa 59 84 24 c0 00 	vmulss 0xc0(%rsp),%xmm0,%xmm0
    92e3:	00 00 
    92e5:	c5 fa 2c c0          	vcvttss2si %xmm0,%eax
    92e9:	04 20                	add    $0x20,%al
    92eb:	b1 20                	mov    $0x20,%cl
    92ed:	8d 14 5b             	lea    (%rbx,%rbx,2),%edx
    92f0:	41 88 0c 16          	mov    %cl,(%r14,%rdx,1)
    92f4:	8d 14 5b             	lea    (%rbx,%rbx,2),%edx
    92f7:	ff c2                	inc    %edx
    92f9:	41 88 04 16          	mov    %al,(%r14,%rdx,1)
    92fd:	8d 44 5b 02          	lea    0x2(%rbx,%rbx,2),%eax
    9301:	41 88 0c 06          	mov    %cl,(%r14,%rax,1)
    9305:	48 8b 1c 24          	mov    (%rsp),%rbx
    9309:	4c 8b 64 24 18       	mov    0x18(%rsp),%r12
    930e:	8b 44 24 50          	mov    0x50(%rsp),%eax
    9312:	8b 4c 24 48          	mov    0x48(%rsp),%ecx
    9316:	41 ff c5             	inc    %r13d
    9319:	03 44 24 60          	add    0x60(%rsp),%eax
    931d:	44 01 e1             	add    %r12d,%ecx
    9320:	45 39 e5             	cmp    %r12d,%r13d
    9323:	0f 84 47 01 00 00    	je     9470 <main+0x53d0>
    9329:	41 bf 00 00 00 00    	mov    $0x0,%r15d
    932f:	49 83 fc 01          	cmp    $0x1,%r12
    9333:	89 44 24 50          	mov    %eax,0x50(%rsp)
    9337:	89 4c 24 48          	mov    %ecx,0x48(%rsp)
    933b:	0f 84 fb 00 00 00    	je     943c <main+0x539c>
    9341:	41 89 cc             	mov    %ecx,%r12d
    9344:	89 c3                	mov    %eax,%ebx
    9346:	45 31 ff             	xor    %r15d,%r15d
    9349:	eb 5a                	jmp    93a5 <main+0x5305>
    934b:	0f 1f 44 00 00       	nopl   0x0(%rax,%rax,1)
    9350:	62 f1 5e 08 7b c0    	vcvtusi2ss %eax,%xmm4,%xmm0
    9356:	e8 15 8e ff ff       	call   2170 <log2f@plt>
    935b:	c5 fa 5c 84 24 80 00 	vsubss 0x80(%rsp),%xmm0,%xmm0
    9362:	00 00 
    9364:	c5 fa 59 05 b0 1c 00 	vmulss 0x1cb0(%rip),%xmm0,%xmm0        # b01c <_IO_stdin_used+0x1c>
    936b:	00 
    936c:	c5 fa 59 84 24 c0 00 	vmulss 0xc0(%rsp),%xmm0,%xmm0
    9373:	00 00 
    9375:	c5 fa 2c c0          	vcvttss2si %xmm0,%eax
    9379:	04 20                	add    $0x20,%al
    937b:	b1 20                	mov    $0x20,%cl
    937d:	8d 53 fe             	lea    -0x2(%rbx),%edx
    9380:	41 88 0c 16          	mov    %cl,(%r14,%rdx,1)
    9384:	8d 53 ff             	lea    -0x1(%rbx),%edx
    9387:	41 88 04 16          	mov    %al,(%r14,%rdx,1)
    938b:	89 d8                	mov    %ebx,%eax
    938d:	41 88 0c 06          	mov    %cl,(%r14,%rax,1)
    9391:	49 83 c7 02          	add    $0x2,%r15
    9395:	83 c3 06             	add    $0x6,%ebx
    9398:	41 83 c4 02          	add    $0x2,%r12d
    939c:	4c 39 fd             	cmp    %r15,%rbp
    939f:	0f 84 8b 00 00 00    	je     9430 <main+0x5390>
    93a5:	41 8d 44 24 ff       	lea    -0x1(%r12),%eax
    93aa:	48 8b 4c 24 08       	mov    0x8(%rsp),%rcx
    93af:	8b 04 81             	mov    (%rcx,%rax,4),%eax
    93b2:	3b 44 24 10          	cmp    0x10(%rsp),%eax
    93b6:	73 38                	jae    93f0 <main+0x5350>
    93b8:	62 f1 5e 08 7b c0    	vcvtusi2ss %eax,%xmm4,%xmm0
    93be:	e8 ad 8d ff ff       	call   2170 <log2f@plt>
    93c3:	c5 fa 5c 84 24 80 00 	vsubss 0x80(%rsp),%xmm0,%xmm0
    93ca:	00 00 
    93cc:	c5 fa 59 05 48 1c 00 	vmulss 0x1c48(%rip),%xmm0,%xmm0        # b01c <_IO_stdin_used+0x1c>
    93d3:	00 
    93d4:	c5 fa 59 84 24 c0 00 	vmulss 0xc0(%rsp),%xmm0,%xmm0
    93db:	00 00 
    93dd:	c5 fa 2c c0          	vcvttss2si %xmm0,%eax
    93e1:	04 20                	add    $0x20,%al
    93e3:	b1 20                	mov    $0x20,%cl
    93e5:	eb 0d                	jmp    93f4 <main+0x5354>
    93e7:	66 0f 1f 84 00 00 00 	nopw   0x0(%rax,%rax,1)
    93ee:	00 00 
    93f0:	31 c0                	xor    %eax,%eax
    93f2:	31 c9                	xor    %ecx,%ecx
    93f4:	8d 53 fb             	lea    -0x5(%rbx),%edx
    93f7:	41 88 0c 16          	mov    %cl,(%r14,%rdx,1)
    93fb:	8d 53 fc             	lea    -0x4(%rbx),%edx
    93fe:	41 88 04 16          	mov    %al,(%r14,%rdx,1)
    9402:	8d 43 fd             	lea    -0x3(%rbx),%eax
    9405:	41 88 0c 06          	mov    %cl,(%r14,%rax,1)
    9409:	44 89 e0             	mov    %r12d,%eax
    940c:	48 8b 4c 24 08       	mov    0x8(%rsp),%rcx
    9411:	8b 04 81             	mov    (%rcx,%rax,4),%eax
    9414:	3b 44 24 10          	cmp    0x10(%rsp),%eax
    9418:	0f 82 32 ff ff ff    	jb     9350 <main+0x52b0>
    941e:	31 c0                	xor    %eax,%eax
    9420:	31 c9                	xor    %ecx,%ecx
    9422:	e9 56 ff ff ff       	jmp    937d <main+0x52dd>
    9427:	66 0f 1f 84 00 00 00 	nopw   0x0(%rax,%rax,1)
    942e:	00 00 
    9430:	48 8b 1c 24          	mov    (%rsp),%rbx
    9434:	8b 44 24 50          	mov    0x50(%rsp),%eax
    9438:	8b 4c 24 48          	mov    0x48(%rsp),%ecx
    943c:	4c 8b 64 24 18       	mov    0x18(%rsp),%r12
    9441:	41 f6 c4 01          	test   $0x1,%r12b
    9445:	0f 84 cb fe ff ff    	je     9316 <main+0x5276>
    944b:	44 89 eb             	mov    %r13d,%ebx
    944e:	41 0f af dc          	imul   %r12d,%ebx
    9452:	44 01 fb             	add    %r15d,%ebx
    9455:	48 8b 44 24 08       	mov    0x8(%rsp),%rax
    945a:	8b 04 98             	mov    (%rax,%rbx,4),%eax
    945d:	3b 44 24 10          	cmp    0x10(%rsp),%eax
    9461:	0f 82 59 fe ff ff    	jb     92c0 <main+0x5220>
    9467:	31 c0                	xor    %eax,%eax
    9469:	31 c9                	xor    %ecx,%ecx
    946b:	e9 7d fe ff ff       	jmp    92ed <main+0x524d>
    9470:	48 8d 3d 19 22 00 00 	lea    0x2219(%rip),%rdi        # b690 <_IO_stdin_used+0x690>
    9477:	48 8d 94 24 20 01 00 	lea    0x120(%rsp),%rdx
    947e:	00 
    947f:	44 89 e6             	mov    %r12d,%esi
    9482:	e8 f9 a1 ff ff       	call   3680 <_Z8writeBMPPKcjRKSt6vectorIhSaIhEE>
    9487:	4d 85 f6             	test   %r14,%r14
    948a:	4c 8b 7c 24 08       	mov    0x8(%rsp),%r15
    948f:	74 10                	je     94a1 <main+0x5401>
    9491:	48 8b 74 24 40       	mov    0x40(%rsp),%rsi
    9496:	4c 29 f6             	sub    %r14,%rsi
    9499:	4c 89 f7             	mov    %r14,%rdi
    949c:	e8 7f 8c ff ff       	call   2120 <_ZdlPvm@plt>
    94a1:	48 8b 3d 10 3b 00 00 	mov    0x3b10(%rip),%rdi        # cfb8 <_ZSt4cout@GLIBCXX_3.4>
    94a8:	48 8d 35 92 20 00 00 	lea    0x2092(%rip),%rsi        # b541 <_IO_stdin_used+0x541>
    94af:	ba 3a 00 00 00       	mov    $0x3a,%edx
    94b4:	e8 87 8c ff ff       	call   2140 <_ZSt16__ostream_insertIcSt11char_traitsIcEERSt13basic_ostreamIT_T0_ES6_PKS3_l@plt>
    94b9:	4d 85 e4             	test   %r12,%r12
    94bc:	0f 84 d8 02 00 00    	je     979a <main+0x56fa>
    94c2:	49 8d 44 24 ff       	lea    -0x1(%r12),%rax
    94c7:	44 89 e1             	mov    %r12d,%ecx
    94ca:	83 e1 f0             	and    $0xfffffff0,%ecx
    94cd:	44 89 e2             	mov    %r12d,%edx
    94d0:	83 e2 fc             	and    $0xfffffffc,%edx
    94d3:	44 89 e6             	mov    %r12d,%esi
    94d6:	83 e6 03             	and    $0x3,%esi
    94d9:	48 89 d7             	mov    %rdx,%rdi
    94dc:	48 f7 df             	neg    %rdi
    94df:	48 89 bc 24 80 00 00 	mov    %rdi,0x80(%rsp)
    94e6:	00 
    94e7:	45 31 c0             	xor    %r8d,%r8d
    94ea:	45 31 c9             	xor    %r9d,%r9d
    94ed:	45 31 d2             	xor    %r10d,%r10d
    94f0:	eb 1d                	jmp    950f <main+0x546f>
    94f2:	66 66 66 66 66 2e 0f 	data16 data16 data16 data16 cs nopw 0x0(%rax,%rax,1)
    94f9:	1f 84 00 00 00 00 00 
    9500:	41 ff c1             	inc    %r9d
    9503:	4d 01 e0             	add    %r12,%r8
    9506:	45 39 e1             	cmp    %r12d,%r9d
    9509:	0f 84 80 02 00 00    	je     978f <main+0x56ef>
    950f:	41 83 fc 03          	cmp    $0x3,%r12d
    9513:	76 20                	jbe    9535 <main+0x5495>
    9515:	49 89 c3             	mov    %rax,%r11
    9518:	49 c1 eb 20          	shr    $0x20,%r11
    951c:	41 0f 95 c3          	setne  %r11b
    9520:	44 89 e3             	mov    %r12d,%ebx
    9523:	41 0f af d9          	imul   %r9d,%ebx
    9527:	01 c3                	add    %eax,%ebx
    9529:	0f 92 c3             	setb   %bl
    952c:	44 08 db             	or     %r11b,%bl
    952f:	0f 84 0b 01 00 00    	je     9640 <main+0x55a0>
    9535:	31 db                	xor    %ebx,%ebx
    9537:	48 85 f6             	test   %rsi,%rsi
    953a:	74 44                	je     9580 <main+0x54e0>
    953c:	49 89 f6             	mov    %rsi,%r14
    953f:	49 89 db             	mov    %rbx,%r11
    9542:	4c 8b 6c 24 08       	mov    0x8(%rsp),%r13
    9547:	48 8b 3c 24          	mov    (%rsp),%rdi
    954b:	0f 1f 44 00 00       	nopl   0x0(%rax,%rax,1)
    9550:	47 8d 3c 18          	lea    (%r8,%r11,1),%r15d
    9554:	43 8b 6c bd 00       	mov    0x0(%r13,%r15,4),%ebp
    9559:	46 8b 3c bf          	mov    (%rdi,%r15,4),%r15d
    955d:	41 89 ec             	mov    %ebp,%r12d
    9560:	45 29 fc             	sub    %r15d,%r12d
    9563:	41 29 ef             	sub    %ebp,%r15d
    9566:	45 0f 4c fc          	cmovl  %r12d,%r15d
    956a:	4d 01 fa             	add    %r15,%r10
    956d:	49 ff c3             	inc    %r11
    9570:	49 ff ce             	dec    %r14
    9573:	75 db                	jne    9550 <main+0x54b0>
    9575:	eb 15                	jmp    958c <main+0x54ec>
    9577:	66 0f 1f 84 00 00 00 	nopw   0x0(%rax,%rax,1)
    957e:	00 00 
    9580:	49 89 db             	mov    %rbx,%r11
    9583:	4c 8b 6c 24 08       	mov    0x8(%rsp),%r13
    9588:	48 8b 3c 24          	mov    (%rsp),%rdi
    958c:	4c 8b 64 24 18       	mov    0x18(%rsp),%r12
    9591:	4c 29 e3             	sub    %r12,%rbx
    9594:	48 83 fb fc          	cmp    $0xfffffffffffffffc,%rbx
    9598:	4d 89 ef             	mov    %r13,%r15
    959b:	0f 87 5f ff ff ff    	ja     9500 <main+0x5460>
    95a1:	66 66 66 66 66 66 2e 	data16 data16 data16 data16 data16 cs nopw 0x0(%rax,%rax,1)
    95a8:	0f 1f 84 00 00 00 00 
    95af:	00 
    95b0:	43 8d 1c 18          	lea    (%r8,%r11,1),%ebx
    95b4:	41 8b 2c 9f          	mov    (%r15,%rbx,4),%ebp
    95b8:	8b 1c 9f             	mov    (%rdi,%rbx,4),%ebx
    95bb:	41 89 ee             	mov    %ebp,%r14d
    95be:	41 29 de             	sub    %ebx,%r14d
    95c1:	29 eb                	sub    %ebp,%ebx
    95c3:	41 0f 4c de          	cmovl  %r14d,%ebx
    95c7:	4c 01 d3             	add    %r10,%rbx
    95ca:	47 8d 14 18          	lea    (%r8,%r11,1),%r10d
    95ce:	41 ff c2             	inc    %r10d
    95d1:	43 8b 2c 97          	mov    (%r15,%r10,4),%ebp
    95d5:	46 8b 14 97          	mov    (%rdi,%r10,4),%r10d
    95d9:	41 89 ee             	mov    %ebp,%r14d
    95dc:	45 29 d6             	sub    %r10d,%r14d
    95df:	41 29 ea             	sub    %ebp,%r10d
    95e2:	45 0f 4c d6          	cmovl  %r14d,%r10d
    95e6:	47 8d 74 18 02       	lea    0x2(%r8,%r11,1),%r14d
    95eb:	43 8b 2c b7          	mov    (%r15,%r14,4),%ebp
    95ef:	46 8b 34 b7          	mov    (%rdi,%r14,4),%r14d
    95f3:	41 89 ef             	mov    %ebp,%r15d
    95f6:	45 29 f7             	sub    %r14d,%r15d
    95f9:	41 29 ee             	sub    %ebp,%r14d
    95fc:	45 0f 4c f7          	cmovl  %r15d,%r14d
    9600:	4c 8b 7c 24 08       	mov    0x8(%rsp),%r15
    9605:	4d 01 d6             	add    %r10,%r14
    9608:	49 01 de             	add    %rbx,%r14
    960b:	47 8d 14 18          	lea    (%r8,%r11,1),%r10d
    960f:	41 83 c2 03          	add    $0x3,%r10d
    9613:	43 8b 1c 97          	mov    (%r15,%r10,4),%ebx
    9617:	46 8b 14 97          	mov    (%rdi,%r10,4),%r10d
    961b:	89 dd                	mov    %ebx,%ebp
    961d:	44 29 d5             	sub    %r10d,%ebp
    9620:	41 29 da             	sub    %ebx,%r10d
    9623:	44 0f 4c d5          	cmovl  %ebp,%r10d
    9627:	4d 01 f2             	add    %r14,%r10
    962a:	49 83 c3 04          	add    $0x4,%r11
    962e:	4d 39 dc             	cmp    %r11,%r12
    9631:	0f 85 79 ff ff ff    	jne    95b0 <main+0x5510>
    9637:	e9 c4 fe ff ff       	jmp    9500 <main+0x5460>
    963c:	0f 1f 40 00          	nopl   0x0(%rax)
    9640:	41 83 fc 10          	cmp    $0x10,%r12d
    9644:	73 0c                	jae    9652 <main+0x55b2>
    9646:	45 31 db             	xor    %r11d,%r11d
    9649:	48 8b 3c 24          	mov    (%rsp),%rdi
    964d:	e9 d6 00 00 00       	jmp    9728 <main+0x5688>
    9652:	c4 c1 f9 6e c2       	vmovq  %r10,%xmm0
    9657:	c5 f0 57 c9          	vxorps %xmm1,%xmm1,%xmm1
    965b:	45 89 c2             	mov    %r8d,%r10d
    965e:	49 89 cb             	mov    %rcx,%r11
    9661:	c5 e8 57 d2          	vxorps %xmm2,%xmm2,%xmm2
    9665:	c5 e0 57 db          	vxorps %xmm3,%xmm3,%xmm3
    9669:	48 8b 3c 24          	mov    (%rsp),%rdi
    966d:	0f 1f 00             	nopl   (%rax)
    9670:	44 89 d3             	mov    %r10d,%ebx
    9673:	c4 c1 7a 6f 24 9f    	vmovdqu (%r15,%rbx,4),%xmm4
    9679:	c4 c1 7a 6f 6c 9f 10 	vmovdqu 0x10(%r15,%rbx,4),%xmm5
    9680:	c4 c1 7a 6f 74 9f 20 	vmovdqu 0x20(%r15,%rbx,4),%xmm6
    9687:	c4 c1 7a 6f 7c 9f 30 	vmovdqu 0x30(%r15,%rbx,4),%xmm7
    968e:	c5 d9 fa 24 9f       	vpsubd (%rdi,%rbx,4),%xmm4,%xmm4
    9693:	c5 d1 fa 6c 9f 10    	vpsubd 0x10(%rdi,%rbx,4),%xmm5,%xmm5
    9699:	c5 c9 fa 74 9f 20    	vpsubd 0x20(%rdi,%rbx,4),%xmm6,%xmm6
    969f:	c5 c1 fa 7c 9f 30    	vpsubd 0x30(%rdi,%rbx,4),%xmm7,%xmm7
    96a5:	c4 e2 79 1e e4       	vpabsd %xmm4,%xmm4
    96aa:	c4 e2 79 1e ed       	vpabsd %xmm5,%xmm5
    96af:	c4 e2 79 1e f6       	vpabsd %xmm6,%xmm6
    96b4:	c4 e2 79 1e ff       	vpabsd %xmm7,%xmm7
    96b9:	c4 e2 7d 35 e4       	vpmovzxdq %xmm4,%ymm4
    96be:	c5 fd d4 c4          	vpaddq %ymm4,%ymm0,%ymm0
    96c2:	c4 e2 7d 35 e5       	vpmovzxdq %xmm5,%ymm4
    96c7:	c5 f5 d4 cc          	vpaddq %ymm4,%ymm1,%ymm1
    96cb:	c4 e2 7d 35 e6       	vpmovzxdq %xmm6,%ymm4
    96d0:	c5 ed d4 d4          	vpaddq %ymm4,%ymm2,%ymm2
    96d4:	c4 e2 7d 35 e7       	vpmovzxdq %xmm7,%ymm4
    96d9:	c5 e5 d4 dc          	vpaddq %ymm4,%ymm3,%ymm3
    96dd:	41 83 c2 10          	add    $0x10,%r10d
    96e1:	49 83 c3 f0          	add    $0xfffffffffffffff0,%r11
    96e5:	75 89                	jne    9670 <main+0x55d0>
    96e7:	c5 f5 d4 c0          	vpaddq %ymm0,%ymm1,%ymm0
    96eb:	c5 ed d4 c0          	vpaddq %ymm0,%ymm2,%ymm0
    96ef:	c5 e5 d4 c0          	vpaddq %ymm0,%ymm3,%ymm0
    96f3:	c4 e3 7d 39 c1 01    	vextracti128 $0x1,%ymm0,%xmm1
    96f9:	c5 f9 d4 c1          	vpaddq %xmm1,%xmm0,%xmm0
    96fd:	c5 f9 70 c8 ee       	vpshufd $0xee,%xmm0,%xmm1
    9702:	c5 f9 d4 c1          	vpaddq %xmm1,%xmm0,%xmm0
    9706:	c4 c1 f9 7e c2       	vmovq  %xmm0,%r10
    970b:	44 39 e1             	cmp    %r12d,%ecx
    970e:	0f 84 ec fd ff ff    	je     9500 <main+0x5460>
    9714:	48 89 cb             	mov    %rcx,%rbx
    9717:	49 89 cb             	mov    %rcx,%r11
    971a:	41 f6 c4 0c          	test   $0xc,%r12b
    971e:	48 8b 3c 24          	mov    (%rsp),%rdi
    9722:	0f 84 0f fe ff ff    	je     9537 <main+0x5497>
    9728:	c4 c1 f9 6e c2       	vmovq  %r10,%xmm0
    972d:	4c 8b 94 24 80 00 00 	mov    0x80(%rsp),%r10
    9734:	00 
    9735:	4d 01 da             	add    %r11,%r10
    9738:	45 01 c3             	add    %r8d,%r11d
    973b:	0f 1f 44 00 00       	nopl   0x0(%rax,%rax,1)
    9740:	44 89 db             	mov    %r11d,%ebx
    9743:	c4 c1 7a 6f 0c 9f    	vmovdqu (%r15,%rbx,4),%xmm1
    9749:	c5 f1 fa 0c 9f       	vpsubd (%rdi,%rbx,4),%xmm1,%xmm1
    974e:	c4 e2 79 1e c9       	vpabsd %xmm1,%xmm1
    9753:	c4 e2 7d 35 c9       	vpmovzxdq %xmm1,%ymm1
    9758:	c5 fd d4 c1          	vpaddq %ymm1,%ymm0,%ymm0
    975c:	41 83 c3 04          	add    $0x4,%r11d
    9760:	49 83 c2 04          	add    $0x4,%r10
    9764:	75 da                	jne    9740 <main+0x56a0>
    9766:	c4 e3 7d 39 c1 01    	vextracti128 $0x1,%ymm0,%xmm1
    976c:	c5 f9 d4 c1          	vpaddq %xmm1,%xmm0,%xmm0
    9770:	c5 f9 70 c8 ee       	vpshufd $0xee,%xmm0,%xmm1
    9775:	c5 f9 d4 c1          	vpaddq %xmm1,%xmm0,%xmm0
    9779:	c4 c1 f9 7e c2       	vmovq  %xmm0,%r10
    977e:	48 89 d3             	mov    %rdx,%rbx
    9781:	44 39 e2             	cmp    %r12d,%edx
    9784:	0f 84 76 fd ff ff    	je     9500 <main+0x5460>
    978a:	e9 a8 fd ff ff       	jmp    9537 <main+0x5497>
    978f:	c4 c1 bb 2a c2       	vcvtsi2sd %r10,%xmm8,%xmm0
    9794:	48 8b 1c 24          	mov    (%rsp),%rbx
    9798:	eb 04                	jmp    979e <main+0x56fe>
    979a:	c5 f9 57 c0          	vxorpd %xmm0,%xmm0,%xmm0
    979e:	8b 44 24 10          	mov    0x10(%rsp),%eax
    97a2:	41 0f af c4          	imul   %r12d,%eax
    97a6:	41 0f af c4          	imul   %r12d,%eax
    97aa:	62 f1 3f 08 7b c8    	vcvtusi2sd %eax,%xmm8,%xmm1
    97b0:	c5 fb 5e c1          	vdivsd %xmm1,%xmm0,%xmm0
    97b4:	48 8b 3d fd 37 00 00 	mov    0x37fd(%rip),%rdi        # cfb8 <_ZSt4cout@GLIBCXX_3.4>
    97bb:	c5 f8 77             	vzeroupper
    97be:	e8 0d 8a ff ff       	call   21d0 <_ZNSo9_M_insertIdEERSoT_@plt>
    97c3:	49 89 c6             	mov    %rax,%r14
    97c6:	48 8b 00             	mov    (%rax),%rax
    97c9:	48 8b 40 e8          	mov    -0x18(%rax),%rax
    97cd:	4d 8b a4 06 f0 00 00 	mov    0xf0(%r14,%rax,1),%r12
    97d4:	00 
    97d5:	4d 85 e4             	test   %r12,%r12
    97d8:	0f 84 80 00 00 00    	je     985e <main+0x57be>
    97de:	41 80 7c 24 38 00    	cmpb   $0x0,0x38(%r12)
    97e4:	74 08                	je     97ee <main+0x574e>
    97e6:	41 0f b6 44 24 43    	movzbl 0x43(%r12),%eax
    97ec:	eb 17                	jmp    9805 <main+0x5765>
    97ee:	4c 89 e7             	mov    %r12,%rdi
    97f1:	e8 5a 89 ff ff       	call   2150 <_ZNKSt5ctypeIcE13_M_widen_initEv@plt>
    97f6:	49 8b 04 24          	mov    (%r12),%rax
    97fa:	4c 89 e7             	mov    %r12,%rdi
    97fd:	be 0a 00 00 00       	mov    $0xa,%esi
    9802:	ff 50 30             	call   *0x30(%rax)
    9805:	0f be f0             	movsbl %al,%esi
    9808:	4c 89 f7             	mov    %r14,%rdi
    980b:	e8 20 88 ff ff       	call   2030 <_ZNSo3putEc@plt>
    9810:	48 89 c7             	mov    %rax,%rdi
    9813:	e8 a8 88 ff ff       	call   20c0 <_ZNSo5flushEv@plt>
    9818:	48 85 db             	test   %rbx,%rbx
    981b:	74 13                	je     9830 <main+0x5790>
    981d:	48 8b b4 24 08 01 00 	mov    0x108(%rsp),%rsi
    9824:	00 
    9825:	48 29 de             	sub    %rbx,%rsi
    9828:	48 89 df             	mov    %rbx,%rdi
    982b:	e8 f0 88 ff ff       	call   2120 <_ZdlPvm@plt>
    9830:	31 c0                	xor    %eax,%eax
    9832:	4d 85 ff             	test   %r15,%r15
    9835:	74 15                	je     984c <main+0x57ac>
    9837:	48 8b b4 24 10 01 00 	mov    0x110(%rsp),%rsi
    983e:	00 
    983f:	4c 29 fe             	sub    %r15,%rsi
    9842:	4c 89 ff             	mov    %r15,%rdi
    9845:	e8 d6 88 ff ff       	call   2120 <_ZdlPvm@plt>
    984a:	31 c0                	xor    %eax,%eax
    984c:	48 81 c4 a8 02 00 00 	add    $0x2a8,%rsp
    9853:	5b                   	pop    %rbx
    9854:	41 5c                	pop    %r12
    9856:	41 5d                	pop    %r13
    9858:	41 5e                	pop    %r14
    985a:	41 5f                	pop    %r15
    985c:	5d                   	pop    %rbp
    985d:	c3                   	ret
    985e:	e8 fd 88 ff ff       	call   2160 <_ZSt16__throw_bad_castv@plt>
    9863:	e8 f8 88 ff ff       	call   2160 <_ZSt16__throw_bad_castv@plt>
    9868:	e8 f3 88 ff ff       	call   2160 <_ZSt16__throw_bad_castv@plt>
    986d:	e8 ee 88 ff ff       	call   2160 <_ZSt16__throw_bad_castv@plt>
    9872:	e8 e9 88 ff ff       	call   2160 <_ZSt16__throw_bad_castv@plt>
    9877:	e8 e4 88 ff ff       	call   2160 <_ZSt16__throw_bad_castv@plt>
    987c:	e8 df 88 ff ff       	call   2160 <_ZSt16__throw_bad_castv@plt>
    9881:	e9 a2 00 00 00       	jmp    9928 <main+0x5888>
    9886:	e9 19 01 00 00       	jmp    99a4 <main+0x5904>
    988b:	49 89 c4             	mov    %rax,%r12
    988e:	e9 38 01 00 00       	jmp    99cb <main+0x592b>
    9893:	e9 04 02 00 00       	jmp    9a9c <main+0x59fc>
    9898:	49 89 c4             	mov    %rax,%r12
    989b:	4d 85 f6             	test   %r14,%r14
    989e:	0f 84 fb 01 00 00    	je     9a9f <main+0x59ff>
    98a4:	48 8b 74 24 70       	mov    0x70(%rsp),%rsi
    98a9:	e9 8b 00 00 00       	jmp    9939 <main+0x5899>
    98ae:	e9 a9 01 00 00       	jmp    9a5c <main+0x59bc>
    98b3:	e9 cf 01 00 00       	jmp    9a87 <main+0x59e7>
    98b8:	e9 df 01 00 00       	jmp    9a9c <main+0x59fc>
    98bd:	eb 69                	jmp    9928 <main+0x5888>
    98bf:	eb 37                	jmp    98f8 <main+0x5858>
    98c1:	49 89 c4             	mov    %rax,%r12
    98c4:	e9 84 01 00 00       	jmp    9a4d <main+0x59ad>
    98c9:	e9 ce 01 00 00       	jmp    9a9c <main+0x59fc>
    98ce:	49 89 c4             	mov    %rax,%r12
    98d1:	4d 85 f6             	test   %r14,%r14
    98d4:	0f 84 c5 01 00 00    	je     9a9f <main+0x59ff>
    98da:	48 8b b4 24 00 01 00 	mov    0x100(%rsp),%rsi
    98e1:	00 
    98e2:	eb 55                	jmp    9939 <main+0x5899>
    98e4:	e9 f8 00 00 00       	jmp    99e1 <main+0x5941>
    98e9:	49 89 c4             	mov    %rax,%r12
    98ec:	e9 1c 01 00 00       	jmp    9a0d <main+0x596d>
    98f1:	e9 a6 01 00 00       	jmp    9a9c <main+0x59fc>
    98f6:	eb 30                	jmp    9928 <main+0x5888>
    98f8:	49 89 c4             	mov    %rax,%r12
    98fb:	48 8b 7c 24 20       	mov    0x20(%rsp),%rdi
    9900:	4c 39 f7             	cmp    %r14,%rdi
    9903:	0f 85 2a 01 00 00    	jne    9a33 <main+0x5993>
    9909:	e9 32 01 00 00       	jmp    9a40 <main+0x59a0>
    990e:	49 89 c4             	mov    %rax,%r12
    9911:	e9 37 01 00 00       	jmp    9a4d <main+0x59ad>
    9916:	e9 81 01 00 00       	jmp    9a9c <main+0x59fc>
    991b:	4c 89 7c 24 08       	mov    %r15,0x8(%rsp)
    9920:	49 89 c4             	mov    %rax,%r12
    9923:	e9 aa 01 00 00       	jmp    9ad2 <main+0x5a32>
    9928:	49 89 c4             	mov    %rax,%r12
    992b:	4d 85 f6             	test   %r14,%r14
    992e:	0f 84 6b 01 00 00    	je     9a9f <main+0x59ff>
    9934:	48 8b 74 24 40       	mov    0x40(%rsp),%rsi
    9939:	4c 29 f6             	sub    %r14,%rsi
    993c:	e9 8f 00 00 00       	jmp    99d0 <main+0x5930>
    9941:	e9 16 01 00 00       	jmp    9a5c <main+0x59bc>
    9946:	e9 3c 01 00 00       	jmp    9a87 <main+0x59e7>
    994b:	e9 4c 01 00 00       	jmp    9a9c <main+0x59fc>
    9950:	49 89 c4             	mov    %rax,%r12
    9953:	eb 69                	jmp    99be <main+0x591e>
    9955:	49 89 c4             	mov    %rax,%r12
    9958:	eb 71                	jmp    99cb <main+0x592b>
    995a:	49 89 c4             	mov    %rax,%r12
    995d:	e9 14 01 00 00       	jmp    9a76 <main+0x59d6>
    9962:	e9 20 01 00 00       	jmp    9a87 <main+0x59e7>
    9967:	49 89 c4             	mov    %rax,%r12
    996a:	e9 d1 00 00 00       	jmp    9a40 <main+0x59a0>
    996f:	49 89 c4             	mov    %rax,%r12
    9972:	e9 d6 00 00 00       	jmp    9a4d <main+0x59ad>
    9977:	49 89 c4             	mov    %rax,%r12
    997a:	e9 81 00 00 00       	jmp    9a00 <main+0x5960>
    997f:	49 89 c4             	mov    %rax,%r12
    9982:	e9 86 00 00 00       	jmp    9a0d <main+0x596d>
    9987:	49 89 c4             	mov    %rax,%r12
    998a:	e9 b1 00 00 00       	jmp    9a40 <main+0x59a0>
    998f:	49 89 c4             	mov    %rax,%r12
    9992:	e9 b6 00 00 00       	jmp    9a4d <main+0x59ad>
    9997:	49 89 c4             	mov    %rax,%r12
    999a:	e9 d7 00 00 00       	jmp    9a76 <main+0x59d6>
    999f:	e9 e3 00 00 00       	jmp    9a87 <main+0x59e7>
    99a4:	49 89 c4             	mov    %rax,%r12
    99a7:	48 8b 7c 24 20       	mov    0x20(%rsp),%rdi
    99ac:	4c 39 ef             	cmp    %r13,%rdi
    99af:	74 0d                	je     99be <main+0x591e>
    99b1:	48 8b 74 24 30       	mov    0x30(%rsp),%rsi
    99b6:	48 ff c6             	inc    %rsi
    99b9:	e8 62 87 ff ff       	call   2120 <_ZdlPvm@plt>
    99be:	48 8d bc 24 20 01 00 	lea    0x120(%rsp),%rdi
    99c5:	00 
    99c6:	e8 15 87 ff ff       	call   20e0 <_ZNSt7__cxx1118basic_stringstreamIcSt11char_traitsIcESaIcEED1Ev@plt>
    99cb:	be 50 00 00 00       	mov    $0x50,%esi
    99d0:	4c 89 f7             	mov    %r14,%rdi
    99d3:	e8 48 87 ff ff       	call   2120 <_ZdlPvm@plt>
    99d8:	e9 c2 00 00 00       	jmp    9a9f <main+0x59ff>
    99dd:	eb 7d                	jmp    9a5c <main+0x59bc>
    99df:	eb 40                	jmp    9a21 <main+0x5981>
    99e1:	49 89 c4             	mov    %rax,%r12
    99e4:	48 8b 7c 24 20       	mov    0x20(%rsp),%rdi
    99e9:	48 8d 44 24 30       	lea    0x30(%rsp),%rax
    99ee:	48 39 c7             	cmp    %rax,%rdi
    99f1:	74 0d                	je     9a00 <main+0x5960>
    99f3:	48 8b 74 24 30       	mov    0x30(%rsp),%rsi
    99f8:	48 ff c6             	inc    %rsi
    99fb:	e8 20 87 ff ff       	call   2120 <_ZdlPvm@plt>
    9a00:	48 8d bc 24 20 01 00 	lea    0x120(%rsp),%rdi
    9a07:	00 
    9a08:	e8 d3 86 ff ff       	call   20e0 <_ZNSt7__cxx1118basic_stringstreamIcSt11char_traitsIcESaIcEED1Ev@plt>
    9a0d:	be 50 00 00 00       	mov    $0x50,%esi
    9a12:	48 8b bc 24 80 00 00 	mov    0x80(%rsp),%rdi
    9a19:	00 
    9a1a:	e8 01 87 ff ff       	call   2120 <_ZdlPvm@plt>
    9a1f:	eb 7e                	jmp    9a9f <main+0x59ff>
    9a21:	49 89 c4             	mov    %rax,%r12
    9a24:	48 8b 7c 24 20       	mov    0x20(%rsp),%rdi
    9a29:	48 8d 44 24 30       	lea    0x30(%rsp),%rax
    9a2e:	48 39 c7             	cmp    %rax,%rdi
    9a31:	74 0d                	je     9a40 <main+0x59a0>
    9a33:	48 8b 74 24 30       	mov    0x30(%rsp),%rsi
    9a38:	48 ff c6             	inc    %rsi
    9a3b:	e8 e0 86 ff ff       	call   2120 <_ZdlPvm@plt>
    9a40:	48 8d bc 24 20 01 00 	lea    0x120(%rsp),%rdi
    9a47:	00 
    9a48:	e8 93 86 ff ff       	call   20e0 <_ZNSt7__cxx1118basic_stringstreamIcSt11char_traitsIcESaIcEED1Ev@plt>
    9a4d:	be 50 00 00 00       	mov    $0x50,%esi
    9a52:	48 89 df             	mov    %rbx,%rdi
    9a55:	e8 c6 86 ff ff       	call   2120 <_ZdlPvm@plt>
    9a5a:	eb 43                	jmp    9a9f <main+0x59ff>
    9a5c:	49 89 c4             	mov    %rax,%r12
    9a5f:	48 8b 7c 24 20       	mov    0x20(%rsp),%rdi
    9a64:	4c 39 ef             	cmp    %r13,%rdi
    9a67:	74 0d                	je     9a76 <main+0x59d6>
    9a69:	48 8b 74 24 30       	mov    0x30(%rsp),%rsi
    9a6e:	48 ff c6             	inc    %rsi
    9a71:	e8 aa 86 ff ff       	call   2120 <_ZdlPvm@plt>
    9a76:	48 8d bc 24 20 01 00 	lea    0x120(%rsp),%rdi
    9a7d:	00 
    9a7e:	e8 5d 86 ff ff       	call   20e0 <_ZNSt7__cxx1118basic_stringstreamIcSt11char_traitsIcESaIcEED1Ev@plt>
    9a83:	eb 08                	jmp    9a8d <main+0x59ed>
    9a85:	eb 00                	jmp    9a87 <main+0x59e7>
    9a87:	4c 89 ed             	mov    %r13,%rbp
    9a8a:	49 89 c4             	mov    %rax,%r12
    9a8d:	be 50 00 00 00       	mov    $0x50,%esi
    9a92:	48 89 ef             	mov    %rbp,%rdi
    9a95:	e8 86 86 ff ff       	call   2120 <_ZdlPvm@plt>
    9a9a:	eb 03                	jmp    9a9f <main+0x59ff>
    9a9c:	49 89 c4             	mov    %rax,%r12
    9a9f:	48 83 3c 24 00       	cmpq   $0x0,(%rsp)
    9aa4:	75 10                	jne    9ab6 <main+0x5a16>
    9aa6:	48 83 7c 24 08 00    	cmpq   $0x0,0x8(%rsp)
    9aac:	75 24                	jne    9ad2 <main+0x5a32>
    9aae:	4c 89 e7             	mov    %r12,%rdi
    9ab1:	e8 4a 87 ff ff       	call   2200 <_Unwind_Resume@plt>
    9ab6:	48 8b 3c 24          	mov    (%rsp),%rdi
    9aba:	48 8b b4 24 08 01 00 	mov    0x108(%rsp),%rsi
    9ac1:	00 
    9ac2:	48 29 fe             	sub    %rdi,%rsi
    9ac5:	e8 56 86 ff ff       	call   2120 <_ZdlPvm@plt>
    9aca:	48 83 7c 24 08 00    	cmpq   $0x0,0x8(%rsp)
    9ad0:	74 dc                	je     9aae <main+0x5a0e>
    9ad2:	48 8b 7c 24 08       	mov    0x8(%rsp),%rdi
    9ad7:	48 8b b4 24 10 01 00 	mov    0x110(%rsp),%rsi
    9ade:	00 
    9adf:	48 29 fe             	sub    %rdi,%rsi
    9ae2:	e8 39 86 ff ff       	call   2120 <_ZdlPvm@plt>
    9ae7:	4c 89 e7             	mov    %r12,%rdi
    9aea:	e8 11 87 ff ff       	call   2200 <_Unwind_Resume@plt>
    9aef:	90                   	nop

0000000000009af0 <_ZSt16__introsort_loopIN9__gnu_cxx17__normal_iteratorIPdSt6vectorIdSaIdEEEElNS0_5__ops15_Iter_less_iterEEvT_S9_T0_T1_>:
    9af0:	55                   	push   %rbp
    9af1:	41 57                	push   %r15
    9af3:	41 56                	push   %r14
    9af5:	41 55                	push   %r13
    9af7:	41 54                	push   %r12
    9af9:	53                   	push   %rbx
    9afa:	50                   	push   %rax
    9afb:	48 89 f5             	mov    %rsi,%rbp
    9afe:	48 29 fd             	sub    %rdi,%rbp
    9b01:	48 c1 fd 03          	sar    $0x3,%rbp
    9b05:	48 83 fd 11          	cmp    $0x11,%rbp
    9b09:	0f 8c 6d 02 00 00    	jl     9d7c <_ZSt16__introsort_loopIN9__gnu_cxx17__normal_iteratorIPdSt6vectorIdSaIdEEEElNS0_5__ops15_Iter_less_iterEEvT_S9_T0_T1_+0x28c>
    9b0f:	49 89 d6             	mov    %rdx,%r14
    9b12:	48 89 fb             	mov    %rdi,%rbx
    9b15:	4c 8d 67 08          	lea    0x8(%rdi),%r12
    9b19:	49 c7 c5 f8 ff ff ff 	mov    $0xfffffffffffffff8,%r13
    9b20:	49 29 fd             	sub    %rdi,%r13
    9b23:	eb 27                	jmp    9b4c <_ZSt16__introsort_loopIN9__gnu_cxx17__normal_iteratorIPdSt6vectorIdSaIdEEEElNS0_5__ops15_Iter_less_iterEEvT_S9_T0_T1_+0x5c>
    9b25:	66 66 2e 0f 1f 84 00 	data16 cs nopw 0x0(%rax,%rax,1)
    9b2c:	00 00 00 00 
    9b30:	4c 89 ff             	mov    %r15,%rdi
    9b33:	4c 89 f2             	mov    %r14,%rdx
    9b36:	e8 b5 ff ff ff       	call   9af0 <_ZSt16__introsort_loopIN9__gnu_cxx17__normal_iteratorIPdSt6vectorIdSaIdEEEElNS0_5__ops15_Iter_less_iterEEvT_S9_T0_T1_>
    9b3b:	48 c1 fd 03          	sar    $0x3,%rbp
    9b3f:	4c 89 fe             	mov    %r15,%rsi
    9b42:	48 83 fd 10          	cmp    $0x10,%rbp
    9b46:	0f 8e 30 02 00 00    	jle    9d7c <_ZSt16__introsort_loopIN9__gnu_cxx17__normal_iteratorIPdSt6vectorIdSaIdEEEElNS0_5__ops15_Iter_less_iterEEvT_S9_T0_T1_+0x28c>
    9b4c:	49 83 ee 01          	sub    $0x1,%r14
    9b50:	0f 82 0d 01 00 00    	jb     9c63 <_ZSt16__introsort_loopIN9__gnu_cxx17__normal_iteratorIPdSt6vectorIdSaIdEEEElNS0_5__ops15_Iter_less_iterEEvT_S9_T0_T1_+0x173>
    9b56:	c5 fb 10 43 08       	vmovsd 0x8(%rbx),%xmm0
    9b5b:	48 d1 ed             	shr    $1,%rbp
    9b5e:	c5 fb 10 14 eb       	vmovsd (%rbx,%rbp,8),%xmm2
    9b63:	c5 f9 2e c2          	vucomisd %xmm2,%xmm0
    9b67:	c5 fb 10 4e f8       	vmovsd -0x8(%rsi),%xmm1
    9b6c:	73 12                	jae    9b80 <_ZSt16__introsort_loopIN9__gnu_cxx17__normal_iteratorIPdSt6vectorIdSaIdEEEElNS0_5__ops15_Iter_less_iterEEvT_S9_T0_T1_+0x90>
    9b6e:	c5 f9 2e d1          	vucomisd %xmm1,%xmm2
    9b72:	73 2c                	jae    9ba0 <_ZSt16__introsort_loopIN9__gnu_cxx17__normal_iteratorIPdSt6vectorIdSaIdEEEElNS0_5__ops15_Iter_less_iterEEvT_S9_T0_T1_+0xb0>
    9b74:	c5 fb 10 03          	vmovsd (%rbx),%xmm0
    9b78:	eb 66                	jmp    9be0 <_ZSt16__introsort_loopIN9__gnu_cxx17__normal_iteratorIPdSt6vectorIdSaIdEEEElNS0_5__ops15_Iter_less_iterEEvT_S9_T0_T1_+0xf0>
    9b7a:	66 0f 1f 44 00 00    	nopw   0x0(%rax,%rax,1)
    9b80:	c5 f9 2e c1          	vucomisd %xmm1,%xmm0
    9b84:	73 3a                	jae    9bc0 <_ZSt16__introsort_loopIN9__gnu_cxx17__normal_iteratorIPdSt6vectorIdSaIdEEEElNS0_5__ops15_Iter_less_iterEEvT_S9_T0_T1_+0xd0>
    9b86:	c5 fb 10 0b          	vmovsd (%rbx),%xmm1
    9b8a:	c5 fb 11 03          	vmovsd %xmm0,(%rbx)
    9b8e:	c5 fb 11 4b 08       	vmovsd %xmm1,0x8(%rbx)
    9b93:	eb 6b                	jmp    9c00 <_ZSt16__introsort_loopIN9__gnu_cxx17__normal_iteratorIPdSt6vectorIdSaIdEEEElNS0_5__ops15_Iter_less_iterEEvT_S9_T0_T1_+0x110>
    9b95:	66 66 2e 0f 1f 84 00 	data16 cs nopw 0x0(%rax,%rax,1)
    9b9c:	00 00 00 00 
    9ba0:	c5 f9 2e c1          	vucomisd %xmm1,%xmm0
    9ba4:	c5 fb 10 13          	vmovsd (%rbx),%xmm2
    9ba8:	73 41                	jae    9beb <_ZSt16__introsort_loopIN9__gnu_cxx17__normal_iteratorIPdSt6vectorIdSaIdEEEElNS0_5__ops15_Iter_less_iterEEvT_S9_T0_T1_+0xfb>
    9baa:	c5 fb 11 0b          	vmovsd %xmm1,(%rbx)
    9bae:	c5 fb 11 56 f8       	vmovsd %xmm2,-0x8(%rsi)
    9bb3:	eb 4b                	jmp    9c00 <_ZSt16__introsort_loopIN9__gnu_cxx17__normal_iteratorIPdSt6vectorIdSaIdEEEElNS0_5__ops15_Iter_less_iterEEvT_S9_T0_T1_+0x110>
    9bb5:	66 66 2e 0f 1f 84 00 	data16 cs nopw 0x0(%rax,%rax,1)
    9bbc:	00 00 00 00 
    9bc0:	c5 f9 2e d1          	vucomisd %xmm1,%xmm2
    9bc4:	c5 fb 10 03          	vmovsd (%rbx),%xmm0
    9bc8:	73 16                	jae    9be0 <_ZSt16__introsort_loopIN9__gnu_cxx17__normal_iteratorIPdSt6vectorIdSaIdEEEElNS0_5__ops15_Iter_less_iterEEvT_S9_T0_T1_+0xf0>
    9bca:	c5 fb 11 0b          	vmovsd %xmm1,(%rbx)
    9bce:	c5 fb 11 46 f8       	vmovsd %xmm0,-0x8(%rsi)
    9bd3:	eb 2b                	jmp    9c00 <_ZSt16__introsort_loopIN9__gnu_cxx17__normal_iteratorIPdSt6vectorIdSaIdEEEElNS0_5__ops15_Iter_less_iterEEvT_S9_T0_T1_+0x110>
    9bd5:	66 66 2e 0f 1f 84 00 	data16 cs nopw 0x0(%rax,%rax,1)
    9bdc:	00 00 00 00 
    9be0:	c5 fb 11 13          	vmovsd %xmm2,(%rbx)
    9be4:	c5 fb 11 04 eb       	vmovsd %xmm0,(%rbx,%rbp,8)
    9be9:	eb 15                	jmp    9c00 <_ZSt16__introsort_loopIN9__gnu_cxx17__normal_iteratorIPdSt6vectorIdSaIdEEEElNS0_5__ops15_Iter_less_iterEEvT_S9_T0_T1_+0x110>
    9beb:	c5 fb 11 03          	vmovsd %xmm0,(%rbx)
    9bef:	c5 fb 11 53 08       	vmovsd %xmm2,0x8(%rbx)
    9bf4:	66 66 66 2e 0f 1f 84 	data16 data16 cs nopw 0x0(%rax,%rax,1)
    9bfb:	00 00 00 00 00 
    9c00:	4c 89 e0             	mov    %r12,%rax
    9c03:	48 89 f1             	mov    %rsi,%rcx
    9c06:	66 2e 0f 1f 84 00 00 	cs nopw 0x0(%rax,%rax,1)
    9c0d:	00 00 00 
    9c10:	c5 fb 10 03          	vmovsd (%rbx),%xmm0
    9c14:	4a 8d 2c 28          	lea    (%rax,%r13,1),%rbp
    9c18:	0f 1f 84 00 00 00 00 	nopl   0x0(%rax,%rax,1)
    9c1f:	00 
    9c20:	c5 fb 10 08          	vmovsd (%rax),%xmm1
    9c24:	48 83 c0 08          	add    $0x8,%rax
    9c28:	48 83 c5 08          	add    $0x8,%rbp
    9c2c:	c5 f9 2e c1          	vucomisd %xmm1,%xmm0
    9c30:	77 ee                	ja     9c20 <_ZSt16__introsort_loopIN9__gnu_cxx17__normal_iteratorIPdSt6vectorIdSaIdEEEElNS0_5__ops15_Iter_less_iterEEvT_S9_T0_T1_+0x130>
    9c32:	4c 8d 78 f8          	lea    -0x8(%rax),%r15
    9c36:	66 2e 0f 1f 84 00 00 	cs nopw 0x0(%rax,%rax,1)
    9c3d:	00 00 00 
    9c40:	c5 fb 10 51 f8       	vmovsd -0x8(%rcx),%xmm2
    9c45:	48 83 c1 f8          	add    $0xfffffffffffffff8,%rcx
    9c49:	c5 f9 2e c2          	vucomisd %xmm2,%xmm0
    9c4d:	72 f1                	jb     9c40 <_ZSt16__introsort_loopIN9__gnu_cxx17__normal_iteratorIPdSt6vectorIdSaIdEEEElNS0_5__ops15_Iter_less_iterEEvT_S9_T0_T1_+0x150>
    9c4f:	49 39 cf             	cmp    %rcx,%r15
    9c52:	0f 83 d8 fe ff ff    	jae    9b30 <_ZSt16__introsort_loopIN9__gnu_cxx17__normal_iteratorIPdSt6vectorIdSaIdEEEElNS0_5__ops15_Iter_less_iterEEvT_S9_T0_T1_+0x40>
    9c58:	c4 c1 7b 11 17       	vmovsd %xmm2,(%r15)
    9c5d:	c5 fb 11 09          	vmovsd %xmm1,(%rcx)
    9c61:	eb ad                	jmp    9c10 <_ZSt16__introsort_loopIN9__gnu_cxx17__normal_iteratorIPdSt6vectorIdSaIdEEEElNS0_5__ops15_Iter_less_iterEEvT_S9_T0_T1_+0x120>
    9c63:	48 8d 54 24 07       	lea    0x7(%rsp),%rdx
    9c68:	48 89 df             	mov    %rbx,%rdi
    9c6b:	49 89 f6             	mov    %rsi,%r14
    9c6e:	e8 8d 03 00 00       	call   a000 <_ZSt11__make_heapIN9__gnu_cxx17__normal_iteratorIPdSt6vectorIdSaIdEEEENS0_5__ops15_Iter_less_iterEEvT_S9_RT0_>
    9c73:	eb 1c                	jmp    9c91 <_ZSt16__introsort_loopIN9__gnu_cxx17__normal_iteratorIPdSt6vectorIdSaIdEEEElNS0_5__ops15_Iter_less_iterEEvT_S9_T0_T1_+0x1a1>
    9c75:	66 66 2e 0f 1f 84 00 	data16 cs nopw 0x0(%rax,%rax,1)
    9c7c:	00 00 00 00 
    9c80:	31 c9                	xor    %ecx,%ecx
    9c82:	c5 fb 11 04 cb       	vmovsd %xmm0,(%rbx,%rcx,8)
    9c87:	48 83 f8 08          	cmp    $0x8,%rax
    9c8b:	0f 8e eb 00 00 00    	jle    9d7c <_ZSt16__introsort_loopIN9__gnu_cxx17__normal_iteratorIPdSt6vectorIdSaIdEEEElNS0_5__ops15_Iter_less_iterEEvT_S9_T0_T1_+0x28c>
    9c91:	c4 c1 7b 10 46 f8    	vmovsd -0x8(%r14),%xmm0
    9c97:	c5 fb 10 0b          	vmovsd (%rbx),%xmm1
    9c9b:	c4 c1 7b 11 4e f8    	vmovsd %xmm1,-0x8(%r14)
    9ca1:	49 83 c6 f8          	add    $0xfffffffffffffff8,%r14
    9ca5:	4c 89 f0             	mov    %r14,%rax
    9ca8:	48 29 d8             	sub    %rbx,%rax
    9cab:	48 89 c2             	mov    %rax,%rdx
    9cae:	48 c1 fa 03          	sar    $0x3,%rdx
    9cb2:	48 83 fa 03          	cmp    $0x3,%rdx
    9cb6:	7c 58                	jl     9d10 <_ZSt16__introsort_loopIN9__gnu_cxx17__normal_iteratorIPdSt6vectorIdSaIdEEEElNS0_5__ops15_Iter_less_iterEEvT_S9_T0_T1_+0x220>
    9cb8:	48 8d 4a ff          	lea    -0x1(%rdx),%rcx
    9cbc:	48 c1 e9 3f          	shr    $0x3f,%rcx
    9cc0:	48 8d 34 0a          	lea    (%rdx,%rcx,1),%rsi
    9cc4:	48 ff ce             	dec    %rsi
    9cc7:	48 d1 fe             	sar    $1,%rsi
    9cca:	31 ff                	xor    %edi,%edi
    9ccc:	eb 1c                	jmp    9cea <_ZSt16__introsort_loopIN9__gnu_cxx17__normal_iteratorIPdSt6vectorIdSaIdEEEElNS0_5__ops15_Iter_less_iterEEvT_S9_T0_T1_+0x1fa>
    9cce:	66 90                	xchg   %ax,%ax
    9cd0:	48 8d 0c 7d 02 00 00 	lea    0x2(,%rdi,2),%rcx
    9cd7:	00 
    9cd8:	c5 fb 10 0c cb       	vmovsd (%rbx,%rcx,8),%xmm1
    9cdd:	c5 fb 11 0c fb       	vmovsd %xmm1,(%rbx,%rdi,8)
    9ce2:	48 89 cf             	mov    %rcx,%rdi
    9ce5:	48 39 f1             	cmp    %rsi,%rcx
    9ce8:	7d 28                	jge    9d12 <_ZSt16__introsort_loopIN9__gnu_cxx17__normal_iteratorIPdSt6vectorIdSaIdEEEElNS0_5__ops15_Iter_less_iterEEvT_S9_T0_T1_+0x222>
    9cea:	48 8d 0c 3f          	lea    (%rdi,%rdi,1),%rcx
    9cee:	c5 fb 10 4c cb 10    	vmovsd 0x10(%rbx,%rcx,8),%xmm1
    9cf4:	c5 f9 2e 4c cb 08    	vucomisd 0x8(%rbx,%rcx,8),%xmm1
    9cfa:	73 d4                	jae    9cd0 <_ZSt16__introsort_loopIN9__gnu_cxx17__normal_iteratorIPdSt6vectorIdSaIdEEEElNS0_5__ops15_Iter_less_iterEEvT_S9_T0_T1_+0x1e0>
    9cfc:	48 8d 0c 7d 01 00 00 	lea    0x1(,%rdi,2),%rcx
    9d03:	00 
    9d04:	eb d2                	jmp    9cd8 <_ZSt16__introsort_loopIN9__gnu_cxx17__normal_iteratorIPdSt6vectorIdSaIdEEEElNS0_5__ops15_Iter_less_iterEEvT_S9_T0_T1_+0x1e8>
    9d06:	66 2e 0f 1f 84 00 00 	cs nopw 0x0(%rax,%rax,1)
    9d0d:	00 00 00 
    9d10:	31 c9                	xor    %ecx,%ecx
    9d12:	a8 08                	test   $0x8,%al
    9d14:	75 23                	jne    9d39 <_ZSt16__introsort_loopIN9__gnu_cxx17__normal_iteratorIPdSt6vectorIdSaIdEEEElNS0_5__ops15_Iter_less_iterEEvT_S9_T0_T1_+0x249>
    9d16:	48 83 c2 fe          	add    $0xfffffffffffffffe,%rdx
    9d1a:	48 d1 fa             	sar    $1,%rdx
    9d1d:	48 39 d1             	cmp    %rdx,%rcx
    9d20:	75 17                	jne    9d39 <_ZSt16__introsort_loopIN9__gnu_cxx17__normal_iteratorIPdSt6vectorIdSaIdEEEElNS0_5__ops15_Iter_less_iterEEvT_S9_T0_T1_+0x249>
    9d22:	48 8d 14 09          	lea    (%rcx,%rcx,1),%rdx
    9d26:	c5 fb 10 4c d3 08    	vmovsd 0x8(%rbx,%rdx,8),%xmm1
    9d2c:	c5 fb 11 0c cb       	vmovsd %xmm1,(%rbx,%rcx,8)
    9d31:	48 8d 0c 4d 01 00 00 	lea    0x1(,%rcx,2),%rcx
    9d38:	00 
    9d39:	48 85 c9             	test   %rcx,%rcx
    9d3c:	0f 8e 40 ff ff ff    	jle    9c82 <_ZSt16__introsort_loopIN9__gnu_cxx17__normal_iteratorIPdSt6vectorIdSaIdEEEElNS0_5__ops15_Iter_less_iterEEvT_S9_T0_T1_+0x192>
    9d42:	66 66 66 66 66 2e 0f 	data16 data16 data16 data16 cs nopw 0x0(%rax,%rax,1)
    9d49:	1f 84 00 00 00 00 00 
    9d50:	48 8d 51 ff          	lea    -0x1(%rcx),%rdx
    9d54:	48 89 d6             	mov    %rdx,%rsi
    9d57:	48 d1 ee             	shr    $1,%rsi
    9d5a:	c5 fb 10 0c f3       	vmovsd (%rbx,%rsi,8),%xmm1
    9d5f:	c5 f9 2e c1          	vucomisd %xmm1,%xmm0
    9d63:	0f 86 19 ff ff ff    	jbe    9c82 <_ZSt16__introsort_loopIN9__gnu_cxx17__normal_iteratorIPdSt6vectorIdSaIdEEEElNS0_5__ops15_Iter_less_iterEEvT_S9_T0_T1_+0x192>
    9d69:	c5 fb 11 0c cb       	vmovsd %xmm1,(%rbx,%rcx,8)
    9d6e:	48 89 f1             	mov    %rsi,%rcx
    9d71:	48 83 fa 01          	cmp    $0x1,%rdx
    9d75:	77 d9                	ja     9d50 <_ZSt16__introsort_loopIN9__gnu_cxx17__normal_iteratorIPdSt6vectorIdSaIdEEEElNS0_5__ops15_Iter_less_iterEEvT_S9_T0_T1_+0x260>
    9d77:	e9 04 ff ff ff       	jmp    9c80 <_ZSt16__introsort_loopIN9__gnu_cxx17__normal_iteratorIPdSt6vectorIdSaIdEEEElNS0_5__ops15_Iter_less_iterEEvT_S9_T0_T1_+0x190>
    9d7c:	48 83 c4 08          	add    $0x8,%rsp
    9d80:	5b                   	pop    %rbx
    9d81:	41 5c                	pop    %r12
    9d83:	41 5d                	pop    %r13
    9d85:	41 5e                	pop    %r14
    9d87:	41 5f                	pop    %r15
    9d89:	5d                   	pop    %rbp
    9d8a:	c3                   	ret
    9d8b:	0f 1f 44 00 00       	nopl   0x0(%rax,%rax,1)

0000000000009d90 <_ZSt22__final_insertion_sortIN9__gnu_cxx17__normal_iteratorIPdSt6vectorIdSaIdEEEENS0_5__ops15_Iter_less_iterEEvT_S9_T0_>:
    9d90:	55                   	push   %rbp
    9d91:	41 57                	push   %r15
    9d93:	41 56                	push   %r14
    9d95:	41 55                	push   %r13
    9d97:	41 54                	push   %r12
    9d99:	53                   	push   %rbx
    9d9a:	48 83 ec 18          	sub    $0x18,%rsp
    9d9e:	48 89 f3             	mov    %rsi,%rbx
    9da1:	49 89 fe             	mov    %rdi,%r14
    9da4:	48 89 f0             	mov    %rsi,%rax
    9da7:	48 29 f8             	sub    %rdi,%rax
    9daa:	48 3d 81 00 00 00    	cmp    $0x81,%rax
    9db0:	0f 8c 2c 01 00 00    	jl     9ee2 <_ZSt22__final_insertion_sortIN9__gnu_cxx17__normal_iteratorIPdSt6vectorIdSaIdEEEENS0_5__ops15_Iter_less_iterEEvT_S9_T0_+0x152>
    9db6:	48 89 5c 24 10       	mov    %rbx,0x10(%rsp)
    9dbb:	49 8d 6e 08          	lea    0x8(%r14),%rbp
    9dbf:	4d 8d 6e 10          	lea    0x10(%r14),%r13
    9dc3:	41 bc 08 00 00 00    	mov    $0x8,%r12d
    9dc9:	48 89 2c 24          	mov    %rbp,(%rsp)
    9dcd:	4c 89 f3             	mov    %r14,%rbx
    9dd0:	eb 39                	jmp    9e0b <_ZSt22__final_insertion_sortIN9__gnu_cxx17__normal_iteratorIPdSt6vectorIdSaIdEEEENS0_5__ops15_Iter_less_iterEEvT_S9_T0_+0x7b>
    9dd2:	66 66 66 66 66 2e 0f 	data16 data16 data16 data16 cs nopw 0x0(%rax,%rax,1)
    9dd9:	1f 84 00 00 00 00 00 
    9de0:	48 8b 3c 24          	mov    (%rsp),%rdi
    9de4:	4c 89 f6             	mov    %r14,%rsi
    9de7:	c5 fb 11 4c 24 08    	vmovsd %xmm1,0x8(%rsp)
    9ded:	e8 ee 83 ff ff       	call   21e0 <memmove@plt>
    9df2:	c5 fb 10 4c 24 08    	vmovsd 0x8(%rsp),%xmm1
    9df8:	4c 89 f0             	mov    %r14,%rax
    9dfb:	c5 fb 11 08          	vmovsd %xmm1,(%rax)
    9dff:	49 83 c4 10          	add    $0x10,%r12
    9e03:	48 83 c5 10          	add    $0x10,%rbp
    9e07:	49 83 c5 10          	add    $0x10,%r13
    9e0b:	4f 8d 3c 26          	lea    (%r14,%r12,1),%r15
    9e0f:	c4 81 7b 10 0c 26    	vmovsd (%r14,%r12,1),%xmm1
    9e15:	c4 c1 7b 10 06       	vmovsd (%r14),%xmm0
    9e1a:	c5 f9 2e c8          	vucomisd %xmm0,%xmm1
    9e1e:	73 40                	jae    9e60 <_ZSt22__final_insertion_sortIN9__gnu_cxx17__normal_iteratorIPdSt6vectorIdSaIdEEEENS0_5__ops15_Iter_less_iterEEvT_S9_T0_+0xd0>
    9e20:	49 83 fc 09          	cmp    $0x9,%r12
    9e24:	0f 82 ae 00 00 00    	jb     9ed8 <_ZSt22__final_insertion_sortIN9__gnu_cxx17__normal_iteratorIPdSt6vectorIdSaIdEEEENS0_5__ops15_Iter_less_iterEEvT_S9_T0_+0x148>
    9e2a:	48 8b 3c 24          	mov    (%rsp),%rdi
    9e2e:	4c 89 f6             	mov    %r14,%rsi
    9e31:	4c 89 e2             	mov    %r12,%rdx
    9e34:	c5 fb 11 4c 24 08    	vmovsd %xmm1,0x8(%rsp)
    9e3a:	e8 a1 83 ff ff       	call   21e0 <memmove@plt>
    9e3f:	c5 fb 10 4c 24 08    	vmovsd 0x8(%rsp),%xmm1
    9e45:	4c 89 f0             	mov    %r14,%rax
    9e48:	c5 fb 11 08          	vmovsd %xmm1,(%rax)
    9e4c:	49 8d 54 24 08       	lea    0x8(%r12),%rdx
    9e51:	48 81 fa 80 00 00 00 	cmp    $0x80,%rdx
    9e58:	75 3b                	jne    9e95 <_ZSt22__final_insertion_sortIN9__gnu_cxx17__normal_iteratorIPdSt6vectorIdSaIdEEEENS0_5__ops15_Iter_less_iterEEvT_S9_T0_+0x105>
    9e5a:	e9 a6 00 00 00       	jmp    9f05 <_ZSt22__final_insertion_sortIN9__gnu_cxx17__normal_iteratorIPdSt6vectorIdSaIdEEEENS0_5__ops15_Iter_less_iterEEvT_S9_T0_+0x175>
    9e5f:	90                   	nop
    9e60:	c5 fb 10 03          	vmovsd (%rbx),%xmm0
    9e64:	c5 f9 2e c8          	vucomisd %xmm0,%xmm1
    9e68:	4c 89 f8             	mov    %r15,%rax
    9e6b:	73 16                	jae    9e83 <_ZSt22__final_insertion_sortIN9__gnu_cxx17__normal_iteratorIPdSt6vectorIdSaIdEEEENS0_5__ops15_Iter_less_iterEEvT_S9_T0_+0xf3>
    9e6d:	48 89 e8             	mov    %rbp,%rax
    9e70:	c5 fb 11 00          	vmovsd %xmm0,(%rax)
    9e74:	c5 fb 10 40 f0       	vmovsd -0x10(%rax),%xmm0
    9e79:	48 83 c0 f8          	add    $0xfffffffffffffff8,%rax
    9e7d:	c5 f9 2e c8          	vucomisd %xmm0,%xmm1
    9e81:	72 ed                	jb     9e70 <_ZSt22__final_insertion_sortIN9__gnu_cxx17__normal_iteratorIPdSt6vectorIdSaIdEEEENS0_5__ops15_Iter_less_iterEEvT_S9_T0_+0xe0>
    9e83:	c5 fb 11 08          	vmovsd %xmm1,(%rax)
    9e87:	49 8d 54 24 08       	lea    0x8(%r12),%rdx
    9e8c:	48 81 fa 80 00 00 00 	cmp    $0x80,%rdx
    9e93:	74 70                	je     9f05 <_ZSt22__final_insertion_sortIN9__gnu_cxx17__normal_iteratorIPdSt6vectorIdSaIdEEEENS0_5__ops15_Iter_less_iterEEvT_S9_T0_+0x175>
    9e95:	49 8d 1c 16          	lea    (%r14,%rdx,1),%rbx
    9e99:	c4 c1 7b 10 0c 16    	vmovsd (%r14,%rdx,1),%xmm1
    9e9f:	c4 c1 79 2e 0e       	vucomisd (%r14),%xmm1
    9ea4:	0f 82 36 ff ff ff    	jb     9de0 <_ZSt22__final_insertion_sortIN9__gnu_cxx17__normal_iteratorIPdSt6vectorIdSaIdEEEENS0_5__ops15_Iter_less_iterEEvT_S9_T0_+0x50>
    9eaa:	c4 c1 7b 10 07       	vmovsd (%r15),%xmm0
    9eaf:	c5 f9 2e c8          	vucomisd %xmm0,%xmm1
    9eb3:	48 89 d8             	mov    %rbx,%rax
    9eb6:	0f 83 3f ff ff ff    	jae    9dfb <_ZSt22__final_insertion_sortIN9__gnu_cxx17__normal_iteratorIPdSt6vectorIdSaIdEEEENS0_5__ops15_Iter_less_iterEEvT_S9_T0_+0x6b>
    9ebc:	4c 89 e8             	mov    %r13,%rax
    9ebf:	90                   	nop
    9ec0:	c5 fb 11 00          	vmovsd %xmm0,(%rax)
    9ec4:	c5 fb 10 40 f0       	vmovsd -0x10(%rax),%xmm0
    9ec9:	48 83 c0 f8          	add    $0xfffffffffffffff8,%rax
    9ecd:	c5 f9 2e c8          	vucomisd %xmm0,%xmm1
    9ed1:	72 ed                	jb     9ec0 <_ZSt22__final_insertion_sortIN9__gnu_cxx17__normal_iteratorIPdSt6vectorIdSaIdEEEENS0_5__ops15_Iter_less_iterEEvT_S9_T0_+0x130>
    9ed3:	e9 23 ff ff ff       	jmp    9dfb <_ZSt22__final_insertion_sortIN9__gnu_cxx17__normal_iteratorIPdSt6vectorIdSaIdEEEENS0_5__ops15_Iter_less_iterEEvT_S9_T0_+0x6b>
    9ed8:	c5 fb 11 43 08       	vmovsd %xmm0,0x8(%rbx)
    9edd:	e9 63 ff ff ff       	jmp    9e45 <_ZSt22__final_insertion_sortIN9__gnu_cxx17__normal_iteratorIPdSt6vectorIdSaIdEEEENS0_5__ops15_Iter_less_iterEEvT_S9_T0_+0xb5>
    9ee2:	49 39 de             	cmp    %rbx,%r14
    9ee5:	0f 94 c1             	sete   %cl
    9ee8:	49 8d 46 08          	lea    0x8(%r14),%rax
    9eec:	48 39 d8             	cmp    %rbx,%rax
    9eef:	0f 94 c2             	sete   %dl
    9ef2:	08 ca                	or     %cl,%dl
    9ef4:	74 5f                	je     9f55 <_ZSt22__final_insertion_sortIN9__gnu_cxx17__normal_iteratorIPdSt6vectorIdSaIdEEEENS0_5__ops15_Iter_less_iterEEvT_S9_T0_+0x1c5>
    9ef6:	48 83 c4 18          	add    $0x18,%rsp
    9efa:	5b                   	pop    %rbx
    9efb:	41 5c                	pop    %r12
    9efd:	41 5d                	pop    %r13
    9eff:	41 5e                	pop    %r14
    9f01:	41 5f                	pop    %r15
    9f03:	5d                   	pop    %rbp
    9f04:	c3                   	ret
    9f05:	49 83 ee 80          	sub    $0xffffffffffffff80,%r14
    9f09:	48 8b 4c 24 10       	mov    0x10(%rsp),%rcx
    9f0e:	eb 08                	jmp    9f18 <_ZSt22__final_insertion_sortIN9__gnu_cxx17__normal_iteratorIPdSt6vectorIdSaIdEEEENS0_5__ops15_Iter_less_iterEEvT_S9_T0_+0x188>
    9f10:	c5 fb 11 00          	vmovsd %xmm0,(%rax)
    9f14:	49 83 c6 08          	add    $0x8,%r14
    9f18:	49 39 ce             	cmp    %rcx,%r14
    9f1b:	74 d9                	je     9ef6 <_ZSt22__final_insertion_sortIN9__gnu_cxx17__normal_iteratorIPdSt6vectorIdSaIdEEEENS0_5__ops15_Iter_less_iterEEvT_S9_T0_+0x166>
    9f1d:	c4 c1 7b 10 4e f8    	vmovsd -0x8(%r14),%xmm1
    9f23:	c4 c1 7b 10 06       	vmovsd (%r14),%xmm0
    9f28:	c5 f9 2e c1          	vucomisd %xmm1,%xmm0
    9f2c:	4c 89 f0             	mov    %r14,%rax
    9f2f:	73 df                	jae    9f10 <_ZSt22__final_insertion_sortIN9__gnu_cxx17__normal_iteratorIPdSt6vectorIdSaIdEEEENS0_5__ops15_Iter_less_iterEEvT_S9_T0_+0x180>
    9f31:	4c 89 f0             	mov    %r14,%rax
    9f34:	66 66 66 2e 0f 1f 84 	data16 data16 cs nopw 0x0(%rax,%rax,1)
    9f3b:	00 00 00 00 00 
    9f40:	c5 fb 11 08          	vmovsd %xmm1,(%rax)
    9f44:	c5 fb 10 48 f0       	vmovsd -0x10(%rax),%xmm1
    9f49:	48 83 c0 f8          	add    $0xfffffffffffffff8,%rax
    9f4d:	c5 f9 2e c1          	vucomisd %xmm1,%xmm0
    9f51:	72 ed                	jb     9f40 <_ZSt22__final_insertion_sortIN9__gnu_cxx17__normal_iteratorIPdSt6vectorIdSaIdEEEENS0_5__ops15_Iter_less_iterEEvT_S9_T0_+0x1b0>
    9f53:	eb bb                	jmp    9f10 <_ZSt22__final_insertion_sortIN9__gnu_cxx17__normal_iteratorIPdSt6vectorIdSaIdEEEENS0_5__ops15_Iter_less_iterEEvT_S9_T0_+0x180>
    9f55:	4d 89 f7             	mov    %r14,%r15
    9f58:	eb 4a                	jmp    9fa4 <_ZSt22__final_insertion_sortIN9__gnu_cxx17__normal_iteratorIPdSt6vectorIdSaIdEEEENS0_5__ops15_Iter_less_iterEEvT_S9_T0_+0x214>
    9f5a:	66 0f 1f 44 00 00    	nopw   0x0(%rax,%rax,1)
    9f60:	4c 89 fa             	mov    %r15,%rdx
    9f63:	4c 29 f2             	sub    %r14,%rdx
    9f66:	48 89 d0             	mov    %rdx,%rax
    9f69:	48 c1 f8 03          	sar    $0x3,%rax
    9f6d:	48 83 f8 02          	cmp    $0x2,%rax
    9f71:	7c 72                	jl     9fe5 <_ZSt22__final_insertion_sortIN9__gnu_cxx17__normal_iteratorIPdSt6vectorIdSaIdEEEENS0_5__ops15_Iter_less_iterEEvT_S9_T0_+0x255>
    9f73:	48 c1 e0 03          	shl    $0x3,%rax
    9f77:	48 29 c7             	sub    %rax,%rdi
    9f7a:	48 83 c7 10          	add    $0x10,%rdi
    9f7e:	4c 89 f6             	mov    %r14,%rsi
    9f81:	c5 fb 11 0c 24       	vmovsd %xmm1,(%rsp)
    9f86:	e8 55 82 ff ff       	call   21e0 <memmove@plt>
    9f8b:	c5 fb 10 0c 24       	vmovsd (%rsp),%xmm1
    9f90:	4c 89 f0             	mov    %r14,%rax
    9f93:	c5 fb 11 08          	vmovsd %xmm1,(%rax)
    9f97:	49 8d 47 08          	lea    0x8(%r15),%rax
    9f9b:	48 39 d8             	cmp    %rbx,%rax
    9f9e:	0f 84 52 ff ff ff    	je     9ef6 <_ZSt22__final_insertion_sortIN9__gnu_cxx17__normal_iteratorIPdSt6vectorIdSaIdEEEENS0_5__ops15_Iter_less_iterEEvT_S9_T0_+0x166>
    9fa4:	4c 89 ff             	mov    %r15,%rdi
    9fa7:	49 89 c7             	mov    %rax,%r15
    9faa:	c5 fb 10 4f 08       	vmovsd 0x8(%rdi),%xmm1
    9faf:	c4 c1 7b 10 06       	vmovsd (%r14),%xmm0
    9fb4:	c5 f9 2e c8          	vucomisd %xmm0,%xmm1
    9fb8:	72 a6                	jb     9f60 <_ZSt22__final_insertion_sortIN9__gnu_cxx17__normal_iteratorIPdSt6vectorIdSaIdEEEENS0_5__ops15_Iter_less_iterEEvT_S9_T0_+0x1d0>
    9fba:	c5 fb 10 07          	vmovsd (%rdi),%xmm0
    9fbe:	c5 f9 2e c8          	vucomisd %xmm0,%xmm1
    9fc2:	4c 89 f8             	mov    %r15,%rax
    9fc5:	73 cc                	jae    9f93 <_ZSt22__final_insertion_sortIN9__gnu_cxx17__normal_iteratorIPdSt6vectorIdSaIdEEEENS0_5__ops15_Iter_less_iterEEvT_S9_T0_+0x203>
    9fc7:	4c 89 f8             	mov    %r15,%rax
    9fca:	66 0f 1f 44 00 00    	nopw   0x0(%rax,%rax,1)
    9fd0:	c5 fb 11 00          	vmovsd %xmm0,(%rax)
    9fd4:	c5 fb 10 40 f0       	vmovsd -0x10(%rax),%xmm0
    9fd9:	48 83 c0 f8          	add    $0xfffffffffffffff8,%rax
    9fdd:	c5 f9 2e c8          	vucomisd %xmm0,%xmm1
    9fe1:	72 ed                	jb     9fd0 <_ZSt22__final_insertion_sortIN9__gnu_cxx17__normal_iteratorIPdSt6vectorIdSaIdEEEENS0_5__ops15_Iter_less_iterEEvT_S9_T0_+0x240>
    9fe3:	eb ae                	jmp    9f93 <_ZSt22__final_insertion_sortIN9__gnu_cxx17__normal_iteratorIPdSt6vectorIdSaIdEEEENS0_5__ops15_Iter_less_iterEEvT_S9_T0_+0x203>
    9fe5:	4c 89 f0             	mov    %r14,%rax
    9fe8:	48 83 fa 08          	cmp    $0x8,%rdx
    9fec:	75 a5                	jne    9f93 <_ZSt22__final_insertion_sortIN9__gnu_cxx17__normal_iteratorIPdSt6vectorIdSaIdEEEENS0_5__ops15_Iter_less_iterEEvT_S9_T0_+0x203>
    9fee:	c5 fb 11 47 08       	vmovsd %xmm0,0x8(%rdi)
    9ff3:	eb 9b                	jmp    9f90 <_ZSt22__final_insertion_sortIN9__gnu_cxx17__normal_iteratorIPdSt6vectorIdSaIdEEEENS0_5__ops15_Iter_less_iterEEvT_S9_T0_+0x200>
    9ff5:	66 2e 0f 1f 84 00 00 	cs nopw 0x0(%rax,%rax,1)
    9ffc:	00 00 00 
    9fff:	90                   	nop

000000000000a000 <_ZSt11__make_heapIN9__gnu_cxx17__normal_iteratorIPdSt6vectorIdSaIdEEEENS0_5__ops15_Iter_less_iterEEvT_S9_RT0_>:
    a000:	48 29 fe             	sub    %rdi,%rsi
    a003:	48 89 f0             	mov    %rsi,%rax
    a006:	48 c1 f8 03          	sar    $0x3,%rax
    a00a:	48 83 f8 02          	cmp    $0x2,%rax
    a00e:	7d 01                	jge    a011 <_ZSt11__make_heapIN9__gnu_cxx17__normal_iteratorIPdSt6vectorIdSaIdEEEENS0_5__ops15_Iter_less_iterEEvT_S9_RT0_+0x11>
    a010:	c3                   	ret
    a011:	48 8d 50 fe          	lea    -0x2(%rax),%rdx
    a015:	48 89 d1             	mov    %rdx,%rcx
    a018:	48 d1 e9             	shr    $1,%rcx
    a01b:	48 ff c8             	dec    %rax
    a01e:	48 d1 e8             	shr    $1,%rax
    a021:	40 f6 c6 08          	test   $0x8,%sil
    a025:	0f 85 f7 00 00 00    	jne    a122 <_ZSt11__make_heapIN9__gnu_cxx17__normal_iteratorIPdSt6vectorIdSaIdEEEENS0_5__ops15_Iter_less_iterEEvT_S9_RT0_+0x122>
    a02b:	48 83 ca 01          	or     $0x1,%rdx
    a02f:	48 89 ce             	mov    %rcx,%rsi
    a032:	eb 1b                	jmp    a04f <_ZSt11__make_heapIN9__gnu_cxx17__normal_iteratorIPdSt6vectorIdSaIdEEEENS0_5__ops15_Iter_less_iterEEvT_S9_RT0_+0x4f>
    a034:	66 66 66 2e 0f 1f 84 	data16 data16 cs nopw 0x0(%rax,%rax,1)
    a03b:	00 00 00 00 00 
    a040:	4d 89 c1             	mov    %r8,%r9
    a043:	c4 a1 7b 11 04 cf    	vmovsd %xmm0,(%rdi,%r9,8)
    a049:	48 83 ee 01          	sub    $0x1,%rsi
    a04d:	72 c1                	jb     a010 <_ZSt11__make_heapIN9__gnu_cxx17__normal_iteratorIPdSt6vectorIdSaIdEEEENS0_5__ops15_Iter_less_iterEEvT_S9_RT0_+0x10>
    a04f:	c5 fb 10 04 f7       	vmovsd (%rdi,%rsi,8),%xmm0
    a054:	49 89 f0             	mov    %rsi,%r8
    a057:	48 39 c6             	cmp    %rax,%rsi
    a05a:	7d 54                	jge    a0b0 <_ZSt11__make_heapIN9__gnu_cxx17__normal_iteratorIPdSt6vectorIdSaIdEEEENS0_5__ops15_Iter_less_iterEEvT_S9_RT0_+0xb0>
    a05c:	49 89 f1             	mov    %rsi,%r9
    a05f:	eb 2b                	jmp    a08c <_ZSt11__make_heapIN9__gnu_cxx17__normal_iteratorIPdSt6vectorIdSaIdEEEENS0_5__ops15_Iter_less_iterEEvT_S9_RT0_+0x8c>
    a061:	66 66 66 66 66 66 2e 	data16 data16 data16 data16 data16 cs nopw 0x0(%rax,%rax,1)
    a068:	0f 1f 84 00 00 00 00 
    a06f:	00 
    a070:	4e 8d 04 4d 02 00 00 	lea    0x2(,%r9,2),%r8
    a077:	00 
    a078:	c4 a1 7b 10 0c c7    	vmovsd (%rdi,%r8,8),%xmm1
    a07e:	c4 a1 7b 11 0c cf    	vmovsd %xmm1,(%rdi,%r9,8)
    a084:	4d 89 c1             	mov    %r8,%r9
    a087:	49 39 c0             	cmp    %rax,%r8
    a08a:	7d 24                	jge    a0b0 <_ZSt11__make_heapIN9__gnu_cxx17__normal_iteratorIPdSt6vectorIdSaIdEEEENS0_5__ops15_Iter_less_iterEEvT_S9_RT0_+0xb0>
    a08c:	4f 8d 04 09          	lea    (%r9,%r9,1),%r8
    a090:	c4 a1 7b 10 4c c7 10 	vmovsd 0x10(%rdi,%r8,8),%xmm1
    a097:	c4 a1 79 2e 4c c7 08 	vucomisd 0x8(%rdi,%r8,8),%xmm1
    a09e:	73 d0                	jae    a070 <_ZSt11__make_heapIN9__gnu_cxx17__normal_iteratorIPdSt6vectorIdSaIdEEEENS0_5__ops15_Iter_less_iterEEvT_S9_RT0_+0x70>
    a0a0:	4e 8d 04 4d 01 00 00 	lea    0x1(,%r9,2),%r8
    a0a7:	00 
    a0a8:	eb ce                	jmp    a078 <_ZSt11__make_heapIN9__gnu_cxx17__normal_iteratorIPdSt6vectorIdSaIdEEEENS0_5__ops15_Iter_less_iterEEvT_S9_RT0_+0x78>
    a0aa:	66 0f 1f 44 00 00    	nopw   0x0(%rax,%rax,1)
    a0b0:	49 39 c8             	cmp    %rcx,%r8
    a0b3:	75 0d                	jne    a0c2 <_ZSt11__make_heapIN9__gnu_cxx17__normal_iteratorIPdSt6vectorIdSaIdEEEENS0_5__ops15_Iter_less_iterEEvT_S9_RT0_+0xc2>
    a0b5:	c5 fb 10 0c d7       	vmovsd (%rdi,%rdx,8),%xmm1
    a0ba:	c5 fb 11 0c cf       	vmovsd %xmm1,(%rdi,%rcx,8)
    a0bf:	49 89 d0             	mov    %rdx,%r8
    a0c2:	49 39 f0             	cmp    %rsi,%r8
    a0c5:	0f 8e 75 ff ff ff    	jle    a040 <_ZSt11__make_heapIN9__gnu_cxx17__normal_iteratorIPdSt6vectorIdSaIdEEEENS0_5__ops15_Iter_less_iterEEvT_S9_RT0_+0x40>
    a0cb:	0f 1f 44 00 00       	nopl   0x0(%rax,%rax,1)
    a0d0:	4d 8d 48 ff          	lea    -0x1(%r8),%r9
    a0d4:	49 c1 e9 3f          	shr    $0x3f,%r9
    a0d8:	4d 01 c1             	add    %r8,%r9
    a0db:	49 ff c9             	dec    %r9
    a0de:	49 d1 f9             	sar    $1,%r9
    a0e1:	c4 a1 7b 10 0c cf    	vmovsd (%rdi,%r9,8),%xmm1
    a0e7:	c5 f9 2e c1          	vucomisd %xmm1,%xmm0
    a0eb:	0f 86 4f ff ff ff    	jbe    a040 <_ZSt11__make_heapIN9__gnu_cxx17__normal_iteratorIPdSt6vectorIdSaIdEEEENS0_5__ops15_Iter_less_iterEEvT_S9_RT0_+0x40>
    a0f1:	c4 a1 7b 11 0c c7    	vmovsd %xmm1,(%rdi,%r8,8)
    a0f7:	4d 89 c8             	mov    %r9,%r8
    a0fa:	49 39 f1             	cmp    %rsi,%r9
    a0fd:	7f d1                	jg     a0d0 <_ZSt11__make_heapIN9__gnu_cxx17__normal_iteratorIPdSt6vectorIdSaIdEEEENS0_5__ops15_Iter_less_iterEEvT_S9_RT0_+0xd0>
    a0ff:	e9 3f ff ff ff       	jmp    a043 <_ZSt11__make_heapIN9__gnu_cxx17__normal_iteratorIPdSt6vectorIdSaIdEEEENS0_5__ops15_Iter_less_iterEEvT_S9_RT0_+0x43>
    a104:	66 66 66 2e 0f 1f 84 	data16 data16 cs nopw 0x0(%rax,%rax,1)
    a10b:	00 00 00 00 00 
    a110:	48 89 d6             	mov    %rdx,%rsi
    a113:	c5 fb 11 04 f7       	vmovsd %xmm0,(%rdi,%rsi,8)
    a118:	48 83 e9 01          	sub    $0x1,%rcx
    a11c:	0f 82 ee fe ff ff    	jb     a010 <_ZSt11__make_heapIN9__gnu_cxx17__normal_iteratorIPdSt6vectorIdSaIdEEEENS0_5__ops15_Iter_less_iterEEvT_S9_RT0_+0x10>
    a122:	c5 fb 10 04 cf       	vmovsd (%rdi,%rcx,8),%xmm0
    a127:	48 89 ce             	mov    %rcx,%rsi
    a12a:	48 39 c1             	cmp    %rax,%rcx
    a12d:	7d e4                	jge    a113 <_ZSt11__make_heapIN9__gnu_cxx17__normal_iteratorIPdSt6vectorIdSaIdEEEENS0_5__ops15_Iter_less_iterEEvT_S9_RT0_+0x113>
    a12f:	48 89 ce             	mov    %rcx,%rsi
    a132:	eb 26                	jmp    a15a <_ZSt11__make_heapIN9__gnu_cxx17__normal_iteratorIPdSt6vectorIdSaIdEEEENS0_5__ops15_Iter_less_iterEEvT_S9_RT0_+0x15a>
    a134:	66 66 66 2e 0f 1f 84 	data16 data16 cs nopw 0x0(%rax,%rax,1)
    a13b:	00 00 00 00 00 
    a140:	48 8d 14 75 02 00 00 	lea    0x2(,%rsi,2),%rdx
    a147:	00 
    a148:	c5 fb 10 0c d7       	vmovsd (%rdi,%rdx,8),%xmm1
    a14d:	c5 fb 11 0c f7       	vmovsd %xmm1,(%rdi,%rsi,8)
    a152:	48 89 d6             	mov    %rdx,%rsi
    a155:	48 39 c2             	cmp    %rax,%rdx
    a158:	7d 26                	jge    a180 <_ZSt11__make_heapIN9__gnu_cxx17__normal_iteratorIPdSt6vectorIdSaIdEEEENS0_5__ops15_Iter_less_iterEEvT_S9_RT0_+0x180>
    a15a:	48 8d 14 36          	lea    (%rsi,%rsi,1),%rdx
    a15e:	c5 fb 10 4c d7 10    	vmovsd 0x10(%rdi,%rdx,8),%xmm1
    a164:	c5 f9 2e 4c d7 08    	vucomisd 0x8(%rdi,%rdx,8),%xmm1
    a16a:	73 d4                	jae    a140 <_ZSt11__make_heapIN9__gnu_cxx17__normal_iteratorIPdSt6vectorIdSaIdEEEENS0_5__ops15_Iter_less_iterEEvT_S9_RT0_+0x140>
    a16c:	48 8d 14 75 01 00 00 	lea    0x1(,%rsi,2),%rdx
    a173:	00 
    a174:	eb d2                	jmp    a148 <_ZSt11__make_heapIN9__gnu_cxx17__normal_iteratorIPdSt6vectorIdSaIdEEEENS0_5__ops15_Iter_less_iterEEvT_S9_RT0_+0x148>
    a176:	66 2e 0f 1f 84 00 00 	cs nopw 0x0(%rax,%rax,1)
    a17d:	00 00 00 
    a180:	48 39 ca             	cmp    %rcx,%rdx
    a183:	7e 8b                	jle    a110 <_ZSt11__make_heapIN9__gnu_cxx17__normal_iteratorIPdSt6vectorIdSaIdEEEENS0_5__ops15_Iter_less_iterEEvT_S9_RT0_+0x110>
    a185:	66 66 2e 0f 1f 84 00 	data16 cs nopw 0x0(%rax,%rax,1)
    a18c:	00 00 00 00 
    a190:	48 8d 72 ff          	lea    -0x1(%rdx),%rsi
    a194:	48 c1 ee 3f          	shr    $0x3f,%rsi
    a198:	48 01 d6             	add    %rdx,%rsi
    a19b:	48 ff ce             	dec    %rsi
    a19e:	48 d1 fe             	sar    $1,%rsi
    a1a1:	c5 fb 10 0c f7       	vmovsd (%rdi,%rsi,8),%xmm1
    a1a6:	c5 f9 2e c1          	vucomisd %xmm1,%xmm0
    a1aa:	0f 86 60 ff ff ff    	jbe    a110 <_ZSt11__make_heapIN9__gnu_cxx17__normal_iteratorIPdSt6vectorIdSaIdEEEENS0_5__ops15_Iter_less_iterEEvT_S9_RT0_+0x110>
    a1b0:	c5 fb 11 0c d7       	vmovsd %xmm1,(%rdi,%rdx,8)
    a1b5:	48 89 f2             	mov    %rsi,%rdx
    a1b8:	48 39 ce             	cmp    %rcx,%rsi
    a1bb:	7f d3                	jg     a190 <_ZSt11__make_heapIN9__gnu_cxx17__normal_iteratorIPdSt6vectorIdSaIdEEEENS0_5__ops15_Iter_less_iterEEvT_S9_RT0_+0x190>
    a1bd:	e9 51 ff ff ff       	jmp    a113 <_ZSt11__make_heapIN9__gnu_cxx17__normal_iteratorIPdSt6vectorIdSaIdEEEENS0_5__ops15_Iter_less_iterEEvT_S9_RT0_+0x113>
    a1c2:	66 2e 0f 1f 84 00 00 	cs nopw 0x0(%rax,%rax,1)
    a1c9:	00 00 00 
    a1cc:	0f 1f 40 00          	nopl   0x0(%rax)

000000000000a1d0 <_ZNSt7__cxx1112basic_stringIcSt11char_traitsIcESaIcEE10_M_replaceEmmPKcm>:
    a1d0:	41 57                	push   %r15
    a1d2:	41 56                	push   %r14
    a1d4:	41 55                	push   %r13
    a1d6:	41 54                	push   %r12
    a1d8:	53                   	push   %rbx
    a1d9:	48 89 fb             	mov    %rdi,%rbx
    a1dc:	48 8b 47 08          	mov    0x8(%rdi),%rax
    a1e0:	48 89 d7             	mov    %rdx,%rdi
    a1e3:	48 29 c7             	sub    %rax,%rdi
    a1e6:	49 b9 ff ff ff ff ff 	movabs $0x7fffffffffffffff,%r9
    a1ed:	ff ff 7f 
    a1f0:	49 01 f9             	add    %rdi,%r9
    a1f3:	4d 39 c1             	cmp    %r8,%r9
    a1f6:	0f 82 e1 00 00 00    	jb     a2dd <_ZNSt7__cxx1112basic_stringIcSt11char_traitsIcESaIcEE10_M_replaceEmmPKcm+0x10d>
    a1fc:	4d 89 c7             	mov    %r8,%r15
    a1ff:	49 29 d7             	sub    %rdx,%r15
    a202:	49 01 c7             	add    %rax,%r15
    a205:	48 8b 3b             	mov    (%rbx),%rdi
    a208:	4c 8d 53 10          	lea    0x10(%rbx),%r10
    a20c:	41 b9 0f 00 00 00    	mov    $0xf,%r9d
    a212:	4c 39 d7             	cmp    %r10,%rdi
    a215:	74 04                	je     a21b <_ZNSt7__cxx1112basic_stringIcSt11char_traitsIcESaIcEE10_M_replaceEmmPKcm+0x4b>
    a217:	4c 8b 4b 10          	mov    0x10(%rbx),%r9
    a21b:	4d 39 cf             	cmp    %r9,%r15
    a21e:	76 0d                	jbe    a22d <_ZNSt7__cxx1112basic_stringIcSt11char_traitsIcESaIcEE10_M_replaceEmmPKcm+0x5d>
    a220:	48 89 df             	mov    %rbx,%rdi
    a223:	e8 c8 00 00 00       	call   a2f0 <_ZNSt7__cxx1112basic_stringIcSt11char_traitsIcESaIcEE9_M_mutateEmmPKcm>
    a228:	e9 8a 00 00 00       	jmp    a2b7 <_ZNSt7__cxx1112basic_stringIcSt11char_traitsIcESaIcEE10_M_replaceEmmPKcm+0xe7>
    a22d:	4c 8d 34 37          	lea    (%rdi,%rsi,1),%r14
    a231:	48 01 d6             	add    %rdx,%rsi
    a234:	49 89 c1             	mov    %rax,%r9
    a237:	49 29 f1             	sub    %rsi,%r9
    a23a:	48 39 f9             	cmp    %rdi,%rcx
    a23d:	41 0f 92 c2          	setb   %r10b
    a241:	48 01 c7             	add    %rax,%rdi
    a244:	48 39 cf             	cmp    %rcx,%rdi
    a247:	40 0f 92 c7          	setb   %dil
    a24b:	44 08 d7             	or     %r10b,%dil
    a24e:	40 80 ff 01          	cmp    $0x1,%dil
    a252:	75 7c                	jne    a2d0 <_ZNSt7__cxx1112basic_stringIcSt11char_traitsIcESaIcEE10_M_replaceEmmPKcm+0x100>
    a254:	48 39 f0             	cmp    %rsi,%rax
    a257:	0f 94 c0             	sete   %al
    a25a:	49 39 d0             	cmp    %rdx,%r8
    a25d:	40 0f 94 c6          	sete   %sil
    a261:	40 08 c6             	or     %al,%sil
    a264:	75 12                	jne    a278 <_ZNSt7__cxx1112basic_stringIcSt11char_traitsIcESaIcEE10_M_replaceEmmPKcm+0xa8>
    a266:	4b 8d 3c 06          	lea    (%r14,%r8,1),%rdi
    a26a:	4c 01 f2             	add    %r14,%rdx
    a26d:	49 83 f9 01          	cmp    $0x1,%r9
    a271:	75 28                	jne    a29b <_ZNSt7__cxx1112basic_stringIcSt11char_traitsIcESaIcEE10_M_replaceEmmPKcm+0xcb>
    a273:	0f b6 02             	movzbl (%rdx),%eax
    a276:	88 07                	mov    %al,(%rdi)
    a278:	4d 85 c0             	test   %r8,%r8
    a27b:	74 3a                	je     a2b7 <_ZNSt7__cxx1112basic_stringIcSt11char_traitsIcESaIcEE10_M_replaceEmmPKcm+0xe7>
    a27d:	49 83 f8 01          	cmp    $0x1,%r8
    a281:	75 08                	jne    a28b <_ZNSt7__cxx1112basic_stringIcSt11char_traitsIcESaIcEE10_M_replaceEmmPKcm+0xbb>
    a283:	0f b6 01             	movzbl (%rcx),%eax
    a286:	41 88 06             	mov    %al,(%r14)
    a289:	eb 2c                	jmp    a2b7 <_ZNSt7__cxx1112basic_stringIcSt11char_traitsIcESaIcEE10_M_replaceEmmPKcm+0xe7>
    a28b:	4c 89 f7             	mov    %r14,%rdi
    a28e:	48 89 ce             	mov    %rcx,%rsi
    a291:	4c 89 c2             	mov    %r8,%rdx
    a294:	e8 57 7e ff ff       	call   20f0 <memcpy@plt>
    a299:	eb 1c                	jmp    a2b7 <_ZNSt7__cxx1112basic_stringIcSt11char_traitsIcESaIcEE10_M_replaceEmmPKcm+0xe7>
    a29b:	48 89 d6             	mov    %rdx,%rsi
    a29e:	4c 89 ca             	mov    %r9,%rdx
    a2a1:	4d 89 c4             	mov    %r8,%r12
    a2a4:	49 89 cd             	mov    %rcx,%r13
    a2a7:	e8 34 7f ff ff       	call   21e0 <memmove@plt>
    a2ac:	4c 89 e9             	mov    %r13,%rcx
    a2af:	4d 89 e0             	mov    %r12,%r8
    a2b2:	4d 85 c0             	test   %r8,%r8
    a2b5:	75 c6                	jne    a27d <_ZNSt7__cxx1112basic_stringIcSt11char_traitsIcESaIcEE10_M_replaceEmmPKcm+0xad>
    a2b7:	4c 89 7b 08          	mov    %r15,0x8(%rbx)
    a2bb:	48 8b 03             	mov    (%rbx),%rax
    a2be:	42 c6 04 38 00       	movb   $0x0,(%rax,%r15,1)
    a2c3:	48 89 d8             	mov    %rbx,%rax
    a2c6:	5b                   	pop    %rbx
    a2c7:	41 5c                	pop    %r12
    a2c9:	41 5d                	pop    %r13
    a2cb:	41 5e                	pop    %r14
    a2cd:	41 5f                	pop    %r15
    a2cf:	c3                   	ret
    a2d0:	48 89 df             	mov    %rbx,%rdi
    a2d3:	4c 89 f6             	mov    %r14,%rsi
    a2d6:	e8 b5 7e ff ff       	call   2190 <_ZNSt7__cxx1112basic_stringIcSt11char_traitsIcESaIcEE15_M_replace_coldEPcmPKcmm@plt>
    a2db:	eb da                	jmp    a2b7 <_ZNSt7__cxx1112basic_stringIcSt11char_traitsIcESaIcEE10_M_replaceEmmPKcm+0xe7>
    a2dd:	48 8d 3d e4 13 00 00 	lea    0x13e4(%rip),%rdi        # b6c8 <_IO_stdin_used+0x6c8>
    a2e4:	e8 a7 7d ff ff       	call   2090 <_ZSt20__throw_length_errorPKc@plt>
    a2e9:	0f 1f 80 00 00 00 00 	nopl   0x0(%rax)

000000000000a2f0 <_ZNSt7__cxx1112basic_stringIcSt11char_traitsIcESaIcEE9_M_mutateEmmPKcm>:
    a2f0:	55                   	push   %rbp
    a2f1:	41 57                	push   %r15
    a2f3:	41 56                	push   %r14
    a2f5:	41 55                	push   %r13
    a2f7:	41 54                	push   %r12
    a2f9:	53                   	push   %rbx
    a2fa:	48 83 ec 38          	sub    $0x38,%rsp
    a2fe:	48 89 4c 24 10       	mov    %rcx,0x10(%rsp)
    a303:	48 8b 2f             	mov    (%rdi),%rbp
    a306:	4c 8b 6f 08          	mov    0x8(%rdi),%r13
    a30a:	4d 89 c7             	mov    %r8,%r15
    a30d:	48 89 54 24 20       	mov    %rdx,0x20(%rsp)
    a312:	49 29 d7             	sub    %rdx,%r15
    a315:	48 8d 57 10          	lea    0x10(%rdi),%rdx
    a319:	48 39 d5             	cmp    %rdx,%rbp
    a31c:	48 8b 4f 10          	mov    0x10(%rdi),%rcx
    a320:	b8 0f 00 00 00       	mov    $0xf,%eax
    a325:	48 0f 45 c1          	cmovne %rcx,%rax
    a329:	4d 01 ef             	add    %r13,%r15
    a32c:	0f 88 5b 01 00 00    	js     a48d <_ZNSt7__cxx1112basic_stringIcSt11char_traitsIcESaIcEE9_M_mutateEmmPKcm+0x19d>
    a332:	4d 89 c6             	mov    %r8,%r14
    a335:	49 89 f4             	mov    %rsi,%r12
    a338:	48 89 fb             	mov    %rdi,%rbx
    a33b:	49 39 c7             	cmp    %rax,%r15
    a33e:	48 89 4c 24 28       	mov    %rcx,0x28(%rsp)
    a343:	48 89 54 24 30       	mov    %rdx,0x30(%rsp)
    a348:	76 19                	jbe    a363 <_ZNSt7__cxx1112basic_stringIcSt11char_traitsIcESaIcEE9_M_mutateEmmPKcm+0x73>
    a34a:	48 01 c0             	add    %rax,%rax
    a34d:	49 39 c7             	cmp    %rax,%r15
    a350:	73 11                	jae    a363 <_ZNSt7__cxx1112basic_stringIcSt11char_traitsIcESaIcEE9_M_mutateEmmPKcm+0x73>
    a352:	49 bf ff ff ff ff ff 	movabs $0x7fffffffffffffff,%r15
    a359:	ff ff 7f 
    a35c:	4c 39 f8             	cmp    %r15,%rax
    a35f:	4c 0f 42 f8          	cmovb  %rax,%r15
    a363:	4c 89 ff             	mov    %r15,%rdi
    a366:	48 ff c7             	inc    %rdi
    a369:	0f 88 19 01 00 00    	js     a488 <_ZNSt7__cxx1112basic_stringIcSt11char_traitsIcESaIcEE9_M_mutateEmmPKcm+0x198>
    a36f:	e8 9c 7d ff ff       	call   2110 <_Znwm@plt>
    a374:	48 89 c2             	mov    %rax,%rdx
    a377:	4d 85 e4             	test   %r12,%r12
    a37a:	48 89 44 24 08       	mov    %rax,0x8(%rsp)
    a37f:	74 21                	je     a3a2 <_ZNSt7__cxx1112basic_stringIcSt11char_traitsIcESaIcEE9_M_mutateEmmPKcm+0xb2>
    a381:	49 83 fc 01          	cmp    $0x1,%r12
    a385:	75 08                	jne    a38f <_ZNSt7__cxx1112basic_stringIcSt11char_traitsIcESaIcEE9_M_mutateEmmPKcm+0x9f>
    a387:	0f b6 45 00          	movzbl 0x0(%rbp),%eax
    a38b:	88 02                	mov    %al,(%rdx)
    a38d:	eb 13                	jmp    a3a2 <_ZNSt7__cxx1112basic_stringIcSt11char_traitsIcESaIcEE9_M_mutateEmmPKcm+0xb2>
    a38f:	48 89 d7             	mov    %rdx,%rdi
    a392:	48 89 ee             	mov    %rbp,%rsi
    a395:	4c 89 e2             	mov    %r12,%rdx
    a398:	e8 53 7d ff ff       	call   20f0 <memcpy@plt>
    a39d:	48 8b 54 24 08       	mov    0x8(%rsp),%rdx
    a3a2:	48 89 6c 24 18       	mov    %rbp,0x18(%rsp)
    a3a7:	48 8b 44 24 20       	mov    0x20(%rsp),%rax
    a3ac:	4a 8d 2c 20          	lea    (%rax,%r12,1),%rbp
    a3b0:	48 83 7c 24 10 00    	cmpq   $0x0,0x10(%rsp)
    a3b6:	0f 94 c0             	sete   %al
    a3b9:	4d 85 f6             	test   %r14,%r14
    a3bc:	0f 94 c1             	sete   %cl
    a3bf:	08 c1                	or     %al,%cl
    a3c1:	74 39                	je     a3fc <_ZNSt7__cxx1112basic_stringIcSt11char_traitsIcESaIcEE9_M_mutateEmmPKcm+0x10c>
    a3c3:	49 39 ed             	cmp    %rbp,%r13
    a3c6:	75 66                	jne    a42e <_ZNSt7__cxx1112basic_stringIcSt11char_traitsIcESaIcEE9_M_mutateEmmPKcm+0x13e>
    a3c8:	48 8b 7c 24 18       	mov    0x18(%rsp),%rdi
    a3cd:	48 3b 7c 24 30       	cmp    0x30(%rsp),%rdi
    a3d2:	74 12                	je     a3e6 <_ZNSt7__cxx1112basic_stringIcSt11char_traitsIcESaIcEE9_M_mutateEmmPKcm+0xf6>
    a3d4:	48 8b 74 24 28       	mov    0x28(%rsp),%rsi
    a3d9:	48 ff c6             	inc    %rsi
    a3dc:	e8 3f 7d ff ff       	call   2120 <_ZdlPvm@plt>
    a3e1:	48 8b 54 24 08       	mov    0x8(%rsp),%rdx
    a3e6:	48 89 13             	mov    %rdx,(%rbx)
    a3e9:	4c 89 7b 10          	mov    %r15,0x10(%rbx)
    a3ed:	48 83 c4 38          	add    $0x38,%rsp
    a3f1:	5b                   	pop    %rbx
    a3f2:	41 5c                	pop    %r12
    a3f4:	41 5d                	pop    %r13
    a3f6:	41 5e                	pop    %r14
    a3f8:	41 5f                	pop    %r15
    a3fa:	5d                   	pop    %rbp
    a3fb:	c3                   	ret
    a3fc:	4a 8d 3c 22          	lea    (%rdx,%r12,1),%rdi
    a400:	49 83 fe 01          	cmp    $0x1,%r14
    a404:	75 11                	jne    a417 <_ZNSt7__cxx1112basic_stringIcSt11char_traitsIcESaIcEE9_M_mutateEmmPKcm+0x127>
    a406:	48 8b 44 24 10       	mov    0x10(%rsp),%rax
    a40b:	0f b6 00             	movzbl (%rax),%eax
    a40e:	88 07                	mov    %al,(%rdi)
    a410:	49 39 ed             	cmp    %rbp,%r13
    a413:	74 b3                	je     a3c8 <_ZNSt7__cxx1112basic_stringIcSt11char_traitsIcESaIcEE9_M_mutateEmmPKcm+0xd8>
    a415:	eb 17                	jmp    a42e <_ZNSt7__cxx1112basic_stringIcSt11char_traitsIcESaIcEE9_M_mutateEmmPKcm+0x13e>
    a417:	48 8b 74 24 10       	mov    0x10(%rsp),%rsi
    a41c:	4c 89 f2             	mov    %r14,%rdx
    a41f:	e8 cc 7c ff ff       	call   20f0 <memcpy@plt>
    a424:	48 8b 54 24 08       	mov    0x8(%rsp),%rdx
    a429:	49 39 ed             	cmp    %rbp,%r13
    a42c:	74 9a                	je     a3c8 <_ZNSt7__cxx1112basic_stringIcSt11char_traitsIcESaIcEE9_M_mutateEmmPKcm+0xd8>
    a42e:	49 29 ed             	sub    %rbp,%r13
    a431:	48 89 d7             	mov    %rdx,%rdi
    a434:	4c 01 e7             	add    %r12,%rdi
    a437:	4c 01 f7             	add    %r14,%rdi
    a43a:	4c 03 64 24 18       	add    0x18(%rsp),%r12
    a43f:	4c 03 64 24 20       	add    0x20(%rsp),%r12
    a444:	49 83 fd 01          	cmp    $0x1,%r13
    a448:	75 19                	jne    a463 <_ZNSt7__cxx1112basic_stringIcSt11char_traitsIcESaIcEE9_M_mutateEmmPKcm+0x173>
    a44a:	41 0f b6 04 24       	movzbl (%r12),%eax
    a44f:	88 07                	mov    %al,(%rdi)
    a451:	48 8b 7c 24 18       	mov    0x18(%rsp),%rdi
    a456:	48 3b 7c 24 30       	cmp    0x30(%rsp),%rdi
    a45b:	0f 85 73 ff ff ff    	jne    a3d4 <_ZNSt7__cxx1112basic_stringIcSt11char_traitsIcESaIcEE9_M_mutateEmmPKcm+0xe4>
    a461:	eb 83                	jmp    a3e6 <_ZNSt7__cxx1112basic_stringIcSt11char_traitsIcESaIcEE9_M_mutateEmmPKcm+0xf6>
    a463:	4c 89 e6             	mov    %r12,%rsi
    a466:	4c 89 ea             	mov    %r13,%rdx
    a469:	e8 82 7c ff ff       	call   20f0 <memcpy@plt>
    a46e:	48 8b 54 24 08       	mov    0x8(%rsp),%rdx
    a473:	48 8b 7c 24 18       	mov    0x18(%rsp),%rdi
    a478:	48 3b 7c 24 30       	cmp    0x30(%rsp),%rdi
    a47d:	0f 85 51 ff ff ff    	jne    a3d4 <_ZNSt7__cxx1112basic_stringIcSt11char_traitsIcESaIcEE9_M_mutateEmmPKcm+0xe4>
    a483:	e9 5e ff ff ff       	jmp    a3e6 <_ZNSt7__cxx1112basic_stringIcSt11char_traitsIcESaIcEE9_M_mutateEmmPKcm+0xf6>
    a488:	e8 d3 7b ff ff       	call   2060 <_ZSt17__throw_bad_allocv@plt>
    a48d:	48 8d 3d 4d 12 00 00 	lea    0x124d(%rip),%rdi        # b6e1 <_IO_stdin_used+0x6e1>
    a494:	e8 f7 7b ff ff       	call   2090 <_ZSt20__throw_length_errorPKc@plt>
    a499:	0f 1f 80 00 00 00 00 	nopl   0x0(%rax)

000000000000a4a0 <_ZNSt7__cxx1112basic_stringIcSt11char_traitsIcESaIcEE9_M_assignERKS4_>:
    a4a0:	55                   	push   %rbp
    a4a1:	41 57                	push   %r15
    a4a3:	41 56                	push   %r14
    a4a5:	41 55                	push   %r13
    a4a7:	41 54                	push   %r12
    a4a9:	53                   	push   %rbx
    a4aa:	50                   	push   %rax
    a4ab:	48 39 f7             	cmp    %rsi,%rdi
    a4ae:	0f 84 b8 00 00 00    	je     a56c <_ZNSt7__cxx1112basic_stringIcSt11char_traitsIcESaIcEE9_M_assignERKS4_+0xcc>
    a4b4:	48 89 fb             	mov    %rdi,%rbx
    a4b7:	4c 8b 76 08          	mov    0x8(%rsi),%r14
    a4bb:	4c 8b 3f             	mov    (%rdi),%r15
    a4be:	4c 8b 67 10          	mov    0x10(%rdi),%r12
    a4c2:	48 8d 6f 10          	lea    0x10(%rdi),%rbp
    a4c6:	49 39 ef             	cmp    %rbp,%r15
    a4c9:	b8 0f 00 00 00       	mov    $0xf,%eax
    a4ce:	49 0f 45 c4          	cmovne %r12,%rax
    a4d2:	49 39 c6             	cmp    %rax,%r14
    a4d5:	76 70                	jbe    a547 <_ZNSt7__cxx1112basic_stringIcSt11char_traitsIcESaIcEE9_M_assignERKS4_+0xa7>
    a4d7:	4d 85 f6             	test   %r14,%r14
    a4da:	0f 88 ae 00 00 00    	js     a58e <_ZNSt7__cxx1112basic_stringIcSt11char_traitsIcESaIcEE9_M_assignERKS4_+0xee>
    a4e0:	48 01 c0             	add    %rax,%rax
    a4e3:	49 bd ff ff ff ff ff 	movabs $0x7fffffffffffffff,%r13
    a4ea:	ff ff 7f 
    a4ed:	4c 39 e8             	cmp    %r13,%rax
    a4f0:	4c 0f 42 e8          	cmovb  %rax,%r13
    a4f4:	49 39 c6             	cmp    %rax,%r14
    a4f7:	4d 0f 43 ee          	cmovae %r14,%r13
    a4fb:	4c 89 ef             	mov    %r13,%rdi
    a4fe:	48 ff c7             	inc    %rdi
    a501:	0f 88 82 00 00 00    	js     a589 <_ZNSt7__cxx1112basic_stringIcSt11char_traitsIcESaIcEE9_M_assignERKS4_+0xe9>
    a507:	48 89 34 24          	mov    %rsi,(%rsp)
    a50b:	e8 00 7c ff ff       	call   2110 <_Znwm@plt>
    a510:	48 89 c7             	mov    %rax,%rdi
    a513:	49 39 ef             	cmp    %rbp,%r15
    a516:	74 14                	je     a52c <_ZNSt7__cxx1112basic_stringIcSt11char_traitsIcESaIcEE9_M_assignERKS4_+0x8c>
    a518:	49 ff c4             	inc    %r12
    a51b:	48 89 fd             	mov    %rdi,%rbp
    a51e:	4c 89 ff             	mov    %r15,%rdi
    a521:	4c 89 e6             	mov    %r12,%rsi
    a524:	e8 f7 7b ff ff       	call   2120 <_ZdlPvm@plt>
    a529:	48 89 ef             	mov    %rbp,%rdi
    a52c:	48 89 3b             	mov    %rdi,(%rbx)
    a52f:	4c 89 6b 10          	mov    %r13,0x10(%rbx)
    a533:	48 8b 34 24          	mov    (%rsp),%rsi
    a537:	48 8b 36             	mov    (%rsi),%rsi
    a53a:	49 83 fe 01          	cmp    $0x1,%r14
    a53e:	75 18                	jne    a558 <_ZNSt7__cxx1112basic_stringIcSt11char_traitsIcESaIcEE9_M_assignERKS4_+0xb8>
    a540:	0f b6 06             	movzbl (%rsi),%eax
    a543:	88 07                	mov    %al,(%rdi)
    a545:	eb 19                	jmp    a560 <_ZNSt7__cxx1112basic_stringIcSt11char_traitsIcESaIcEE9_M_assignERKS4_+0xc0>
    a547:	4d 85 f6             	test   %r14,%r14
    a54a:	74 2f                	je     a57b <_ZNSt7__cxx1112basic_stringIcSt11char_traitsIcESaIcEE9_M_assignERKS4_+0xdb>
    a54c:	4c 89 ff             	mov    %r15,%rdi
    a54f:	48 8b 36             	mov    (%rsi),%rsi
    a552:	49 83 fe 01          	cmp    $0x1,%r14
    a556:	74 e8                	je     a540 <_ZNSt7__cxx1112basic_stringIcSt11char_traitsIcESaIcEE9_M_assignERKS4_+0xa0>
    a558:	4c 89 f2             	mov    %r14,%rdx
    a55b:	e8 90 7b ff ff       	call   20f0 <memcpy@plt>
    a560:	4c 89 73 08          	mov    %r14,0x8(%rbx)
    a564:	48 8b 03             	mov    (%rbx),%rax
    a567:	42 c6 04 30 00       	movb   $0x0,(%rax,%r14,1)
    a56c:	48 83 c4 08          	add    $0x8,%rsp
    a570:	5b                   	pop    %rbx
    a571:	41 5c                	pop    %r12
    a573:	41 5d                	pop    %r13
    a575:	41 5e                	pop    %r14
    a577:	41 5f                	pop    %r15
    a579:	5d                   	pop    %rbp
    a57a:	c3                   	ret
    a57b:	48 c7 43 08 00 00 00 	movq   $0x0,0x8(%rbx)
    a582:	00 
    a583:	41 c6 07 00          	movb   $0x0,(%r15)
    a587:	eb e3                	jmp    a56c <_ZNSt7__cxx1112basic_stringIcSt11char_traitsIcESaIcEE9_M_assignERKS4_+0xcc>
    a589:	e8 d2 7a ff ff       	call   2060 <_ZSt17__throw_bad_allocv@plt>
    a58e:	48 8d 3d 4c 11 00 00 	lea    0x114c(%rip),%rdi        # b6e1 <_IO_stdin_used+0x6e1>
    a595:	e8 f6 7a ff ff       	call   2090 <_ZSt20__throw_length_errorPKc@plt>

Disassembly of section .fini:

000000000000a59c <_fini>:
    a59c:	f3 0f 1e fa          	endbr64
    a5a0:	48 83 ec 08          	sub    $0x8,%rsp
    a5a4:	48 83 c4 08          	add    $0x8,%rsp
    a5a8:	c3                   	ret
