
/tmp/tmpq7fu94o4/out:     file format elf64-x86-64


Disassembly of section .init:

0000000000002000 <_init>:
    2000:	f3 0f 1e fa          	endbr64
    2004:	48 83 ec 08          	sub    $0x8,%rsp
    2008:	48 8b 05 b9 8f 00 00 	mov    0x8fb9(%rip),%rax        # afc8 <__gmon_start__@Base>
    200f:	48 85 c0             	test   %rax,%rax
    2012:	74 02                	je     2016 <_init+0x16>
    2014:	ff d0                	call   *%rax
    2016:	48 83 c4 08          	add    $0x8,%rsp
    201a:	c3                   	ret

Disassembly of section .plt:

0000000000002020 <_ZNSo3putEc@plt-0x10>:
    2020:	ff 35 ca 8f 00 00    	push   0x8fca(%rip)        # aff0 <_GLOBAL_OFFSET_TABLE_+0x8>
    2026:	ff 25 cc 8f 00 00    	jmp    *0x8fcc(%rip)        # aff8 <_GLOBAL_OFFSET_TABLE_+0x10>
    202c:	0f 1f 40 00          	nopl   0x0(%rax)

0000000000002030 <_ZNSo3putEc@plt>:
    2030:	ff 25 ca 8f 00 00    	jmp    *0x8fca(%rip)        # b000 <_ZNSo3putEc@GLIBCXX_3.4>
    2036:	68 00 00 00 00       	push   $0x0
    203b:	e9 e0 ff ff ff       	jmp    2020 <_init+0x20>

0000000000002040 <_ZNSt6chrono3_V212system_clock3nowEv@plt>:
    2040:	ff 25 c2 8f 00 00    	jmp    *0x8fc2(%rip)        # b008 <_ZNSt6chrono3_V212system_clock3nowEv@GLIBCXX_3.4.19>
    2046:	68 01 00 00 00       	push   $0x1
    204b:	e9 d0 ff ff ff       	jmp    2020 <_init+0x20>

0000000000002050 <_ZNSt8ios_baseD2Ev@plt>:
    2050:	ff 25 ba 8f 00 00    	jmp    *0x8fba(%rip)        # b010 <_ZNSt8ios_baseD2Ev@GLIBCXX_3.4>
    2056:	68 02 00 00 00       	push   $0x2
    205b:	e9 c0 ff ff ff       	jmp    2020 <_init+0x20>

0000000000002060 <_ZSt17__throw_bad_allocv@plt>:
    2060:	ff 25 b2 8f 00 00    	jmp    *0x8fb2(%rip)        # b018 <_ZSt17__throw_bad_allocv@GLIBCXX_3.4>
    2066:	68 03 00 00 00       	push   $0x3
    206b:	e9 b0 ff ff ff       	jmp    2020 <_init+0x20>

0000000000002070 <strlen@plt>:
    2070:	ff 25 aa 8f 00 00    	jmp    *0x8faa(%rip)        # b020 <strlen@GLIBC_2.2.5>
    2076:	68 04 00 00 00       	push   $0x4
    207b:	e9 a0 ff ff ff       	jmp    2020 <_init+0x20>

0000000000002080 <_ZSt4endlIcSt11char_traitsIcEERSt13basic_ostreamIT_T0_ES6_@plt>:
    2080:	ff 25 a2 8f 00 00    	jmp    *0x8fa2(%rip)        # b028 <_ZSt4endlIcSt11char_traitsIcEERSt13basic_ostreamIT_T0_ES6_@GLIBCXX_3.4>
    2086:	68 05 00 00 00       	push   $0x5
    208b:	e9 90 ff ff ff       	jmp    2020 <_init+0x20>

0000000000002090 <_ZSt20__throw_length_errorPKc@plt>:
    2090:	ff 25 9a 8f 00 00    	jmp    *0x8f9a(%rip)        # b030 <_ZSt20__throw_length_errorPKc@GLIBCXX_3.4>
    2096:	68 06 00 00 00       	push   $0x6
    209b:	e9 80 ff ff ff       	jmp    2020 <_init+0x20>

00000000000020a0 <memset@plt>:
    20a0:	ff 25 92 8f 00 00    	jmp    *0x8f92(%rip)        # b038 <memset@GLIBC_2.2.5>
    20a6:	68 07 00 00 00       	push   $0x7
    20ab:	e9 70 ff ff ff       	jmp    2020 <_init+0x20>

00000000000020b0 <_ZNSo9_M_insertImEERSoT_@plt>:
    20b0:	ff 25 8a 8f 00 00    	jmp    *0x8f8a(%rip)        # b040 <_ZNSo9_M_insertImEERSoT_@GLIBCXX_3.4.9>
    20b6:	68 08 00 00 00       	push   $0x8
    20bb:	e9 60 ff ff ff       	jmp    2020 <_init+0x20>

00000000000020c0 <_ZNSo5flushEv@plt>:
    20c0:	ff 25 82 8f 00 00    	jmp    *0x8f82(%rip)        # b048 <_ZNSo5flushEv@GLIBCXX_3.4>
    20c6:	68 09 00 00 00       	push   $0x9
    20cb:	e9 50 ff ff ff       	jmp    2020 <_init+0x20>

00000000000020d0 <_ZNSt7__cxx1118basic_stringstreamIcSt11char_traitsIcESaIcEEC1Ev@plt>:
    20d0:	ff 25 7a 8f 00 00    	jmp    *0x8f7a(%rip)        # b050 <_ZNSt7__cxx1118basic_stringstreamIcSt11char_traitsIcESaIcEEC1Ev@GLIBCXX_3.4.26>
    20d6:	68 0a 00 00 00       	push   $0xa
    20db:	e9 40 ff ff ff       	jmp    2020 <_init+0x20>

00000000000020e0 <_ZNSt7__cxx1118basic_stringstreamIcSt11char_traitsIcESaIcEED1Ev@plt>:
    20e0:	ff 25 72 8f 00 00    	jmp    *0x8f72(%rip)        # b058 <_ZNSt7__cxx1118basic_stringstreamIcSt11char_traitsIcESaIcEED1Ev@GLIBCXX_3.4.21>
    20e6:	68 0b 00 00 00       	push   $0xb
    20eb:	e9 30 ff ff ff       	jmp    2020 <_init+0x20>

00000000000020f0 <memcpy@plt>:
    20f0:	ff 25 6a 8f 00 00    	jmp    *0x8f6a(%rip)        # b060 <memcpy@GLIBC_2.14>
    20f6:	68 0c 00 00 00       	push   $0xc
    20fb:	e9 20 ff ff ff       	jmp    2020 <_init+0x20>

0000000000002100 <_Znwm@plt>:
    2100:	ff 25 62 8f 00 00    	jmp    *0x8f62(%rip)        # b068 <_Znwm@GLIBCXX_3.4>
    2106:	68 0d 00 00 00       	push   $0xd
    210b:	e9 10 ff ff ff       	jmp    2020 <_init+0x20>

0000000000002110 <_ZdlPvm@plt>:
    2110:	ff 25 5a 8f 00 00    	jmp    *0x8f5a(%rip)        # b070 <_ZdlPvm@CXXABI_1.3.9>
    2116:	68 0e 00 00 00       	push   $0xe
    211b:	e9 00 ff ff ff       	jmp    2020 <_init+0x20>

0000000000002120 <_ZNSt14basic_ofstreamIcSt11char_traitsIcEEC1EPKcSt13_Ios_Openmode@plt>:
    2120:	ff 25 52 8f 00 00    	jmp    *0x8f52(%rip)        # b078 <_ZNSt14basic_ofstreamIcSt11char_traitsIcEEC1EPKcSt13_Ios_Openmode@GLIBCXX_3.4>
    2126:	68 0f 00 00 00       	push   $0xf
    212b:	e9 f0 fe ff ff       	jmp    2020 <_init+0x20>

0000000000002130 <_ZSt16__ostream_insertIcSt11char_traitsIcEERSt13basic_ostreamIT_T0_ES6_PKS3_l@plt>:
    2130:	ff 25 4a 8f 00 00    	jmp    *0x8f4a(%rip)        # b080 <_ZSt16__ostream_insertIcSt11char_traitsIcEERSt13basic_ostreamIT_T0_ES6_PKS3_l@GLIBCXX_3.4.9>
    2136:	68 10 00 00 00       	push   $0x10
    213b:	e9 e0 fe ff ff       	jmp    2020 <_init+0x20>

0000000000002140 <_ZNKSt5ctypeIcE13_M_widen_initEv@plt>:
    2140:	ff 25 42 8f 00 00    	jmp    *0x8f42(%rip)        # b088 <_ZNKSt5ctypeIcE13_M_widen_initEv@GLIBCXX_3.4.11>
    2146:	68 11 00 00 00       	push   $0x11
    214b:	e9 d0 fe ff ff       	jmp    2020 <_init+0x20>

0000000000002150 <_ZSt16__throw_bad_castv@plt>:
    2150:	ff 25 3a 8f 00 00    	jmp    *0x8f3a(%rip)        # b090 <_ZSt16__throw_bad_castv@GLIBCXX_3.4>
    2156:	68 12 00 00 00       	push   $0x12
    215b:	e9 c0 fe ff ff       	jmp    2020 <_init+0x20>

0000000000002160 <log2f@plt>:
    2160:	ff 25 32 8f 00 00    	jmp    *0x8f32(%rip)        # b098 <log2f@GLIBC_2.27>
    2166:	68 13 00 00 00       	push   $0x13
    216b:	e9 b0 fe ff ff       	jmp    2020 <_init+0x20>

0000000000002170 <_ZNSo5writeEPKcl@plt>:
    2170:	ff 25 2a 8f 00 00    	jmp    *0x8f2a(%rip)        # b0a0 <_ZNSo5writeEPKcl@GLIBCXX_3.4>
    2176:	68 14 00 00 00       	push   $0x14
    217b:	e9 a0 fe ff ff       	jmp    2020 <_init+0x20>

0000000000002180 <_ZNSt7__cxx1112basic_stringIcSt11char_traitsIcESaIcEE15_M_replace_coldEPcmPKcmm@plt>:
    2180:	ff 25 22 8f 00 00    	jmp    *0x8f22(%rip)        # b0a8 <_ZNSt7__cxx1112basic_stringIcSt11char_traitsIcESaIcEE15_M_replace_coldEPcmPKcmm@GLIBCXX_3.4.31>
    2186:	68 15 00 00 00       	push   $0x15
    218b:	e9 90 fe ff ff       	jmp    2020 <_init+0x20>

0000000000002190 <strcmp@plt>:
    2190:	ff 25 1a 8f 00 00    	jmp    *0x8f1a(%rip)        # b0b0 <strcmp@GLIBC_2.2.5>
    2196:	68 16 00 00 00       	push   $0x16
    219b:	e9 80 fe ff ff       	jmp    2020 <_init+0x20>

00000000000021a0 <_ZNSt6localeD1Ev@plt>:
    21a0:	ff 25 12 8f 00 00    	jmp    *0x8f12(%rip)        # b0b8 <_ZNSt6localeD1Ev@GLIBCXX_3.4>
    21a6:	68 17 00 00 00       	push   $0x17
    21ab:	e9 70 fe ff ff       	jmp    2020 <_init+0x20>

00000000000021b0 <_ZNSt14basic_ofstreamIcSt11char_traitsIcEED1Ev@plt>:
    21b0:	ff 25 0a 8f 00 00    	jmp    *0x8f0a(%rip)        # b0c0 <_ZNSt14basic_ofstreamIcSt11char_traitsIcEED1Ev@GLIBCXX_3.4>
    21b6:	68 18 00 00 00       	push   $0x18
    21bb:	e9 60 fe ff ff       	jmp    2020 <_init+0x20>

00000000000021c0 <_ZNSo9_M_insertIdEERSoT_@plt>:
    21c0:	ff 25 02 8f 00 00    	jmp    *0x8f02(%rip)        # b0c8 <_ZNSo9_M_insertIdEERSoT_@GLIBCXX_3.4.9>
    21c6:	68 19 00 00 00       	push   $0x19
    21cb:	e9 50 fe ff ff       	jmp    2020 <_init+0x20>

00000000000021d0 <memmove@plt>:
    21d0:	ff 25 fa 8e 00 00    	jmp    *0x8efa(%rip)        # b0d0 <memmove@GLIBC_2.2.5>
    21d6:	68 1a 00 00 00       	push   $0x1a
    21db:	e9 40 fe ff ff       	jmp    2020 <_init+0x20>

00000000000021e0 <_ZNSt9basic_iosIcSt11char_traitsIcEE5clearESt12_Ios_Iostate@plt>:
    21e0:	ff 25 f2 8e 00 00    	jmp    *0x8ef2(%rip)        # b0d8 <_ZNSt9basic_iosIcSt11char_traitsIcEE5clearESt12_Ios_Iostate@GLIBCXX_3.4>
    21e6:	68 1b 00 00 00       	push   $0x1b
    21eb:	e9 30 fe ff ff       	jmp    2020 <_init+0x20>

00000000000021f0 <_Unwind_Resume@plt>:
    21f0:	ff 25 ea 8e 00 00    	jmp    *0x8eea(%rip)        # b0e0 <_Unwind_Resume@GCC_3.0>
    21f6:	68 1c 00 00 00       	push   $0x1c
    21fb:	e9 20 fe ff ff       	jmp    2020 <_init+0x20>

0000000000002200 <__isoc23_strtol@plt>:
    2200:	ff 25 e2 8e 00 00    	jmp    *0x8ee2(%rip)        # b0e8 <__isoc23_strtol@GLIBC_2.38>
    2206:	68 1d 00 00 00       	push   $0x1d
    220b:	e9 10 fe ff ff       	jmp    2020 <_init+0x20>

Disassembly of section .plt.got:

0000000000002210 <__cxa_finalize@plt>:
    2210:	ff 25 8a 8d 00 00    	jmp    *0x8d8a(%rip)        # afa0 <__cxa_finalize@GLIBC_2.2.5>
    2216:	66 90                	xchg   %ax,%ax

Disassembly of section .text:

0000000000002220 <set_fast_math>:
    2220:	f3 0f 1e fa          	endbr64
    2224:	55                   	push   %rbp
    2225:	48 89 e5             	mov    %rsp,%rbp
    2228:	0f ae 5d fc          	stmxcsr -0x4(%rbp)
    222c:	81 4d fc 40 80 00 00 	orl    $0x8040,-0x4(%rbp)
    2233:	0f ae 55 fc          	ldmxcsr -0x4(%rbp)
    2237:	5d                   	pop    %rbp
    2238:	c3                   	ret
    2239:	0f 1f 80 00 00 00 00 	nopl   0x0(%rax)

0000000000002240 <_start>:
    2240:	f3 0f 1e fa          	endbr64
    2244:	31 ed                	xor    %ebp,%ebp
    2246:	49 89 d1             	mov    %rdx,%r9
    2249:	5e                   	pop    %rsi
    224a:	48 89 e2             	mov    %rsp,%rdx
    224d:	48 83 e4 f0          	and    $0xfffffffffffffff0,%rsp
    2251:	50                   	push   %rax
    2252:	54                   	push   %rsp
    2253:	45 31 c0             	xor    %r8d,%r8d
    2256:	31 c9                	xor    %ecx,%ecx
    2258:	48 8d 3d f1 12 00 00 	lea    0x12f1(%rip),%rdi        # 3550 <main>
    225f:	ff 15 4b 8d 00 00    	call   *0x8d4b(%rip)        # afb0 <__libc_start_main@GLIBC_2.34>
    2265:	f4                   	hlt
    2266:	66 2e 0f 1f 84 00 00 	cs nopw 0x0(%rax,%rax,1)
    226d:	00 00 00 

0000000000002270 <deregister_tm_clones>:
    2270:	48 8d 3d 91 8e 00 00 	lea    0x8e91(%rip),%rdi        # b108 <__TMC_END__>
    2277:	48 8d 05 8a 8e 00 00 	lea    0x8e8a(%rip),%rax        # b108 <__TMC_END__>
    227e:	48 39 f8             	cmp    %rdi,%rax
    2281:	74 15                	je     2298 <deregister_tm_clones+0x28>
    2283:	48 8b 05 36 8d 00 00 	mov    0x8d36(%rip),%rax        # afc0 <_ITM_deregisterTMCloneTable@Base>
    228a:	48 85 c0             	test   %rax,%rax
    228d:	74 09                	je     2298 <deregister_tm_clones+0x28>
    228f:	ff e0                	jmp    *%rax
    2291:	0f 1f 80 00 00 00 00 	nopl   0x0(%rax)
    2298:	c3                   	ret
    2299:	0f 1f 80 00 00 00 00 	nopl   0x0(%rax)

00000000000022a0 <register_tm_clones>:
    22a0:	48 8d 3d 61 8e 00 00 	lea    0x8e61(%rip),%rdi        # b108 <__TMC_END__>
    22a7:	48 8d 35 5a 8e 00 00 	lea    0x8e5a(%rip),%rsi        # b108 <__TMC_END__>
    22ae:	48 29 fe             	sub    %rdi,%rsi
    22b1:	48 89 f0             	mov    %rsi,%rax
    22b4:	48 c1 ee 3f          	shr    $0x3f,%rsi
    22b8:	48 c1 f8 03          	sar    $0x3,%rax
    22bc:	48 01 c6             	add    %rax,%rsi
    22bf:	48 d1 fe             	sar    $1,%rsi
    22c2:	74 14                	je     22d8 <register_tm_clones+0x38>
    22c4:	48 8b 05 05 8d 00 00 	mov    0x8d05(%rip),%rax        # afd0 <_ITM_registerTMCloneTable@Base>
    22cb:	48 85 c0             	test   %rax,%rax
    22ce:	74 08                	je     22d8 <register_tm_clones+0x38>
    22d0:	ff e0                	jmp    *%rax
    22d2:	66 0f 1f 44 00 00    	nopw   0x0(%rax,%rax,1)
    22d8:	c3                   	ret
    22d9:	0f 1f 80 00 00 00 00 	nopl   0x0(%rax)

00000000000022e0 <__do_global_dtors_aux>:
    22e0:	f3 0f 1e fa          	endbr64
    22e4:	80 3d 1d 8e 00 00 00 	cmpb   $0x0,0x8e1d(%rip)        # b108 <__TMC_END__>
    22eb:	75 2b                	jne    2318 <__do_global_dtors_aux+0x38>
    22ed:	55                   	push   %rbp
    22ee:	48 83 3d aa 8c 00 00 	cmpq   $0x0,0x8caa(%rip)        # afa0 <__cxa_finalize@GLIBC_2.2.5>
    22f5:	00 
    22f6:	48 89 e5             	mov    %rsp,%rbp
    22f9:	74 0c                	je     2307 <__do_global_dtors_aux+0x27>
    22fb:	48 8b 3d f6 8d 00 00 	mov    0x8df6(%rip),%rdi        # b0f8 <__dso_handle>
    2302:	e8 09 ff ff ff       	call   2210 <__cxa_finalize@plt>
    2307:	e8 64 ff ff ff       	call   2270 <deregister_tm_clones>
    230c:	c6 05 f5 8d 00 00 01 	movb   $0x1,0x8df5(%rip)        # b108 <__TMC_END__>
    2313:	5d                   	pop    %rbp
    2314:	c3                   	ret
    2315:	0f 1f 00             	nopl   (%rax)
    2318:	c3                   	ret
    2319:	0f 1f 80 00 00 00 00 	nopl   0x0(%rax)

0000000000002320 <frame_dummy>:
    2320:	f3 0f 1e fa          	endbr64
    2324:	e9 77 ff ff ff       	jmp    22a0 <register_tm_clones>
    2329:	0f 1f 80 00 00 00 00 	nopl   0x0(%rax)

0000000000002330 <_Z21mandelbrot_cpu_scalarjjPj>:
    2330:	53                   	push   %rbx
    2331:	85 ff                	test   %edi,%edi
    2333:	0f 84 d5 01 00 00    	je     250e <_Z21mandelbrot_cpu_scalarjjPj+0x1de>
    2339:	89 f8                	mov    %edi,%eax
    233b:	85 f6                	test   %esi,%esi
    233d:	0f 84 cd 01 00 00    	je     2510 <_Z21mandelbrot_cpu_scalarjjPj+0x1e0>
    2343:	62 f1 7e 08 7b c7    	vcvtusi2ss %edi,%xmm0,%xmm0
    2349:	c5 fa 10 0d b3 6c 00 	vmovss 0x6cb3(%rip),%xmm1        # 9004 <_IO_stdin_used+0x4>
    2350:	00 
    2351:	c5 f2 5e c0          	vdivss %xmm0,%xmm1,%xmm0
    2355:	89 c1                	mov    %eax,%ecx
    2357:	83 e1 fe             	and    $0xfffffffe,%ecx
    235a:	45 31 c0             	xor    %r8d,%r8d
    235d:	c5 fa 10 0d a3 6c 00 	vmovss 0x6ca3(%rip),%xmm1        # 9008 <_IO_stdin_used+0x8>
    2364:	00 
    2365:	c5 fa 10 15 9f 6c 00 	vmovss 0x6c9f(%rip),%xmm2        # 900c <_IO_stdin_used+0xc>
    236c:	00 
    236d:	c5 fa 10 1d 9b 6c 00 	vmovss 0x6c9b(%rip),%xmm3        # 9010 <_IO_stdin_used+0x10>
    2374:	00 
    2375:	c5 fa 10 25 97 6c 00 	vmovss 0x6c97(%rip),%xmm4        # 9014 <_IO_stdin_used+0x14>
    237c:	00 
    237d:	eb 11                	jmp    2390 <_Z21mandelbrot_cpu_scalarjjPj+0x60>
    237f:	90                   	nop
    2380:	47 89 1c 91          	mov    %r11d,(%r9,%r10,4)
    2384:	49 ff c0             	inc    %r8
    2387:	49 39 c0             	cmp    %rax,%r8
    238a:	0f 84 7e 01 00 00    	je     250e <_Z21mandelbrot_cpu_scalarjjPj+0x1de>
    2390:	c4 c1 9a 2a e8       	vcvtsi2ss %r8,%xmm12,%xmm5
    2395:	4d 89 c1             	mov    %r8,%r9
    2398:	4c 0f af c8          	imul   %rax,%r9
    239c:	c5 d2 59 e9          	vmulss %xmm1,%xmm5,%xmm5
    23a0:	c4 e2 79 a9 ea       	vfmadd213ss %xmm2,%xmm0,%xmm5
    23a5:	4e 8d 0c 8a          	lea    (%rdx,%r9,4),%r9
    23a9:	45 31 d2             	xor    %r10d,%r10d
    23ac:	83 ff 01             	cmp    $0x1,%edi
    23af:	0f 85 78 00 00 00    	jne    242d <_Z21mandelbrot_cpu_scalarjjPj+0xfd>
    23b5:	a8 01                	test   $0x1,%al
    23b7:	74 cb                	je     2384 <_Z21mandelbrot_cpu_scalarjjPj+0x54>
    23b9:	c4 c1 9a 2a f2       	vcvtsi2ss %r10,%xmm12,%xmm6
    23be:	c5 ca 59 f1          	vmulss %xmm1,%xmm6,%xmm6
    23c2:	c4 e2 79 a9 f3       	vfmadd213ss %xmm3,%xmm0,%xmm6
    23c7:	45 31 db             	xor    %r11d,%r11d
    23ca:	c4 41 30 57 c9       	vxorps %xmm9,%xmm9,%xmm9
    23cf:	c4 41 28 57 d2       	vxorps %xmm10,%xmm10,%xmm10
    23d4:	c5 c0 57 ff          	vxorps %xmm7,%xmm7,%xmm7
    23d8:	c4 41 38 57 c0       	vxorps %xmm8,%xmm8,%xmm8
    23dd:	0f 1f 00             	nopl   (%rax)
    23e0:	c4 41 2a 5c c9       	vsubss %xmm9,%xmm10,%xmm9
    23e5:	c5 ba 5c ff          	vsubss %xmm7,%xmm8,%xmm7
    23e9:	c5 4a 58 d7          	vaddss %xmm7,%xmm6,%xmm10
    23ed:	c5 32 58 dd          	vaddss %xmm5,%xmm9,%xmm11
    23f1:	c4 41 2a 59 c2       	vmulss %xmm10,%xmm10,%xmm8
    23f6:	c4 c1 22 59 fb       	vmulss %xmm11,%xmm11,%xmm7
    23fb:	41 ff c3             	inc    %r11d
    23fe:	c5 3a 58 cf          	vaddss %xmm7,%xmm8,%xmm9
    2402:	c5 78 2e cc          	vucomiss %xmm4,%xmm9
    2406:	0f 87 74 ff ff ff    	ja     2380 <_Z21mandelbrot_cpu_scalarjjPj+0x50>
    240c:	c4 41 22 58 d2       	vaddss %xmm10,%xmm11,%xmm10
    2411:	c4 41 2a 59 d2       	vmulss %xmm10,%xmm10,%xmm10
    2416:	41 39 f3             	cmp    %esi,%r11d
    2419:	72 c5                	jb     23e0 <_Z21mandelbrot_cpu_scalarjjPj+0xb0>
    241b:	e9 60 ff ff ff       	jmp    2380 <_Z21mandelbrot_cpu_scalarjjPj+0x50>
    2420:	43 89 1c 99          	mov    %ebx,(%r9,%r11,4)
    2424:	49 83 c2 02          	add    $0x2,%r10
    2428:	49 39 ca             	cmp    %rcx,%r10
    242b:	74 88                	je     23b5 <_Z21mandelbrot_cpu_scalarjjPj+0x85>
    242d:	c4 c1 9a 2a f2       	vcvtsi2ss %r10,%xmm12,%xmm6
    2432:	c5 ca 59 f1          	vmulss %xmm1,%xmm6,%xmm6
    2436:	c4 e2 79 a9 f3       	vfmadd213ss %xmm3,%xmm0,%xmm6
    243b:	45 31 db             	xor    %r11d,%r11d
    243e:	c4 41 30 57 c9       	vxorps %xmm9,%xmm9,%xmm9
    2443:	c4 41 28 57 d2       	vxorps %xmm10,%xmm10,%xmm10
    2448:	c5 c0 57 ff          	vxorps %xmm7,%xmm7,%xmm7
    244c:	c4 41 38 57 c0       	vxorps %xmm8,%xmm8,%xmm8
    2451:	66 66 66 66 66 66 2e 	data16 data16 data16 data16 data16 cs nopw 0x0(%rax,%rax,1)
    2458:	0f 1f 84 00 00 00 00 
    245f:	00 
    2460:	c4 41 2a 5c c9       	vsubss %xmm9,%xmm10,%xmm9
    2465:	c5 ba 5c ff          	vsubss %xmm7,%xmm8,%xmm7
    2469:	c5 4a 58 d7          	vaddss %xmm7,%xmm6,%xmm10
    246d:	c5 32 58 dd          	vaddss %xmm5,%xmm9,%xmm11
    2471:	c4 41 2a 59 c2       	vmulss %xmm10,%xmm10,%xmm8
    2476:	c4 c1 22 59 fb       	vmulss %xmm11,%xmm11,%xmm7
    247b:	41 ff c3             	inc    %r11d
    247e:	c5 3a 58 cf          	vaddss %xmm7,%xmm8,%xmm9
    2482:	c5 78 2e cc          	vucomiss %xmm4,%xmm9
    2486:	77 0f                	ja     2497 <_Z21mandelbrot_cpu_scalarjjPj+0x167>
    2488:	c4 41 22 58 d2       	vaddss %xmm10,%xmm11,%xmm10
    248d:	c4 41 2a 59 d2       	vmulss %xmm10,%xmm10,%xmm10
    2492:	41 39 f3             	cmp    %esi,%r11d
    2495:	72 c9                	jb     2460 <_Z21mandelbrot_cpu_scalarjjPj+0x130>
    2497:	47 89 1c 91          	mov    %r11d,(%r9,%r10,4)
    249b:	4d 89 d3             	mov    %r10,%r11
    249e:	49 83 cb 01          	or     $0x1,%r11
    24a2:	c4 c1 9a 2a f3       	vcvtsi2ss %r11,%xmm12,%xmm6
    24a7:	c5 ca 59 f1          	vmulss %xmm1,%xmm6,%xmm6
    24ab:	c4 e2 79 a9 f3       	vfmadd213ss %xmm3,%xmm0,%xmm6
    24b0:	31 db                	xor    %ebx,%ebx
    24b2:	c4 41 30 57 c9       	vxorps %xmm9,%xmm9,%xmm9
    24b7:	c4 41 28 57 d2       	vxorps %xmm10,%xmm10,%xmm10
    24bc:	c5 c0 57 ff          	vxorps %xmm7,%xmm7,%xmm7
    24c0:	c4 41 38 57 c0       	vxorps %xmm8,%xmm8,%xmm8
    24c5:	66 66 2e 0f 1f 84 00 	data16 cs nopw 0x0(%rax,%rax,1)
    24cc:	00 00 00 00 
    24d0:	c4 41 2a 5c c9       	vsubss %xmm9,%xmm10,%xmm9
    24d5:	c5 ba 5c ff          	vsubss %xmm7,%xmm8,%xmm7
    24d9:	c5 4a 58 d7          	vaddss %xmm7,%xmm6,%xmm10
    24dd:	c5 32 58 dd          	vaddss %xmm5,%xmm9,%xmm11
    24e1:	c4 41 2a 59 c2       	vmulss %xmm10,%xmm10,%xmm8
    24e6:	c4 c1 22 59 fb       	vmulss %xmm11,%xmm11,%xmm7
    24eb:	ff c3                	inc    %ebx
    24ed:	c5 3a 58 cf          	vaddss %xmm7,%xmm8,%xmm9
    24f1:	c5 78 2e cc          	vucomiss %xmm4,%xmm9
    24f5:	0f 87 25 ff ff ff    	ja     2420 <_Z21mandelbrot_cpu_scalarjjPj+0xf0>
    24fb:	c4 41 22 58 d2       	vaddss %xmm10,%xmm11,%xmm10
    2500:	c4 41 2a 59 d2       	vmulss %xmm10,%xmm10,%xmm10
    2505:	39 f3                	cmp    %esi,%ebx
    2507:	72 c7                	jb     24d0 <_Z21mandelbrot_cpu_scalarjjPj+0x1a0>
    2509:	e9 12 ff ff ff       	jmp    2420 <_Z21mandelbrot_cpu_scalarjjPj+0xf0>
    250e:	5b                   	pop    %rbx
    250f:	c3                   	ret
    2510:	48 0f af c0          	imul   %rax,%rax
    2514:	48 c1 e0 02          	shl    $0x2,%rax
    2518:	48 89 d7             	mov    %rdx,%rdi
    251b:	31 f6                	xor    %esi,%esi
    251d:	48 89 c2             	mov    %rax,%rdx
    2520:	5b                   	pop    %rbx
    2521:	e9 7a fb ff ff       	jmp    20a0 <memset@plt>
    2526:	66 2e 0f 1f 84 00 00 	cs nopw 0x0(%rax,%rax,1)
    252d:	00 00 00 

0000000000002530 <_Z8ceil_divjj>:
    2530:	8d 04 37             	lea    (%rdi,%rsi,1),%eax
    2533:	ff c8                	dec    %eax
    2535:	31 d2                	xor    %edx,%edx
    2537:	f7 f6                	div    %esi
    2539:	c3                   	ret
    253a:	66 0f 1f 44 00 00    	nopw   0x0(%rax,%rax,1)

0000000000002540 <_Z25mandelbrot_cpu_vector_ilpjjPj>:
    2540:	85 ff                	test   %edi,%edi
    2542:	0f 84 93 01 00 00    	je     26db <_Z25mandelbrot_cpu_vector_ilpjjPj+0x19b>
    2548:	62 f2 7d 48 7c c6    	vpbroadcastd %esi,%zmm0
    254e:	89 f8                	mov    %edi,%eax
    2550:	62 f1 76 08 7b cf    	vcvtusi2ss %edi,%xmm1,%xmm1
    2556:	c5 fa 10 15 a6 6a 00 	vmovss 0x6aa6(%rip),%xmm2        # 9004 <_IO_stdin_used+0x4>
    255d:	00 
    255e:	c5 ea 5e c9          	vdivss %xmm1,%xmm2,%xmm1
    2562:	c5 f2 59 15 9e 6a 00 	vmulss 0x6a9e(%rip),%xmm1,%xmm2        # 9008 <_IO_stdin_used+0x8>
    2569:	00 
    256a:	62 f2 7d 48 18 d2    	vbroadcastss %xmm2,%zmm2
    2570:	31 c9                	xor    %ecx,%ecx
    2572:	c5 fa 10 1d 8e 6a 00 	vmovss 0x6a8e(%rip),%xmm3        # 9008 <_IO_stdin_used+0x8>
    2579:	00 
    257a:	c5 fa 10 25 8a 6a 00 	vmovss 0x6a8a(%rip),%xmm4        # 900c <_IO_stdin_used+0xc>
    2581:	00 
    2582:	62 f2 7d 48 22 2d c4 	vpmovsxbq 0x6bc4(%rip),%zmm5        # 9150 <_IO_stdin_used+0x150>
    2589:	6b 00 00 
    258c:	c4 e2 7d 22 35 83 6a 	vpmovsxbq 0x6a83(%rip),%ymm6        # 9018 <_IO_stdin_used+0x18>
    2593:	00 00 
    2595:	c4 e2 79 22 3d e2 6a 	vpmovsxbq 0x6ae2(%rip),%xmm7        # 9080 <_IO_stdin_used+0x80>
    259c:	00 00 
    259e:	62 72 7d 48 18 05 68 	vbroadcastss 0x6a68(%rip),%zmm8        # 9010 <_IO_stdin_used+0x10>
    25a5:	6a 00 00 
    25a8:	62 72 7d 48 18 0d 62 	vbroadcastss 0x6a62(%rip),%zmm9        # 9014 <_IO_stdin_used+0x14>
    25af:	6a 00 00 
    25b2:	66 66 66 66 66 2e 0f 	data16 data16 data16 data16 cs nopw 0x0(%rax,%rax,1)
    25b9:	1f 84 00 00 00 00 00 
    25c0:	62 71 e6 00 2a d1    	vcvtsi2ss %rcx,%xmm19,%xmm10
    25c6:	c5 2a 59 d3          	vmulss %xmm3,%xmm10,%xmm10
    25ca:	c4 62 71 a9 d4       	vfmadd213ss %xmm4,%xmm1,%xmm10
    25cf:	62 52 7d 48 18 d2    	vbroadcastss %xmm10,%zmm10
    25d5:	48 89 ce             	mov    %rcx,%rsi
    25d8:	48 0f af f0          	imul   %rax,%rsi
    25dc:	48 8d 34 b2          	lea    (%rdx,%rsi,4),%rsi
    25e0:	31 ff                	xor    %edi,%edi
    25e2:	66 66 66 66 66 2e 0f 	data16 data16 data16 data16 cs nopw 0x0(%rax,%rax,1)
    25e9:	1f 84 00 00 00 00 00 
    25f0:	62 72 fd 48 7c df    	vpbroadcastq %rdi,%zmm11
    25f6:	62 71 a5 48 eb e5    	vporq  %zmm5,%zmm11,%zmm12
    25fc:	c5 25 eb ee          	vpor   %ymm6,%ymm11,%ymm13
    2600:	c5 21 eb f7          	vpor   %xmm7,%xmm11,%xmm14
    2604:	49 89 f8             	mov    %rdi,%r8
    2607:	49 83 c8 01          	or     $0x1,%r8
    260b:	c4 41 f9 6e f8       	vmovq  %r8,%xmm15
    2610:	c4 41 21 6c df       	vpunpcklqdq %xmm15,%xmm11,%xmm11
    2615:	62 53 a5 48 3a dd 01 	vinserti64x4 $0x1,%ymm13,%zmm11,%zmm11
    261c:	62 53 25 48 38 de 01 	vinserti32x4 $0x1,%xmm14,%zmm11,%zmm11
    2623:	62 51 ff 48 7a db    	vcvtuqq2ps %zmm11,%ymm11
    2629:	62 51 ff 48 7a e4    	vcvtuqq2ps %zmm12,%ymm12
    262f:	62 53 a5 48 1a dc 01 	vinsertf64x4 $0x1,%ymm12,%zmm11,%zmm11
    2636:	62 52 6d 48 a8 d8    	vfmadd213ps %zmm8,%zmm2,%zmm11
    263c:	c4 41 18 57 e4       	vxorps %xmm12,%xmm12,%xmm12
    2641:	c5 fc 46 c8          	kxnorw %k0,%k0,%k1
    2645:	c4 41 11 ef ed       	vpxor  %xmm13,%xmm13,%xmm13
    264a:	c4 41 09 ef f6       	vpxor  %xmm14,%xmm14,%xmm14
    264f:	c4 41 01 ef ff       	vpxor  %xmm15,%xmm15,%xmm15
    2654:	66 66 66 2e 0f 1f 84 	data16 data16 cs nopw 0x0(%rax,%rax,1)
    265b:	00 00 00 00 00 
    2660:	62 c1 14 48 5c c6    	vsubps %zmm14,%zmm13,%zmm16
    2666:	62 a1 24 48 58 c0    	vaddps %zmm16,%zmm11,%zmm16
    266c:	62 c1 04 48 58 ca    	vaddps %zmm10,%zmm15,%zmm17
    2672:	62 c1 0c 48 58 d5    	vaddps %zmm13,%zmm14,%zmm18
    2678:	62 a1 74 40 5c ca    	vsubps %zmm18,%zmm17,%zmm17
    267e:	62 31 7c 41 59 e8    	vmulps %zmm16,%zmm16,%zmm13{%k1}
    2684:	62 31 74 41 59 f1    	vmulps %zmm17,%zmm17,%zmm14{%k1}
    268a:	62 a1 74 40 58 c0    	vaddps %zmm16,%zmm17,%zmm16
    2690:	62 c1 0c 48 58 cd    	vaddps %zmm13,%zmm14,%zmm17
    2696:	62 d1 7d 48 66 d4    	vpcmpgtd %zmm12,%zmm0,%k2
    269c:	62 31 7c 41 59 f8    	vmulps %zmm16,%zmm16,%zmm15{%k1}
    26a2:	62 d1 74 42 c2 c9 02 	vcmpleps %zmm9,%zmm17,%k1{%k2}
    26a9:	62 e2 7e 48 38 c1    	vpmovm2d %k1,%zmm16
    26af:	62 31 1d 48 fa e0    	vpsubd %zmm16,%zmm12,%zmm12
    26b5:	c5 f8 98 c9          	kortestw %k1,%k1
    26b9:	75 a5                	jne    2660 <_Z25mandelbrot_cpu_vector_ilpjjPj+0x120>
    26bb:	62 71 fe 48 7f 24 be 	vmovdqu64 %zmm12,(%rsi,%rdi,4)
    26c2:	48 83 c7 10          	add    $0x10,%rdi
    26c6:	48 39 c7             	cmp    %rax,%rdi
    26c9:	0f 82 21 ff ff ff    	jb     25f0 <_Z25mandelbrot_cpu_vector_ilpjjPj+0xb0>
    26cf:	48 ff c1             	inc    %rcx
    26d2:	48 39 c1             	cmp    %rax,%rcx
    26d5:	0f 85 e5 fe ff ff    	jne    25c0 <_Z25mandelbrot_cpu_vector_ilpjjPj+0x80>
    26db:	c5 f8 77             	vzeroupper
    26de:	c3                   	ret
    26df:	90                   	nop

00000000000026e0 <_Z31mandelbrot_cpu_vector_multicorejjPj>:
    26e0:	c3                   	ret
    26e1:	66 66 66 66 66 66 2e 	data16 data16 data16 data16 data16 cs nopw 0x0(%rax,%rax,1)
    26e8:	0f 1f 84 00 00 00 00 
    26ef:	00 

00000000000026f0 <_Z43mandelbrot_cpu_vector_multicore_multithreadjjPj>:
    26f0:	c3                   	ret
    26f1:	66 66 66 66 66 66 2e 	data16 data16 data16 data16 data16 cs nopw 0x0(%rax,%rax,1)
    26f8:	0f 1f 84 00 00 00 00 
    26ff:	00 

0000000000002700 <_Z47mandelbrot_cpu_vector_multicore_multithread_ilpjjPj>:
    2700:	c3                   	ret
    2701:	66 66 66 66 66 66 2e 	data16 data16 data16 data16 data16 cs nopw 0x0(%rax,%rax,1)
    2708:	0f 1f 84 00 00 00 00 
    270f:	00 

0000000000002710 <_Z20ParseArgsAndMakeSpeciPPcPjS1_P14MandelbrotImpl>:
    2710:	55                   	push   %rbp
    2711:	41 57                	push   %r15
    2713:	41 56                	push   %r14
    2715:	41 55                	push   %r13
    2717:	41 54                	push   %r12
    2719:	53                   	push   %rbx
    271a:	48 83 ec 18          	sub    $0x18,%rsp
    271e:	48 89 4c 24 08       	mov    %rcx,0x8(%rsp)
    2723:	48 89 54 24 10       	mov    %rdx,0x10(%rsp)
    2728:	83 ff 02             	cmp    $0x2,%edi
    272b:	0f 8c e1 01 00 00    	jl     2912 <_Z20ParseArgsAndMakeSpeciPPcPjS1_P14MandelbrotImpl+0x202>
    2731:	4d 89 c4             	mov    %r8,%r12
    2734:	49 89 f7             	mov    %rsi,%r15
    2737:	89 fd                	mov    %edi,%ebp
    2739:	bb 01 00 00 00       	mov    $0x1,%ebx
    273e:	41 be 02 00 00 00    	mov    $0x2,%r14d
    2744:	eb 27                	jmp    276d <_Z20ParseArgsAndMakeSpeciPPcPjS1_P14MandelbrotImpl+0x5d>
    2746:	66 2e 0f 1f 84 00 00 	cs nopw 0x0(%rax,%rax,1)
    274d:	00 00 00 
    2750:	41 c7 04 24 00 00 00 	movl   $0x0,(%r12)
    2757:	00 
    2758:	ff c3                	inc    %ebx
    275a:	41 8d 46 02          	lea    0x2(%r14),%eax
    275e:	41 ff c6             	inc    %r14d
    2761:	41 39 ee             	cmp    %ebp,%r14d
    2764:	41 89 c6             	mov    %eax,%r14d
    2767:	0f 8d a5 01 00 00    	jge    2912 <_Z20ParseArgsAndMakeSpeciPPcPjS1_P14MandelbrotImpl+0x202>
    276d:	41 8d 46 ff          	lea    -0x1(%r14),%eax
    2771:	4c 63 e8             	movslq %eax,%r13
    2774:	4b 8b 04 ef          	mov    (%r15,%r13,8),%rax
    2778:	80 38 2d             	cmpb   $0x2d,(%rax)
    277b:	0f 85 3f 02 00 00    	jne    29c0 <_Z20ParseArgsAndMakeSpeciPPcPjS1_P14MandelbrotImpl+0x2b0>
    2781:	80 78 01 72          	cmpb   $0x72,0x1(%rax)
    2785:	75 0a                	jne    2791 <_Z20ParseArgsAndMakeSpeciPPcPjS1_P14MandelbrotImpl+0x81>
    2787:	80 78 02 00          	cmpb   $0x0,0x2(%rax)
    278b:	0f 84 e4 00 00 00    	je     2875 <_Z20ParseArgsAndMakeSpeciPPcPjS1_P14MandelbrotImpl+0x165>
    2791:	80 78 01 62          	cmpb   $0x62,0x1(%rax)
    2795:	75 0a                	jne    27a1 <_Z20ParseArgsAndMakeSpeciPPcPjS1_P14MandelbrotImpl+0x91>
    2797:	80 78 02 00          	cmpb   $0x0,0x2(%rax)
    279b:	0f 84 06 01 00 00    	je     28a7 <_Z20ParseArgsAndMakeSpeciPPcPjS1_P14MandelbrotImpl+0x197>
    27a1:	80 78 01 69          	cmpb   $0x69,0x1(%rax)
    27a5:	0f 85 15 02 00 00    	jne    29c0 <_Z20ParseArgsAndMakeSpeciPPcPjS1_P14MandelbrotImpl+0x2b0>
    27ab:	80 78 02 00          	cmpb   $0x0,0x2(%rax)
    27af:	0f 85 0b 02 00 00    	jne    29c0 <_Z20ParseArgsAndMakeSpeciPPcPjS1_P14MandelbrotImpl+0x2b0>
    27b5:	41 39 ee             	cmp    %ebp,%r14d
    27b8:	0f 8d 89 02 00 00    	jge    2a47 <_Z20ParseArgsAndMakeSpeciPPcPjS1_P14MandelbrotImpl+0x337>
    27be:	ff c3                	inc    %ebx
    27c0:	49 63 c6             	movslq %r14d,%rax
    27c3:	4d 8b 2c c7          	mov    (%r15,%rax,8),%r13
    27c7:	4c 89 ef             	mov    %r13,%rdi
    27ca:	48 8d 35 a0 6a 00 00 	lea    0x6aa0(%rip),%rsi        # 9271 <_IO_stdin_used+0x271>
    27d1:	e8 ba f9 ff ff       	call   2190 <strcmp@plt>
    27d6:	85 c0                	test   %eax,%eax
    27d8:	0f 84 72 ff ff ff    	je     2750 <_Z20ParseArgsAndMakeSpeciPPcPjS1_P14MandelbrotImpl+0x40>
    27de:	4c 89 ef             	mov    %r13,%rdi
    27e1:	48 8d 35 e6 69 00 00 	lea    0x69e6(%rip),%rsi        # 91ce <_IO_stdin_used+0x1ce>
    27e8:	e8 a3 f9 ff ff       	call   2190 <strcmp@plt>
    27ed:	85 c0                	test   %eax,%eax
    27ef:	0f 84 dc 00 00 00    	je     28d1 <_Z20ParseArgsAndMakeSpeciPPcPjS1_P14MandelbrotImpl+0x1c1>
    27f5:	4c 89 ef             	mov    %r13,%rdi
    27f8:	48 8d 35 bc 6a 00 00 	lea    0x6abc(%rip),%rsi        # 92bb <_IO_stdin_used+0x2bb>
    27ff:	e8 8c f9 ff ff       	call   2190 <strcmp@plt>
    2804:	85 c0                	test   %eax,%eax
    2806:	0f 84 d2 00 00 00    	je     28de <_Z20ParseArgsAndMakeSpeciPPcPjS1_P14MandelbrotImpl+0x1ce>
    280c:	4c 89 ef             	mov    %r13,%rdi
    280f:	48 8d 35 1c 6b 00 00 	lea    0x6b1c(%rip),%rsi        # 9332 <_IO_stdin_used+0x332>
    2816:	e8 75 f9 ff ff       	call   2190 <strcmp@plt>
    281b:	85 c0                	test   %eax,%eax
    281d:	0f 84 c8 00 00 00    	je     28eb <_Z20ParseArgsAndMakeSpeciPPcPjS1_P14MandelbrotImpl+0x1db>
    2823:	4c 89 ef             	mov    %r13,%rdi
    2826:	48 8d 35 4d 6b 00 00 	lea    0x6b4d(%rip),%rsi        # 937a <_IO_stdin_used+0x37a>
    282d:	e8 5e f9 ff ff       	call   2190 <strcmp@plt>
    2832:	85 c0                	test   %eax,%eax
    2834:	0f 84 be 00 00 00    	je     28f8 <_Z20ParseArgsAndMakeSpeciPPcPjS1_P14MandelbrotImpl+0x1e8>
    283a:	4c 89 ef             	mov    %r13,%rdi
    283d:	48 8d 35 96 6b 00 00 	lea    0x6b96(%rip),%rsi        # 93da <_IO_stdin_used+0x3da>
    2844:	e8 47 f9 ff ff       	call   2190 <strcmp@plt>
    2849:	85 c0                	test   %eax,%eax
    284b:	0f 84 b4 00 00 00    	je     2905 <_Z20ParseArgsAndMakeSpeciPPcPjS1_P14MandelbrotImpl+0x1f5>
    2851:	4c 89 ef             	mov    %r13,%rdi
    2854:	48 8d 35 7a 69 00 00 	lea    0x697a(%rip),%rsi        # 91d5 <_IO_stdin_used+0x1d5>
    285b:	e8 30 f9 ff ff       	call   2190 <strcmp@plt>
    2860:	85 c0                	test   %eax,%eax
    2862:	0f 85 90 02 00 00    	jne    2af8 <_Z20ParseArgsAndMakeSpeciPPcPjS1_P14MandelbrotImpl+0x3e8>
    2868:	41 c7 04 24 06 00 00 	movl   $0x6,(%r12)
    286f:	00 
    2870:	e9 e3 fe ff ff       	jmp    2758 <_Z20ParseArgsAndMakeSpeciPPcPjS1_P14MandelbrotImpl+0x48>
    2875:	41 39 ee             	cmp    %ebp,%r14d
    2878:	0f 8d d9 01 00 00    	jge    2a57 <_Z20ParseArgsAndMakeSpeciPPcPjS1_P14MandelbrotImpl+0x347>
    287e:	49 63 c6             	movslq %r14d,%rax
    2881:	49 8b 3c c7          	mov    (%r15,%rax,8),%rdi
    2885:	31 f6                	xor    %esi,%esi
    2887:	ba 0a 00 00 00       	mov    $0xa,%edx
    288c:	e8 6f f9 ff ff       	call   2200 <__isoc23_strtol@plt>
    2891:	48 8b 4c 24 10       	mov    0x10(%rsp),%rcx
    2896:	89 01                	mov    %eax,(%rcx)
    2898:	a8 1f                	test   $0x1f,%al
    289a:	0f 85 c7 01 00 00    	jne    2a67 <_Z20ParseArgsAndMakeSpeciPPcPjS1_P14MandelbrotImpl+0x357>
    28a0:	ff c3                	inc    %ebx
    28a2:	e9 b1 fe ff ff       	jmp    2758 <_Z20ParseArgsAndMakeSpeciPPcPjS1_P14MandelbrotImpl+0x48>
    28a7:	41 39 ee             	cmp    %ebp,%r14d
    28aa:	0f 8d cc 01 00 00    	jge    2a7c <_Z20ParseArgsAndMakeSpeciPPcPjS1_P14MandelbrotImpl+0x36c>
    28b0:	ff c3                	inc    %ebx
    28b2:	49 63 c6             	movslq %r14d,%rax
    28b5:	49 8b 3c c7          	mov    (%r15,%rax,8),%rdi
    28b9:	31 f6                	xor    %esi,%esi
    28bb:	ba 0a 00 00 00       	mov    $0xa,%edx
    28c0:	e8 3b f9 ff ff       	call   2200 <__isoc23_strtol@plt>
    28c5:	48 8b 4c 24 08       	mov    0x8(%rsp),%rcx
    28ca:	89 01                	mov    %eax,(%rcx)
    28cc:	e9 87 fe ff ff       	jmp    2758 <_Z20ParseArgsAndMakeSpeciPPcPjS1_P14MandelbrotImpl+0x48>
    28d1:	41 c7 04 24 01 00 00 	movl   $0x1,(%r12)
    28d8:	00 
    28d9:	e9 7a fe ff ff       	jmp    2758 <_Z20ParseArgsAndMakeSpeciPPcPjS1_P14MandelbrotImpl+0x48>
    28de:	41 c7 04 24 02 00 00 	movl   $0x2,(%r12)
    28e5:	00 
    28e6:	e9 6d fe ff ff       	jmp    2758 <_Z20ParseArgsAndMakeSpeciPPcPjS1_P14MandelbrotImpl+0x48>
    28eb:	41 c7 04 24 03 00 00 	movl   $0x3,(%r12)
    28f2:	00 
    28f3:	e9 60 fe ff ff       	jmp    2758 <_Z20ParseArgsAndMakeSpeciPPcPjS1_P14MandelbrotImpl+0x48>
    28f8:	41 c7 04 24 04 00 00 	movl   $0x4,(%r12)
    28ff:	00 
    2900:	e9 53 fe ff ff       	jmp    2758 <_Z20ParseArgsAndMakeSpeciPPcPjS1_P14MandelbrotImpl+0x48>
    2905:	41 c7 04 24 05 00 00 	movl   $0x5,(%r12)
    290c:	00 
    290d:	e9 46 fe ff ff       	jmp    2758 <_Z20ParseArgsAndMakeSpeciPPcPjS1_P14MandelbrotImpl+0x48>
    2912:	4c 8b 3d 9f 86 00 00 	mov    0x869f(%rip),%r15        # afb8 <_ZSt4cout@GLIBCXX_3.4>
    2919:	48 8d 35 07 69 00 00 	lea    0x6907(%rip),%rsi        # 9227 <_IO_stdin_used+0x227>
    2920:	ba 18 00 00 00       	mov    $0x18,%edx
    2925:	4c 89 ff             	mov    %r15,%rdi
    2928:	e8 03 f8 ff ff       	call   2130 <_ZSt16__ostream_insertIcSt11char_traitsIcEERSt13basic_ostreamIT_T0_ES6_PKS3_l@plt>
    292d:	48 8b 5c 24 10       	mov    0x10(%rsp),%rbx
    2932:	8b 33                	mov    (%rbx),%esi
    2934:	4c 89 ff             	mov    %r15,%rdi
    2937:	e8 74 f7 ff ff       	call   20b0 <_ZNSo9_M_insertImEERSoT_@plt>
    293c:	49 89 c7             	mov    %rax,%r15
    293f:	48 8d 35 fa 68 00 00 	lea    0x68fa(%rip),%rsi        # 9240 <_IO_stdin_used+0x240>
    2946:	ba 01 00 00 00       	mov    $0x1,%edx
    294b:	48 89 c7             	mov    %rax,%rdi
    294e:	e8 dd f7 ff ff       	call   2130 <_ZSt16__ostream_insertIcSt11char_traitsIcEERSt13basic_ostreamIT_T0_ES6_PKS3_l@plt>
    2953:	8b 33                	mov    (%rbx),%esi
    2955:	4c 89 ff             	mov    %r15,%rdi
    2958:	e8 53 f7 ff ff       	call   20b0 <_ZNSo9_M_insertImEERSoT_@plt>
    295d:	49 89 c6             	mov    %rax,%r14
    2960:	48 8d 35 db 68 00 00 	lea    0x68db(%rip),%rsi        # 9242 <_IO_stdin_used+0x242>
    2967:	ba 05 00 00 00       	mov    $0x5,%edx
    296c:	48 89 c7             	mov    %rax,%rdi
    296f:	e8 bc f7 ff ff       	call   2130 <_ZSt16__ostream_insertIcSt11char_traitsIcEERSt13basic_ostreamIT_T0_ES6_PKS3_l@plt>
    2974:	48 8b 44 24 08       	mov    0x8(%rsp),%rax
    2979:	8b 30                	mov    (%rax),%esi
    297b:	4c 89 f7             	mov    %r14,%rdi
    297e:	e8 2d f7 ff ff       	call   20b0 <_ZNSo9_M_insertImEERSoT_@plt>
    2983:	48 89 c3             	mov    %rax,%rbx
    2986:	48 8d 35 bb 68 00 00 	lea    0x68bb(%rip),%rsi        # 9248 <_IO_stdin_used+0x248>
    298d:	ba 10 00 00 00       	mov    $0x10,%edx
    2992:	48 89 c7             	mov    %rax,%rdi
    2995:	e8 96 f7 ff ff       	call   2130 <_ZSt16__ostream_insertIcSt11char_traitsIcEERSt13basic_ostreamIT_T0_ES6_PKS3_l@plt>
    299a:	48 8b 03             	mov    (%rbx),%rax
    299d:	48 8b 40 e8          	mov    -0x18(%rax),%rax
    29a1:	4c 8b b4 03 f0 00 00 	mov    0xf0(%rbx,%rax,1),%r14
    29a8:	00 
    29a9:	4d 85 f6             	test   %r14,%r14
    29ac:	0f 84 6b 01 00 00    	je     2b1d <_Z20ParseArgsAndMakeSpeciPPcPjS1_P14MandelbrotImpl+0x40d>
    29b2:	41 80 7e 38 00       	cmpb   $0x0,0x38(%r14)
    29b7:	74 45                	je     29fe <_Z20ParseArgsAndMakeSpeciPPcPjS1_P14MandelbrotImpl+0x2ee>
    29b9:	41 0f b6 46 43       	movzbl 0x43(%r14),%eax
    29be:	eb 54                	jmp    2a14 <_Z20ParseArgsAndMakeSpeciPPcPjS1_P14MandelbrotImpl+0x304>
    29c0:	48 8b 1d 11 86 00 00 	mov    0x8611(%rip),%rbx        # afd8 <_ZSt4cerr@GLIBCXX_3.4>
    29c7:	48 8d 35 4a 68 00 00 	lea    0x684a(%rip),%rsi        # 9218 <_IO_stdin_used+0x218>
    29ce:	ba 0e 00 00 00       	mov    $0xe,%edx
    29d3:	48 89 df             	mov    %rbx,%rdi
    29d6:	e8 55 f7 ff ff       	call   2130 <_ZSt16__ostream_insertIcSt11char_traitsIcEERSt13basic_ostreamIT_T0_ES6_PKS3_l@plt>
    29db:	4f 8b 34 ef          	mov    (%r15,%r13,8),%r14
    29df:	4d 85 f6             	test   %r14,%r14
    29e2:	74 4a                	je     2a2e <_Z20ParseArgsAndMakeSpeciPPcPjS1_P14MandelbrotImpl+0x31e>
    29e4:	4c 89 f7             	mov    %r14,%rdi
    29e7:	e8 84 f6 ff ff       	call   2070 <strlen@plt>
    29ec:	48 8b 3d e5 85 00 00 	mov    0x85e5(%rip),%rdi        # afd8 <_ZSt4cerr@GLIBCXX_3.4>
    29f3:	4c 89 f6             	mov    %r14,%rsi
    29f6:	48 89 c2             	mov    %rax,%rdx
    29f9:	e9 94 00 00 00       	jmp    2a92 <_Z20ParseArgsAndMakeSpeciPPcPjS1_P14MandelbrotImpl+0x382>
    29fe:	4c 89 f7             	mov    %r14,%rdi
    2a01:	e8 3a f7 ff ff       	call   2140 <_ZNKSt5ctypeIcE13_M_widen_initEv@plt>
    2a06:	49 8b 06             	mov    (%r14),%rax
    2a09:	4c 89 f7             	mov    %r14,%rdi
    2a0c:	be 0a 00 00 00       	mov    $0xa,%esi
    2a11:	ff 50 30             	call   *0x30(%rax)
    2a14:	0f be f0             	movsbl %al,%esi
    2a17:	48 89 df             	mov    %rbx,%rdi
    2a1a:	e8 11 f6 ff ff       	call   2030 <_ZNSo3putEc@plt>
    2a1f:	48 89 c7             	mov    %rax,%rdi
    2a22:	e8 99 f6 ff ff       	call   20c0 <_ZNSo5flushEv@plt>
    2a27:	31 c0                	xor    %eax,%eax
    2a29:	e9 bb 00 00 00       	jmp    2ae9 <_Z20ParseArgsAndMakeSpeciPPcPjS1_P14MandelbrotImpl+0x3d9>
    2a2e:	48 8b 03             	mov    (%rbx),%rax
    2a31:	48 8b 40 e8          	mov    -0x18(%rax),%rax
    2a35:	48 8d 3c 03          	lea    (%rbx,%rax,1),%rdi
    2a39:	8b 74 03 20          	mov    0x20(%rbx,%rax,1),%esi
    2a3d:	83 ce 01             	or     $0x1,%esi
    2a40:	e8 9b f7 ff ff       	call   21e0 <_ZNSt9basic_iosIcSt11char_traitsIcEE5clearESt12_Ios_Iostate@plt>
    2a45:	eb 50                	jmp    2a97 <_Z20ParseArgsAndMakeSpeciPPcPjS1_P14MandelbrotImpl+0x387>
    2a47:	48 8b 1d 8a 85 00 00 	mov    0x858a(%rip),%rbx        # afd8 <_ZSt4cerr@GLIBCXX_3.4>
    2a4e:	48 8d 35 a2 67 00 00 	lea    0x67a2(%rip),%rsi        # 91f7 <_IO_stdin_used+0x1f7>
    2a55:	eb 33                	jmp    2a8a <_Z20ParseArgsAndMakeSpeciPPcPjS1_P14MandelbrotImpl+0x37a>
    2a57:	48 8b 1d 7a 85 00 00 	mov    0x857a(%rip),%rbx        # afd8 <_ZSt4cerr@GLIBCXX_3.4>
    2a5e:	48 8d 35 27 67 00 00 	lea    0x6727(%rip),%rsi        # 918c <_IO_stdin_used+0x18c>
    2a65:	eb 23                	jmp    2a8a <_Z20ParseArgsAndMakeSpeciPPcPjS1_P14MandelbrotImpl+0x37a>
    2a67:	48 8b 1d 6a 85 00 00 	mov    0x856a(%rip),%rbx        # afd8 <_ZSt4cerr@GLIBCXX_3.4>
    2a6e:	48 8d 35 eb 66 00 00 	lea    0x66eb(%rip),%rsi        # 9160 <_IO_stdin_used+0x160>
    2a75:	ba 2b 00 00 00       	mov    $0x2b,%edx
    2a7a:	eb 13                	jmp    2a8f <_Z20ParseArgsAndMakeSpeciPPcPjS1_P14MandelbrotImpl+0x37f>
    2a7c:	48 8b 1d 55 85 00 00 	mov    0x8555(%rip),%rbx        # afd8 <_ZSt4cerr@GLIBCXX_3.4>
    2a83:	48 8d 35 23 67 00 00 	lea    0x6723(%rip),%rsi        # 91ad <_IO_stdin_used+0x1ad>
    2a8a:	ba 20 00 00 00       	mov    $0x20,%edx
    2a8f:	48 89 df             	mov    %rbx,%rdi
    2a92:	e8 99 f6 ff ff       	call   2130 <_ZSt16__ostream_insertIcSt11char_traitsIcEERSt13basic_ostreamIT_T0_ES6_PKS3_l@plt>
    2a97:	48 8b 03             	mov    (%rbx),%rax
    2a9a:	48 8b 40 e8          	mov    -0x18(%rax),%rax
    2a9e:	48 8b 9c 03 f0 00 00 	mov    0xf0(%rbx,%rax,1),%rbx
    2aa5:	00 
    2aa6:	48 85 db             	test   %rbx,%rbx
    2aa9:	74 72                	je     2b1d <_Z20ParseArgsAndMakeSpeciPPcPjS1_P14MandelbrotImpl+0x40d>
    2aab:	80 7b 38 00          	cmpb   $0x0,0x38(%rbx)
    2aaf:	74 06                	je     2ab7 <_Z20ParseArgsAndMakeSpeciPPcPjS1_P14MandelbrotImpl+0x3a7>
    2ab1:	0f b6 43 43          	movzbl 0x43(%rbx),%eax
    2ab5:	eb 16                	jmp    2acd <_Z20ParseArgsAndMakeSpeciPPcPjS1_P14MandelbrotImpl+0x3bd>
    2ab7:	48 89 df             	mov    %rbx,%rdi
    2aba:	e8 81 f6 ff ff       	call   2140 <_ZNKSt5ctypeIcE13_M_widen_initEv@plt>
    2abf:	48 8b 03             	mov    (%rbx),%rax
    2ac2:	48 89 df             	mov    %rbx,%rdi
    2ac5:	be 0a 00 00 00       	mov    $0xa,%esi
    2aca:	ff 50 30             	call   *0x30(%rax)
    2acd:	0f be f0             	movsbl %al,%esi
    2ad0:	48 8b 3d 01 85 00 00 	mov    0x8501(%rip),%rdi        # afd8 <_ZSt4cerr@GLIBCXX_3.4>
    2ad7:	e8 54 f5 ff ff       	call   2030 <_ZNSo3putEc@plt>
    2adc:	48 89 c7             	mov    %rax,%rdi
    2adf:	e8 dc f5 ff ff       	call   20c0 <_ZNSo5flushEv@plt>
    2ae4:	b8 01 00 00 00       	mov    $0x1,%eax
    2ae9:	48 83 c4 18          	add    $0x18,%rsp
    2aed:	5b                   	pop    %rbx
    2aee:	41 5c                	pop    %r12
    2af0:	41 5d                	pop    %r13
    2af2:	41 5e                	pop    %r14
    2af4:	41 5f                	pop    %r15
    2af6:	5d                   	pop    %rbp
    2af7:	c3                   	ret
    2af8:	48 8b 1d d9 84 00 00 	mov    0x84d9(%rip),%rbx        # afd8 <_ZSt4cerr@GLIBCXX_3.4>
    2aff:	48 8d 35 d3 66 00 00 	lea    0x66d3(%rip),%rsi        # 91d9 <_IO_stdin_used+0x1d9>
    2b06:	ba 1d 00 00 00       	mov    $0x1d,%edx
    2b0b:	48 89 df             	mov    %rbx,%rdi
    2b0e:	e8 1d f6 ff ff       	call   2130 <_ZSt16__ostream_insertIcSt11char_traitsIcEERSt13basic_ostreamIT_T0_ES6_PKS3_l@plt>
    2b13:	48 89 df             	mov    %rbx,%rdi
    2b16:	e8 65 f5 ff ff       	call   2080 <_ZSt4endlIcSt11char_traitsIcEERSt13basic_ostreamIT_T0_ES6_@plt>
    2b1b:	eb c7                	jmp    2ae4 <_Z20ParseArgsAndMakeSpeciPPcPjS1_P14MandelbrotImpl+0x3d4>
    2b1d:	e8 2e f6 ff ff       	call   2150 <_ZSt16__throw_bad_castv@plt>
    2b22:	66 66 66 66 66 2e 0f 	data16 data16 data16 data16 cs nopw 0x0(%rax,%rax,1)
    2b29:	1f 84 00 00 00 00 00 

0000000000002b30 <_Z8writeBMPPKcjRKSt6vectorIhSaIhEE>:
    2b30:	41 56                	push   %r14
    2b32:	53                   	push   %rbx
    2b33:	48 81 ec 38 02 00 00 	sub    $0x238,%rsp
    2b3a:	48 89 d3             	mov    %rdx,%rbx
    2b3d:	48 89 f8             	mov    %rdi,%rax
    2b40:	66 c7 44 24 02 42 4d 	movw   $0x4d42,0x2(%rsp)
    2b47:	48 c7 44 24 04 00 00 	movq   $0x0,0x4(%rsp)
    2b4e:	00 00 
    2b50:	48 b9 36 00 00 00 28 	movabs $0x2800000036,%rcx
    2b57:	00 00 00 
    2b5a:	48 89 4c 24 0c       	mov    %rcx,0xc(%rsp)
    2b5f:	c7 44 24 1c 01 00 18 	movl   $0x180001,0x1c(%rsp)
    2b66:	00 
    2b67:	c5 f8 57 c0          	vxorps %xmm0,%xmm0,%xmm0
    2b6b:	c5 f8 11 44 24 20    	vmovups %xmm0,0x20(%rsp)
    2b71:	48 c7 44 24 30 00 00 	movq   $0x0,0x30(%rsp)
    2b78:	00 00 
    2b7a:	89 74 24 14          	mov    %esi,0x14(%rsp)
    2b7e:	89 74 24 18          	mov    %esi,0x18(%rsp)
    2b82:	0f af f6             	imul   %esi,%esi
    2b85:	8d 0c 76             	lea    (%rsi,%rsi,2),%ecx
    2b88:	89 4c 24 24          	mov    %ecx,0x24(%rsp)
    2b8c:	8d 0c 76             	lea    (%rsi,%rsi,2),%ecx
    2b8f:	83 c1 36             	add    $0x36,%ecx
    2b92:	89 4c 24 04          	mov    %ecx,0x4(%rsp)
    2b96:	4c 8d 74 24 38       	lea    0x38(%rsp),%r14
    2b9b:	4c 89 f7             	mov    %r14,%rdi
    2b9e:	48 89 c6             	mov    %rax,%rsi
    2ba1:	ba 04 00 00 00       	mov    $0x4,%edx
    2ba6:	e8 75 f5 ff ff       	call   2120 <_ZNSt14basic_ofstreamIcSt11char_traitsIcEEC1EPKcSt13_Ios_Openmode@plt>
    2bab:	48 8d 74 24 02       	lea    0x2(%rsp),%rsi
    2bb0:	ba 36 00 00 00       	mov    $0x36,%edx
    2bb5:	4c 89 f7             	mov    %r14,%rdi
    2bb8:	e8 b3 f5 ff ff       	call   2170 <_ZNSo5writeEPKcl@plt>
    2bbd:	48 8b 33             	mov    (%rbx),%rsi
    2bc0:	48 8b 53 08          	mov    0x8(%rbx),%rdx
    2bc4:	48 29 f2             	sub    %rsi,%rdx
    2bc7:	48 8d 7c 24 38       	lea    0x38(%rsp),%rdi
    2bcc:	e8 9f f5 ff ff       	call   2170 <_ZNSo5writeEPKcl@plt>
    2bd1:	48 8d 7c 24 38       	lea    0x38(%rsp),%rdi
    2bd6:	e8 d5 f5 ff ff       	call   21b0 <_ZNSt14basic_ofstreamIcSt11char_traitsIcEED1Ev@plt>
    2bdb:	48 81 c4 38 02 00 00 	add    $0x238,%rsp
    2be2:	5b                   	pop    %rbx
    2be3:	41 5e                	pop    %r14
    2be5:	c3                   	ret
    2be6:	48 89 c3             	mov    %rax,%rbx
    2be9:	48 8d 7c 24 38       	lea    0x38(%rsp),%rdi
    2bee:	e8 bd f5 ff ff       	call   21b0 <_ZNSt14basic_ofstreamIcSt11char_traitsIcEED1Ev@plt>
    2bf3:	48 89 df             	mov    %rbx,%rdi
    2bf6:	e8 f5 f5 ff ff       	call   21f0 <_Unwind_Resume@plt>
    2bfb:	0f 1f 44 00 00       	nopl   0x0(%rax,%rax,1)

0000000000002c00 <_Z15iters_to_colorsjjRKSt6vectorIjSaIjEE>:
    2c00:	55                   	push   %rbp
    2c01:	41 57                	push   %r15
    2c03:	41 56                	push   %r14
    2c05:	41 55                	push   %r13
    2c07:	41 54                	push   %r12
    2c09:	53                   	push   %rbx
    2c0a:	48 83 ec 48          	sub    $0x48,%rsp
    2c0e:	48 89 4c 24 18       	mov    %rcx,0x18(%rsp)
    2c13:	41 89 f7             	mov    %esi,%r15d
    2c16:	49 89 fc             	mov    %rdi,%r12
    2c19:	41 89 f5             	mov    %esi,%r13d
    2c1c:	89 54 24 04          	mov    %edx,0x4(%rsp)
    2c20:	41 89 d2             	mov    %edx,%r10d
    2c23:	85 f6                	test   %esi,%esi
    2c25:	4c 89 7c 24 38       	mov    %r15,0x38(%rsp)
    2c2a:	0f 84 0d 03 00 00    	je     2f3d <_Z15iters_to_colorsjjRKSt6vectorIjSaIjEE+0x33d>
    2c30:	48 8b 44 24 18       	mov    0x18(%rsp),%rax
    2c35:	48 8b 00             	mov    (%rax),%rax
    2c38:	49 8d 4d ff          	lea    -0x1(%r13),%rcx
    2c3c:	44 89 ea             	mov    %r13d,%edx
    2c3f:	83 e2 e0             	and    $0xffffffe0,%edx
    2c42:	44 89 ee             	mov    %r13d,%esi
    2c45:	83 e6 fc             	and    $0xfffffffc,%esi
    2c48:	48 89 f7             	mov    %rsi,%rdi
    2c4b:	48 f7 df             	neg    %rdi
    2c4e:	45 31 c0             	xor    %r8d,%r8d
    2c51:	45 31 c9             	xor    %r9d,%r9d
    2c54:	44 8b 54 24 04       	mov    0x4(%rsp),%r10d
    2c59:	eb 14                	jmp    2c6f <_Z15iters_to_colorsjjRKSt6vectorIjSaIjEE+0x6f>
    2c5b:	0f 1f 44 00 00       	nopl   0x0(%rax,%rax,1)
    2c60:	41 ff c1             	inc    %r9d
    2c63:	4d 01 e8             	add    %r13,%r8
    2c66:	45 39 f9             	cmp    %r15d,%r9d
    2c69:	0f 84 ce 02 00 00    	je     2f3d <_Z15iters_to_colorsjjRKSt6vectorIjSaIjEE+0x33d>
    2c6f:	41 83 ff 03          	cmp    $0x3,%r15d
    2c73:	76 20                	jbe    2c95 <_Z15iters_to_colorsjjRKSt6vectorIjSaIjEE+0x95>
    2c75:	49 89 cb             	mov    %rcx,%r11
    2c78:	49 c1 eb 20          	shr    $0x20,%r11
    2c7c:	41 0f 95 c3          	setne  %r11b
    2c80:	44 89 fb             	mov    %r15d,%ebx
    2c83:	41 0f af d9          	imul   %r9d,%ebx
    2c87:	01 cb                	add    %ecx,%ebx
    2c89:	0f 92 c3             	setb   %bl
    2c8c:	44 08 db             	or     %r11b,%bl
    2c8f:	0f 84 ab 01 00 00    	je     2e40 <_Z15iters_to_colorsjjRKSt6vectorIjSaIjEE+0x240>
    2c95:	31 db                	xor    %ebx,%ebx
    2c97:	45 89 ee             	mov    %r13d,%r14d
    2c9a:	41 29 de             	sub    %ebx,%r14d
    2c9d:	49 89 db             	mov    %rbx,%r11
    2ca0:	41 83 e6 07          	and    $0x7,%r14d
    2ca4:	74 21                	je     2cc7 <_Z15iters_to_colorsjjRKSt6vectorIjSaIjEE+0xc7>
    2ca6:	66 2e 0f 1f 84 00 00 	cs nopw 0x0(%rax,%rax,1)
    2cad:	00 00 00 
    2cb0:	47 8d 3c 18          	lea    (%r8,%r11,1),%r15d
    2cb4:	42 8b 2c b8          	mov    (%rax,%r15,4),%ebp
    2cb8:	44 39 d5             	cmp    %r10d,%ebp
    2cbb:	44 0f 42 d5          	cmovb  %ebp,%r10d
    2cbf:	49 ff c3             	inc    %r11
    2cc2:	49 ff ce             	dec    %r14
    2cc5:	75 e9                	jne    2cb0 <_Z15iters_to_colorsjjRKSt6vectorIjSaIjEE+0xb0>
    2cc7:	4c 29 eb             	sub    %r13,%rbx
    2cca:	48 83 fb f8          	cmp    $0xfffffffffffffff8,%rbx
    2cce:	4c 8b 7c 24 38       	mov    0x38(%rsp),%r15
    2cd3:	76 18                	jbe    2ced <_Z15iters_to_colorsjjRKSt6vectorIjSaIjEE+0xed>
    2cd5:	eb 89                	jmp    2c60 <_Z15iters_to_colorsjjRKSt6vectorIjSaIjEE+0x60>
    2cd7:	66 0f 1f 84 00 00 00 	nopw   0x0(%rax,%rax,1)
    2cde:	00 00 
    2ce0:	49 83 c3 08          	add    $0x8,%r11
    2ce4:	4d 39 dd             	cmp    %r11,%r13
    2ce7:	0f 84 73 ff ff ff    	je     2c60 <_Z15iters_to_colorsjjRKSt6vectorIjSaIjEE+0x60>
    2ced:	43 8d 1c 18          	lea    (%r8,%r11,1),%ebx
    2cf1:	8b 1c 98             	mov    (%rax,%rbx,4),%ebx
    2cf4:	44 39 d3             	cmp    %r10d,%ebx
    2cf7:	0f 83 93 00 00 00    	jae    2d90 <_Z15iters_to_colorsjjRKSt6vectorIjSaIjEE+0x190>
    2cfd:	47 8d 14 18          	lea    (%r8,%r11,1),%r10d
    2d01:	41 ff c2             	inc    %r10d
    2d04:	46 8b 14 90          	mov    (%rax,%r10,4),%r10d
    2d08:	41 39 da             	cmp    %ebx,%r10d
    2d0b:	0f 83 96 00 00 00    	jae    2da7 <_Z15iters_to_colorsjjRKSt6vectorIjSaIjEE+0x1a7>
    2d11:	43 8d 1c 18          	lea    (%r8,%r11,1),%ebx
    2d15:	83 c3 02             	add    $0x2,%ebx
    2d18:	8b 1c 98             	mov    (%rax,%rbx,4),%ebx
    2d1b:	44 39 d3             	cmp    %r10d,%ebx
    2d1e:	0f 83 99 00 00 00    	jae    2dbd <_Z15iters_to_colorsjjRKSt6vectorIjSaIjEE+0x1bd>
    2d24:	47 8d 14 18          	lea    (%r8,%r11,1),%r10d
    2d28:	41 83 c2 03          	add    $0x3,%r10d
    2d2c:	46 8b 14 90          	mov    (%rax,%r10,4),%r10d
    2d30:	41 39 da             	cmp    %ebx,%r10d
    2d33:	0f 83 9c 00 00 00    	jae    2dd5 <_Z15iters_to_colorsjjRKSt6vectorIjSaIjEE+0x1d5>
    2d39:	43 8d 1c 18          	lea    (%r8,%r11,1),%ebx
    2d3d:	83 c3 04             	add    $0x4,%ebx
    2d40:	8b 1c 98             	mov    (%rax,%rbx,4),%ebx
    2d43:	44 39 d3             	cmp    %r10d,%ebx
    2d46:	0f 83 9f 00 00 00    	jae    2deb <_Z15iters_to_colorsjjRKSt6vectorIjSaIjEE+0x1eb>
    2d4c:	47 8d 14 18          	lea    (%r8,%r11,1),%r10d
    2d50:	41 83 c2 05          	add    $0x5,%r10d
    2d54:	46 8b 14 90          	mov    (%rax,%r10,4),%r10d
    2d58:	41 39 da             	cmp    %ebx,%r10d
    2d5b:	0f 83 a2 00 00 00    	jae    2e03 <_Z15iters_to_colorsjjRKSt6vectorIjSaIjEE+0x203>
    2d61:	43 8d 1c 18          	lea    (%r8,%r11,1),%ebx
    2d65:	83 c3 06             	add    $0x6,%ebx
    2d68:	8b 1c 98             	mov    (%rax,%rbx,4),%ebx
    2d6b:	44 39 d3             	cmp    %r10d,%ebx
    2d6e:	0f 83 a5 00 00 00    	jae    2e19 <_Z15iters_to_colorsjjRKSt6vectorIjSaIjEE+0x219>
    2d74:	47 8d 14 18          	lea    (%r8,%r11,1),%r10d
    2d78:	41 83 c2 07          	add    $0x7,%r10d
    2d7c:	46 8b 14 90          	mov    (%rax,%r10,4),%r10d
    2d80:	41 39 da             	cmp    %ebx,%r10d
    2d83:	0f 82 57 ff ff ff    	jb     2ce0 <_Z15iters_to_colorsjjRKSt6vectorIjSaIjEE+0xe0>
    2d89:	e9 a3 00 00 00       	jmp    2e31 <_Z15iters_to_colorsjjRKSt6vectorIjSaIjEE+0x231>
    2d8e:	66 90                	xchg   %ax,%ax
    2d90:	44 89 d3             	mov    %r10d,%ebx
    2d93:	47 8d 14 18          	lea    (%r8,%r11,1),%r10d
    2d97:	41 ff c2             	inc    %r10d
    2d9a:	46 8b 14 90          	mov    (%rax,%r10,4),%r10d
    2d9e:	41 39 da             	cmp    %ebx,%r10d
    2da1:	0f 82 6a ff ff ff    	jb     2d11 <_Z15iters_to_colorsjjRKSt6vectorIjSaIjEE+0x111>
    2da7:	41 89 da             	mov    %ebx,%r10d
    2daa:	43 8d 1c 18          	lea    (%r8,%r11,1),%ebx
    2dae:	83 c3 02             	add    $0x2,%ebx
    2db1:	8b 1c 98             	mov    (%rax,%rbx,4),%ebx
    2db4:	44 39 d3             	cmp    %r10d,%ebx
    2db7:	0f 82 67 ff ff ff    	jb     2d24 <_Z15iters_to_colorsjjRKSt6vectorIjSaIjEE+0x124>
    2dbd:	44 89 d3             	mov    %r10d,%ebx
    2dc0:	47 8d 14 18          	lea    (%r8,%r11,1),%r10d
    2dc4:	41 83 c2 03          	add    $0x3,%r10d
    2dc8:	46 8b 14 90          	mov    (%rax,%r10,4),%r10d
    2dcc:	41 39 da             	cmp    %ebx,%r10d
    2dcf:	0f 82 64 ff ff ff    	jb     2d39 <_Z15iters_to_colorsjjRKSt6vectorIjSaIjEE+0x139>
    2dd5:	41 89 da             	mov    %ebx,%r10d
    2dd8:	43 8d 1c 18          	lea    (%r8,%r11,1),%ebx
    2ddc:	83 c3 04             	add    $0x4,%ebx
    2ddf:	8b 1c 98             	mov    (%rax,%rbx,4),%ebx
    2de2:	44 39 d3             	cmp    %r10d,%ebx
    2de5:	0f 82 61 ff ff ff    	jb     2d4c <_Z15iters_to_colorsjjRKSt6vectorIjSaIjEE+0x14c>
    2deb:	44 89 d3             	mov    %r10d,%ebx
    2dee:	47 8d 14 18          	lea    (%r8,%r11,1),%r10d
    2df2:	41 83 c2 05          	add    $0x5,%r10d
    2df6:	46 8b 14 90          	mov    (%rax,%r10,4),%r10d
    2dfa:	41 39 da             	cmp    %ebx,%r10d
    2dfd:	0f 82 5e ff ff ff    	jb     2d61 <_Z15iters_to_colorsjjRKSt6vectorIjSaIjEE+0x161>
    2e03:	41 89 da             	mov    %ebx,%r10d
    2e06:	43 8d 1c 18          	lea    (%r8,%r11,1),%ebx
    2e0a:	83 c3 06             	add    $0x6,%ebx
    2e0d:	8b 1c 98             	mov    (%rax,%rbx,4),%ebx
    2e10:	44 39 d3             	cmp    %r10d,%ebx
    2e13:	0f 82 5b ff ff ff    	jb     2d74 <_Z15iters_to_colorsjjRKSt6vectorIjSaIjEE+0x174>
    2e19:	44 89 d3             	mov    %r10d,%ebx
    2e1c:	47 8d 14 18          	lea    (%r8,%r11,1),%r10d
    2e20:	41 83 c2 07          	add    $0x7,%r10d
    2e24:	46 8b 14 90          	mov    (%rax,%r10,4),%r10d
    2e28:	41 39 da             	cmp    %ebx,%r10d
    2e2b:	0f 82 af fe ff ff    	jb     2ce0 <_Z15iters_to_colorsjjRKSt6vectorIjSaIjEE+0xe0>
    2e31:	41 89 da             	mov    %ebx,%r10d
    2e34:	e9 a7 fe ff ff       	jmp    2ce0 <_Z15iters_to_colorsjjRKSt6vectorIjSaIjEE+0xe0>
    2e39:	0f 1f 80 00 00 00 00 	nopl   0x0(%rax)
    2e40:	41 83 ff 20          	cmp    $0x20,%r15d
    2e44:	73 08                	jae    2e4e <_Z15iters_to_colorsjjRKSt6vectorIjSaIjEE+0x24e>
    2e46:	45 31 db             	xor    %r11d,%r11d
    2e49:	e9 96 00 00 00       	jmp    2ee4 <_Z15iters_to_colorsjjRKSt6vectorIjSaIjEE+0x2e4>
    2e4e:	62 d2 7d 28 7c c2    	vpbroadcastd %r10d,%ymm0
    2e54:	45 89 c2             	mov    %r8d,%r10d
    2e57:	49 89 d3             	mov    %rdx,%r11
    2e5a:	c5 fd 6f c8          	vmovdqa %ymm0,%ymm1
    2e5e:	c5 fd 6f d0          	vmovdqa %ymm0,%ymm2
    2e62:	c5 fd 6f d8          	vmovdqa %ymm0,%ymm3
    2e66:	66 2e 0f 1f 84 00 00 	cs nopw 0x0(%rax,%rax,1)
    2e6d:	00 00 00 
    2e70:	44 89 d3             	mov    %r10d,%ebx
    2e73:	c4 e2 7d 3b 04 98    	vpminud (%rax,%rbx,4),%ymm0,%ymm0
    2e79:	c4 e2 75 3b 4c 98 20 	vpminud 0x20(%rax,%rbx,4),%ymm1,%ymm1
    2e80:	c4 e2 6d 3b 54 98 40 	vpminud 0x40(%rax,%rbx,4),%ymm2,%ymm2
    2e87:	c4 e2 65 3b 5c 98 60 	vpminud 0x60(%rax,%rbx,4),%ymm3,%ymm3
    2e8e:	41 83 c2 20          	add    $0x20,%r10d
    2e92:	49 83 c3 e0          	add    $0xffffffffffffffe0,%r11
    2e96:	75 d8                	jne    2e70 <_Z15iters_to_colorsjjRKSt6vectorIjSaIjEE+0x270>
    2e98:	c4 e2 7d 3b c1       	vpminud %ymm1,%ymm0,%ymm0
    2e9d:	c4 e2 6d 3b cb       	vpminud %ymm3,%ymm2,%ymm1
    2ea2:	c4 e2 7d 3b c1       	vpminud %ymm1,%ymm0,%ymm0
    2ea7:	c4 e3 7d 39 c1 01    	vextracti128 $0x1,%ymm0,%xmm1
    2ead:	c4 e2 79 3b c1       	vpminud %xmm1,%xmm0,%xmm0
    2eb2:	c5 f9 70 c8 ee       	vpshufd $0xee,%xmm0,%xmm1
    2eb7:	c4 e2 79 3b c1       	vpminud %xmm1,%xmm0,%xmm0
    2ebc:	c5 f9 70 c8 55       	vpshufd $0x55,%xmm0,%xmm1
    2ec1:	c4 e2 79 3b c1       	vpminud %xmm1,%xmm0,%xmm0
    2ec6:	c4 c1 79 7e c2       	vmovd  %xmm0,%r10d
    2ecb:	44 39 ea             	cmp    %r13d,%edx
    2ece:	0f 84 8c fd ff ff    	je     2c60 <_Z15iters_to_colorsjjRKSt6vectorIjSaIjEE+0x60>
    2ed4:	48 89 d3             	mov    %rdx,%rbx
    2ed7:	49 89 d3             	mov    %rdx,%r11
    2eda:	41 f6 c5 1c          	test   $0x1c,%r13b
    2ede:	0f 84 b3 fd ff ff    	je     2c97 <_Z15iters_to_colorsjjRKSt6vectorIjSaIjEE+0x97>
    2ee4:	62 d2 7d 08 7c c2    	vpbroadcastd %r10d,%xmm0
    2eea:	4e 8d 14 1f          	lea    (%rdi,%r11,1),%r10
    2eee:	45 01 c3             	add    %r8d,%r11d
    2ef1:	66 66 66 66 66 66 2e 	data16 data16 data16 data16 data16 cs nopw 0x0(%rax,%rax,1)
    2ef8:	0f 1f 84 00 00 00 00 
    2eff:	00 
    2f00:	44 89 db             	mov    %r11d,%ebx
    2f03:	c4 e2 79 3b 04 98    	vpminud (%rax,%rbx,4),%xmm0,%xmm0
    2f09:	41 83 c3 04          	add    $0x4,%r11d
    2f0d:	49 83 c2 04          	add    $0x4,%r10
    2f11:	75 ed                	jne    2f00 <_Z15iters_to_colorsjjRKSt6vectorIjSaIjEE+0x300>
    2f13:	c5 f9 70 c8 ee       	vpshufd $0xee,%xmm0,%xmm1
    2f18:	c4 e2 79 3b c1       	vpminud %xmm1,%xmm0,%xmm0
    2f1d:	c5 f9 70 c8 55       	vpshufd $0x55,%xmm0,%xmm1
    2f22:	c4 e2 79 3b c1       	vpminud %xmm1,%xmm0,%xmm0
    2f27:	c4 c1 79 7e c2       	vmovd  %xmm0,%r10d
    2f2c:	48 89 f3             	mov    %rsi,%rbx
    2f2f:	44 39 ee             	cmp    %r13d,%esi
    2f32:	0f 84 28 fd ff ff    	je     2c60 <_Z15iters_to_colorsjjRKSt6vectorIjSaIjEE+0x60>
    2f38:	e9 5a fd ff ff       	jmp    2c97 <_Z15iters_to_colorsjjRKSt6vectorIjSaIjEE+0x97>
    2f3d:	4c 89 6c 24 30       	mov    %r13,0x30(%rsp)
    2f42:	62 d1 5e 08 7b c2    	vcvtusi2ss %r10d,%xmm4,%xmm0
    2f48:	c5 fa 11 44 24 08    	vmovss %xmm0,0x8(%rsp)
    2f4e:	c5 f8 77             	vzeroupper
    2f51:	e8 0a f2 ff ff       	call   2160 <log2f@plt>
    2f56:	c5 fa 11 44 24 14    	vmovss %xmm0,0x14(%rsp)
    2f5c:	62 f1 5e 08 7b 44 24 	vcvtusi2ssl 0x4(%rsp),%xmm4,%xmm0
    2f63:	01 
    2f64:	c5 fa 5e 44 24 08    	vdivss 0x8(%rsp),%xmm0,%xmm0
    2f6a:	e8 f1 f1 ff ff       	call   2160 <log2f@plt>
    2f6f:	44 89 f8             	mov    %r15d,%eax
    2f72:	0f af c0             	imul   %eax,%eax
    2f75:	85 c0                	test   %eax,%eax
    2f77:	74 3b                	je     2fb4 <_Z15iters_to_colorsjjRKSt6vectorIjSaIjEE+0x3b4>
    2f79:	c5 fa 11 44 24 08    	vmovss %xmm0,0x8(%rsp)
    2f7f:	8d 2c 40             	lea    (%rax,%rax,2),%ebp
    2f82:	48 89 ef             	mov    %rbp,%rdi
    2f85:	e8 76 f1 ff ff       	call   2100 <_Znwm@plt>
    2f8a:	49 89 c5             	mov    %rax,%r13
    2f8d:	49 89 04 24          	mov    %rax,(%r12)
    2f91:	48 8d 1c 28          	lea    (%rax,%rbp,1),%rbx
    2f95:	49 89 5c 24 10       	mov    %rbx,0x10(%r12)
    2f9a:	c6 00 00             	movb   $0x0,(%rax)
    2f9d:	48 89 c7             	mov    %rax,%rdi
    2fa0:	48 ff c7             	inc    %rdi
    2fa3:	48 ff cd             	dec    %rbp
    2fa6:	74 38                	je     2fe0 <_Z15iters_to_colorsjjRKSt6vectorIjSaIjEE+0x3e0>
    2fa8:	31 f6                	xor    %esi,%esi
    2faa:	48 89 ea             	mov    %rbp,%rdx
    2fad:	e8 ee f0 ff ff       	call   20a0 <memset@plt>
    2fb2:	eb 2f                	jmp    2fe3 <_Z15iters_to_colorsjjRKSt6vectorIjSaIjEE+0x3e3>
    2fb4:	c5 f1 ef c9          	vpxor  %xmm1,%xmm1,%xmm1
    2fb8:	c4 c1 7a 7f 0c 24    	vmovdqu %xmm1,(%r12)
    2fbe:	49 c7 44 24 10 00 00 	movq   $0x0,0x10(%r12)
    2fc5:	00 00 
    2fc7:	45 31 ed             	xor    %r13d,%r13d
    2fca:	31 db                	xor    %ebx,%ebx
    2fcc:	4c 89 64 24 40       	mov    %r12,0x40(%rsp)
    2fd1:	49 89 5c 24 08       	mov    %rbx,0x8(%r12)
    2fd6:	45 85 ff             	test   %r15d,%r15d
    2fd9:	75 21                	jne    2ffc <_Z15iters_to_colorsjjRKSt6vectorIjSaIjEE+0x3fc>
    2fdb:	e9 fb 01 00 00       	jmp    31db <_Z15iters_to_colorsjjRKSt6vectorIjSaIjEE+0x5db>
    2fe0:	48 89 fb             	mov    %rdi,%rbx
    2fe3:	c5 fa 10 44 24 08    	vmovss 0x8(%rsp),%xmm0
    2fe9:	4c 89 64 24 40       	mov    %r12,0x40(%rsp)
    2fee:	49 89 5c 24 08       	mov    %rbx,0x8(%r12)
    2ff3:	45 85 ff             	test   %r15d,%r15d
    2ff6:	0f 84 df 01 00 00    	je     31db <_Z15iters_to_colorsjjRKSt6vectorIjSaIjEE+0x5db>
    2ffc:	48 8b 44 24 18       	mov    0x18(%rsp),%rax
    3001:	48 8b 28             	mov    (%rax),%rbp
    3004:	4c 8b 64 24 30       	mov    0x30(%rsp),%r12
    3009:	41 83 e4 fe          	and    $0xfffffffe,%r12d
    300d:	c5 fa 10 0d ef 5f 00 	vmovss 0x5fef(%rip),%xmm1        # 9004 <_IO_stdin_used+0x4>
    3014:	00 
    3015:	c5 f2 5e c0          	vdivss %xmm0,%xmm1,%xmm0
    3019:	c5 fa 11 44 24 18    	vmovss %xmm0,0x18(%rsp)
    301f:	43 8d 04 7f          	lea    (%r15,%r15,2),%eax
    3023:	89 44 24 2c          	mov    %eax,0x2c(%rsp)
    3027:	31 db                	xor    %ebx,%ebx
    3029:	b8 05 00 00 00       	mov    $0x5,%eax
    302e:	b9 01 00 00 00       	mov    $0x1,%ecx
    3033:	eb 6c                	jmp    30a1 <_Z15iters_to_colorsjjRKSt6vectorIjSaIjEE+0x4a1>
    3035:	66 66 2e 0f 1f 84 00 	data16 cs nopw 0x0(%rax,%rax,1)
    303c:	00 00 00 00 
    3040:	62 f1 5e 08 7b c0    	vcvtusi2ss %eax,%xmm4,%xmm0
    3046:	e8 15 f1 ff ff       	call   2160 <log2f@plt>
    304b:	c5 fa 5c 44 24 14    	vsubss 0x14(%rsp),%xmm0,%xmm0
    3051:	c5 fa 59 05 c3 5f 00 	vmulss 0x5fc3(%rip),%xmm0,%xmm0        # 901c <_IO_stdin_used+0x1c>
    3058:	00 
    3059:	c5 fa 59 44 24 18    	vmulss 0x18(%rsp),%xmm0,%xmm0
    305f:	c5 fa 2c c0          	vcvttss2si %xmm0,%eax
    3063:	04 20                	add    $0x20,%al
    3065:	b1 20                	mov    $0x20,%cl
    3067:	8d 14 5b             	lea    (%rbx,%rbx,2),%edx
    306a:	41 88 4c 15 00       	mov    %cl,0x0(%r13,%rdx,1)
    306f:	8d 14 5b             	lea    (%rbx,%rbx,2),%edx
    3072:	ff c2                	inc    %edx
    3074:	41 88 44 15 00       	mov    %al,0x0(%r13,%rdx,1)
    3079:	8d 44 5b 02          	lea    0x2(%rbx,%rbx,2),%eax
    307d:	41 88 4c 05 00       	mov    %cl,0x0(%r13,%rax,1)
    3082:	48 8b 5c 24 08       	mov    0x8(%rsp),%rbx
    3087:	8b 44 24 28          	mov    0x28(%rsp),%eax
    308b:	8b 4c 24 24          	mov    0x24(%rsp),%ecx
    308f:	ff c3                	inc    %ebx
    3091:	03 44 24 2c          	add    0x2c(%rsp),%eax
    3095:	44 01 f9             	add    %r15d,%ecx
    3098:	44 39 fb             	cmp    %r15d,%ebx
    309b:	0f 84 3a 01 00 00    	je     31db <_Z15iters_to_colorsjjRKSt6vectorIjSaIjEE+0x5db>
    30a1:	41 be 00 00 00 00    	mov    $0x0,%r14d
    30a7:	41 83 ff 01          	cmp    $0x1,%r15d
    30ab:	48 89 5c 24 08       	mov    %rbx,0x8(%rsp)
    30b0:	89 44 24 28          	mov    %eax,0x28(%rsp)
    30b4:	89 4c 24 24          	mov    %ecx,0x24(%rsp)
    30b8:	0f 84 f4 00 00 00    	je     31b2 <_Z15iters_to_colorsjjRKSt6vectorIjSaIjEE+0x5b2>
    30be:	41 89 cf             	mov    %ecx,%r15d
    30c1:	89 c3                	mov    %eax,%ebx
    30c3:	45 31 f6             	xor    %r14d,%r14d
    30c6:	eb 5a                	jmp    3122 <_Z15iters_to_colorsjjRKSt6vectorIjSaIjEE+0x522>
    30c8:	0f 1f 84 00 00 00 00 	nopl   0x0(%rax,%rax,1)
    30cf:	00 
    30d0:	62 f1 5e 08 7b c0    	vcvtusi2ss %eax,%xmm4,%xmm0
    30d6:	e8 85 f0 ff ff       	call   2160 <log2f@plt>
    30db:	c5 fa 5c 44 24 14    	vsubss 0x14(%rsp),%xmm0,%xmm0
    30e1:	c5 fa 59 05 33 5f 00 	vmulss 0x5f33(%rip),%xmm0,%xmm0        # 901c <_IO_stdin_used+0x1c>
    30e8:	00 
    30e9:	c5 fa 59 44 24 18    	vmulss 0x18(%rsp),%xmm0,%xmm0
    30ef:	c5 fa 2c c0          	vcvttss2si %xmm0,%eax
    30f3:	04 20                	add    $0x20,%al
    30f5:	b1 20                	mov    $0x20,%cl
    30f7:	8d 53 fe             	lea    -0x2(%rbx),%edx
    30fa:	41 88 4c 15 00       	mov    %cl,0x0(%r13,%rdx,1)
    30ff:	8d 53 ff             	lea    -0x1(%rbx),%edx
    3102:	41 88 44 15 00       	mov    %al,0x0(%r13,%rdx,1)
    3107:	89 d8                	mov    %ebx,%eax
    3109:	41 88 4c 05 00       	mov    %cl,0x0(%r13,%rax,1)
    310e:	49 83 c6 02          	add    $0x2,%r14
    3112:	83 c3 06             	add    $0x6,%ebx
    3115:	41 83 c7 02          	add    $0x2,%r15d
    3119:	4d 39 f4             	cmp    %r14,%r12
    311c:	0f 84 7e 00 00 00    	je     31a0 <_Z15iters_to_colorsjjRKSt6vectorIjSaIjEE+0x5a0>
    3122:	41 8d 47 ff          	lea    -0x1(%r15),%eax
    3126:	8b 44 85 00          	mov    0x0(%rbp,%rax,4),%eax
    312a:	3b 44 24 04          	cmp    0x4(%rsp),%eax
    312e:	73 30                	jae    3160 <_Z15iters_to_colorsjjRKSt6vectorIjSaIjEE+0x560>
    3130:	62 f1 5e 08 7b c0    	vcvtusi2ss %eax,%xmm4,%xmm0
    3136:	e8 25 f0 ff ff       	call   2160 <log2f@plt>
    313b:	c5 fa 5c 44 24 14    	vsubss 0x14(%rsp),%xmm0,%xmm0
    3141:	c5 fa 59 05 d3 5e 00 	vmulss 0x5ed3(%rip),%xmm0,%xmm0        # 901c <_IO_stdin_used+0x1c>
    3148:	00 
    3149:	c5 fa 59 44 24 18    	vmulss 0x18(%rsp),%xmm0,%xmm0
    314f:	c5 fa 2c c0          	vcvttss2si %xmm0,%eax
    3153:	04 20                	add    $0x20,%al
    3155:	b1 20                	mov    $0x20,%cl
    3157:	eb 0b                	jmp    3164 <_Z15iters_to_colorsjjRKSt6vectorIjSaIjEE+0x564>
    3159:	0f 1f 80 00 00 00 00 	nopl   0x0(%rax)
    3160:	31 c0                	xor    %eax,%eax
    3162:	31 c9                	xor    %ecx,%ecx
    3164:	8d 53 fb             	lea    -0x5(%rbx),%edx
    3167:	41 88 4c 15 00       	mov    %cl,0x0(%r13,%rdx,1)
    316c:	8d 53 fc             	lea    -0x4(%rbx),%edx
    316f:	41 88 44 15 00       	mov    %al,0x0(%r13,%rdx,1)
    3174:	8d 43 fd             	lea    -0x3(%rbx),%eax
    3177:	41 88 4c 05 00       	mov    %cl,0x0(%r13,%rax,1)
    317c:	44 89 f8             	mov    %r15d,%eax
    317f:	8b 44 85 00          	mov    0x0(%rbp,%rax,4),%eax
    3183:	3b 44 24 04          	cmp    0x4(%rsp),%eax
    3187:	0f 82 43 ff ff ff    	jb     30d0 <_Z15iters_to_colorsjjRKSt6vectorIjSaIjEE+0x4d0>
    318d:	31 c0                	xor    %eax,%eax
    318f:	31 c9                	xor    %ecx,%ecx
    3191:	e9 61 ff ff ff       	jmp    30f7 <_Z15iters_to_colorsjjRKSt6vectorIjSaIjEE+0x4f7>
    3196:	66 2e 0f 1f 84 00 00 	cs nopw 0x0(%rax,%rax,1)
    319d:	00 00 00 
    31a0:	4c 8b 7c 24 38       	mov    0x38(%rsp),%r15
    31a5:	48 8b 5c 24 08       	mov    0x8(%rsp),%rbx
    31aa:	8b 44 24 28          	mov    0x28(%rsp),%eax
    31ae:	8b 4c 24 24          	mov    0x24(%rsp),%ecx
    31b2:	f6 44 24 30 01       	testb  $0x1,0x30(%rsp)
    31b7:	0f 84 d2 fe ff ff    	je     308f <_Z15iters_to_colorsjjRKSt6vectorIjSaIjEE+0x48f>
    31bd:	41 0f af df          	imul   %r15d,%ebx
    31c1:	44 01 f3             	add    %r14d,%ebx
    31c4:	8b 44 9d 00          	mov    0x0(%rbp,%rbx,4),%eax
    31c8:	3b 44 24 04          	cmp    0x4(%rsp),%eax
    31cc:	0f 82 6e fe ff ff    	jb     3040 <_Z15iters_to_colorsjjRKSt6vectorIjSaIjEE+0x440>
    31d2:	31 c0                	xor    %eax,%eax
    31d4:	31 c9                	xor    %ecx,%ecx
    31d6:	e9 8c fe ff ff       	jmp    3067 <_Z15iters_to_colorsjjRKSt6vectorIjSaIjEE+0x467>
    31db:	48 8b 44 24 40       	mov    0x40(%rsp),%rax
    31e0:	48 83 c4 48          	add    $0x48,%rsp
    31e4:	5b                   	pop    %rbx
    31e5:	41 5c                	pop    %r12
    31e7:	41 5d                	pop    %r13
    31e9:	41 5e                	pop    %r14
    31eb:	41 5f                	pop    %r15
    31ed:	5d                   	pop    %rbp
    31ee:	c3                   	ret
    31ef:	90                   	nop

00000000000031f0 <_Z10differencejjRSt6vectorIjSaIjEES2_>:
    31f0:	85 ff                	test   %edi,%edi
    31f2:	0f 84 bf 02 00 00    	je     34b7 <_Z10differencejjRSt6vectorIjSaIjEES2_+0x2c7>
    31f8:	55                   	push   %rbp
    31f9:	41 57                	push   %r15
    31fb:	41 56                	push   %r14
    31fd:	41 55                	push   %r13
    31ff:	41 54                	push   %r12
    3201:	53                   	push   %rbx
    3202:	89 74 24 e4          	mov    %esi,-0x1c(%rsp)
    3206:	48 8b 02             	mov    (%rdx),%rax
    3209:	48 8b 09             	mov    (%rcx),%rcx
    320c:	89 fa                	mov    %edi,%edx
    320e:	4c 8d 42 ff          	lea    -0x1(%rdx),%r8
    3212:	89 d6                	mov    %edx,%esi
    3214:	83 e6 f0             	and    $0xfffffff0,%esi
    3217:	48 89 74 24 e8       	mov    %rsi,-0x18(%rsp)
    321c:	89 d6                	mov    %edx,%esi
    321e:	83 e6 fc             	and    $0xfffffffc,%esi
    3221:	89 d3                	mov    %edx,%ebx
    3223:	83 e3 03             	and    $0x3,%ebx
    3226:	48 89 74 24 f8       	mov    %rsi,-0x8(%rsp)
    322b:	48 f7 de             	neg    %rsi
    322e:	48 89 74 24 f0       	mov    %rsi,-0x10(%rsp)
    3233:	45 31 f6             	xor    %r14d,%r14d
    3236:	31 ed                	xor    %ebp,%ebp
    3238:	45 31 ff             	xor    %r15d,%r15d
    323b:	eb 10                	jmp    324d <_Z10differencejjRSt6vectorIjSaIjEES2_+0x5d>
    323d:	0f 1f 00             	nopl   (%rax)
    3240:	ff c5                	inc    %ebp
    3242:	49 01 d6             	add    %rdx,%r14
    3245:	39 fd                	cmp    %edi,%ebp
    3247:	0f 84 55 02 00 00    	je     34a2 <_Z10differencejjRSt6vectorIjSaIjEES2_+0x2b2>
    324d:	83 ff 03             	cmp    $0x3,%edi
    3250:	76 22                	jbe    3274 <_Z10differencejjRSt6vectorIjSaIjEES2_+0x84>
    3252:	4c 89 c6             	mov    %r8,%rsi
    3255:	48 c1 ee 20          	shr    $0x20,%rsi
    3259:	40 0f 95 c6          	setne  %sil
    325d:	41 89 f9             	mov    %edi,%r9d
    3260:	44 0f af cd          	imul   %ebp,%r9d
    3264:	45 01 c1             	add    %r8d,%r9d
    3267:	41 0f 92 c1          	setb   %r9b
    326b:	41 08 f1             	or     %sil,%r9b
    326e:	0f 84 ec 00 00 00    	je     3360 <_Z10differencejjRSt6vectorIjSaIjEES2_+0x170>
    3274:	45 31 ed             	xor    %r13d,%r13d
    3277:	48 85 db             	test   %rbx,%rbx
    327a:	74 44                	je     32c0 <_Z10differencejjRSt6vectorIjSaIjEES2_+0xd0>
    327c:	49 89 db             	mov    %rbx,%r11
    327f:	4d 89 ec             	mov    %r13,%r12
    3282:	66 66 66 66 66 2e 0f 	data16 data16 data16 data16 cs nopw 0x0(%rax,%rax,1)
    3289:	1f 84 00 00 00 00 00 
    3290:	43 8d 34 26          	lea    (%r14,%r12,1),%esi
    3294:	44 8b 0c b0          	mov    (%rax,%rsi,4),%r9d
    3298:	8b 34 b1             	mov    (%rcx,%rsi,4),%esi
    329b:	45 89 ca             	mov    %r9d,%r10d
    329e:	41 29 f2             	sub    %esi,%r10d
    32a1:	44 29 ce             	sub    %r9d,%esi
    32a4:	41 0f 4c f2          	cmovl  %r10d,%esi
    32a8:	49 01 f7             	add    %rsi,%r15
    32ab:	49 ff c4             	inc    %r12
    32ae:	49 ff cb             	dec    %r11
    32b1:	75 dd                	jne    3290 <_Z10differencejjRSt6vectorIjSaIjEES2_+0xa0>
    32b3:	49 29 d5             	sub    %rdx,%r13
    32b6:	49 83 fd fc          	cmp    $0xfffffffffffffffc,%r13
    32ba:	76 14                	jbe    32d0 <_Z10differencejjRSt6vectorIjSaIjEES2_+0xe0>
    32bc:	eb 82                	jmp    3240 <_Z10differencejjRSt6vectorIjSaIjEES2_+0x50>
    32be:	66 90                	xchg   %ax,%ax
    32c0:	4d 89 ec             	mov    %r13,%r12
    32c3:	49 29 d5             	sub    %rdx,%r13
    32c6:	49 83 fd fc          	cmp    $0xfffffffffffffffc,%r13
    32ca:	0f 87 70 ff ff ff    	ja     3240 <_Z10differencejjRSt6vectorIjSaIjEES2_+0x50>
    32d0:	43 8d 34 26          	lea    (%r14,%r12,1),%esi
    32d4:	44 8b 0c b0          	mov    (%rax,%rsi,4),%r9d
    32d8:	44 8b 2c b1          	mov    (%rcx,%rsi,4),%r13d
    32dc:	44 89 ce             	mov    %r9d,%esi
    32df:	44 29 ee             	sub    %r13d,%esi
    32e2:	45 29 cd             	sub    %r9d,%r13d
    32e5:	44 0f 4c ee          	cmovl  %esi,%r13d
    32e9:	4d 01 fd             	add    %r15,%r13
    32ec:	43 8d 34 26          	lea    (%r14,%r12,1),%esi
    32f0:	ff c6                	inc    %esi
    32f2:	44 8b 0c b0          	mov    (%rax,%rsi,4),%r9d
    32f6:	8b 34 b1             	mov    (%rcx,%rsi,4),%esi
    32f9:	45 89 ca             	mov    %r9d,%r10d
    32fc:	41 29 f2             	sub    %esi,%r10d
    32ff:	44 29 ce             	sub    %r9d,%esi
    3302:	41 0f 4c f2          	cmovl  %r10d,%esi
    3306:	47 8d 4c 26 02       	lea    0x2(%r14,%r12,1),%r9d
    330b:	46 8b 14 88          	mov    (%rax,%r9,4),%r10d
    330f:	46 8b 0c 89          	mov    (%rcx,%r9,4),%r9d
    3313:	45 89 d3             	mov    %r10d,%r11d
    3316:	45 29 cb             	sub    %r9d,%r11d
    3319:	45 29 d1             	sub    %r10d,%r9d
    331c:	45 0f 4c cb          	cmovl  %r11d,%r9d
    3320:	49 01 f1             	add    %rsi,%r9
    3323:	4d 01 e9             	add    %r13,%r9
    3326:	43 8d 34 26          	lea    (%r14,%r12,1),%esi
    332a:	83 c6 03             	add    $0x3,%esi
    332d:	44 8b 14 b0          	mov    (%rax,%rsi,4),%r10d
    3331:	44 8b 3c b1          	mov    (%rcx,%rsi,4),%r15d
    3335:	44 89 d6             	mov    %r10d,%esi
    3338:	44 29 fe             	sub    %r15d,%esi
    333b:	45 29 d7             	sub    %r10d,%r15d
    333e:	44 0f 4c fe          	cmovl  %esi,%r15d
    3342:	4d 01 cf             	add    %r9,%r15
    3345:	49 83 c4 04          	add    $0x4,%r12
    3349:	4c 39 e2             	cmp    %r12,%rdx
    334c:	75 82                	jne    32d0 <_Z10differencejjRSt6vectorIjSaIjEES2_+0xe0>
    334e:	e9 ed fe ff ff       	jmp    3240 <_Z10differencejjRSt6vectorIjSaIjEES2_+0x50>
    3353:	66 66 66 66 2e 0f 1f 	data16 data16 data16 cs nopw 0x0(%rax,%rax,1)
    335a:	84 00 00 00 00 00 
    3360:	83 ff 10             	cmp    $0x10,%edi
    3363:	73 08                	jae    336d <_Z10differencejjRSt6vectorIjSaIjEES2_+0x17d>
    3365:	45 31 e4             	xor    %r12d,%r12d
    3368:	e9 d2 00 00 00       	jmp    343f <_Z10differencejjRSt6vectorIjSaIjEES2_+0x24f>
    336d:	c4 c1 f9 6e c7       	vmovq  %r15,%xmm0
    3372:	c5 f1 ef c9          	vpxor  %xmm1,%xmm1,%xmm1
    3376:	45 89 f7             	mov    %r14d,%r15d
    3379:	4c 8b 4c 24 e8       	mov    -0x18(%rsp),%r9
    337e:	4d 89 cc             	mov    %r9,%r12
    3381:	c5 e9 ef d2          	vpxor  %xmm2,%xmm2,%xmm2
    3385:	c5 e1 ef db          	vpxor  %xmm3,%xmm3,%xmm3
    3389:	0f 1f 80 00 00 00 00 	nopl   0x0(%rax)
    3390:	44 89 fe             	mov    %r15d,%esi
    3393:	c5 fa 6f 24 b0       	vmovdqu (%rax,%rsi,4),%xmm4
    3398:	c5 fa 6f 6c b0 10    	vmovdqu 0x10(%rax,%rsi,4),%xmm5
    339e:	c5 fa 6f 74 b0 20    	vmovdqu 0x20(%rax,%rsi,4),%xmm6
    33a4:	c5 fa 6f 7c b0 30    	vmovdqu 0x30(%rax,%rsi,4),%xmm7
    33aa:	c5 d9 fa 24 b1       	vpsubd (%rcx,%rsi,4),%xmm4,%xmm4
    33af:	c5 d1 fa 6c b1 10    	vpsubd 0x10(%rcx,%rsi,4),%xmm5,%xmm5
    33b5:	c5 c9 fa 74 b1 20    	vpsubd 0x20(%rcx,%rsi,4),%xmm6,%xmm6
    33bb:	c5 c1 fa 7c b1 30    	vpsubd 0x30(%rcx,%rsi,4),%xmm7,%xmm7
    33c1:	c4 e2 79 1e e4       	vpabsd %xmm4,%xmm4
    33c6:	c4 e2 79 1e ed       	vpabsd %xmm5,%xmm5
    33cb:	c4 e2 79 1e f6       	vpabsd %xmm6,%xmm6
    33d0:	c4 e2 79 1e ff       	vpabsd %xmm7,%xmm7
    33d5:	c4 e2 7d 35 e4       	vpmovzxdq %xmm4,%ymm4
    33da:	c5 fd d4 c4          	vpaddq %ymm4,%ymm0,%ymm0
    33de:	c4 e2 7d 35 e5       	vpmovzxdq %xmm5,%ymm4
    33e3:	c5 f5 d4 cc          	vpaddq %ymm4,%ymm1,%ymm1
    33e7:	c4 e2 7d 35 e6       	vpmovzxdq %xmm6,%ymm4
    33ec:	c5 ed d4 d4          	vpaddq %ymm4,%ymm2,%ymm2
    33f0:	c4 e2 7d 35 e7       	vpmovzxdq %xmm7,%ymm4
    33f5:	c5 e5 d4 dc          	vpaddq %ymm4,%ymm3,%ymm3
    33f9:	41 83 c7 10          	add    $0x10,%r15d
    33fd:	49 83 c4 f0          	add    $0xfffffffffffffff0,%r12
    3401:	75 8d                	jne    3390 <_Z10differencejjRSt6vectorIjSaIjEES2_+0x1a0>
    3403:	c5 f5 d4 c0          	vpaddq %ymm0,%ymm1,%ymm0
    3407:	c5 ed d4 c0          	vpaddq %ymm0,%ymm2,%ymm0
    340b:	c5 e5 d4 c0          	vpaddq %ymm0,%ymm3,%ymm0
    340f:	c4 e3 7d 39 c1 01    	vextracti128 $0x1,%ymm0,%xmm1
    3415:	c5 f9 d4 c1          	vpaddq %xmm1,%xmm0,%xmm0
    3419:	c5 f9 70 c8 ee       	vpshufd $0xee,%xmm0,%xmm1
    341e:	c5 f9 d4 c1          	vpaddq %xmm1,%xmm0,%xmm0
    3422:	c4 c1 f9 7e c7       	vmovq  %xmm0,%r15
    3427:	41 39 d1             	cmp    %edx,%r9d
    342a:	0f 84 10 fe ff ff    	je     3240 <_Z10differencejjRSt6vectorIjSaIjEES2_+0x50>
    3430:	4d 89 cd             	mov    %r9,%r13
    3433:	4d 89 cc             	mov    %r9,%r12
    3436:	f6 c2 0c             	test   $0xc,%dl
    3439:	0f 84 38 fe ff ff    	je     3277 <_Z10differencejjRSt6vectorIjSaIjEES2_+0x87>
    343f:	c4 c1 f9 6e c7       	vmovq  %r15,%xmm0
    3444:	48 8b 74 24 f0       	mov    -0x10(%rsp),%rsi
    3449:	4e 8d 1c 26          	lea    (%rsi,%r12,1),%r11
    344d:	45 01 f4             	add    %r14d,%r12d
    3450:	44 89 e6             	mov    %r12d,%esi
    3453:	c5 fa 6f 0c b0       	vmovdqu (%rax,%rsi,4),%xmm1
    3458:	c5 f1 fa 0c b1       	vpsubd (%rcx,%rsi,4),%xmm1,%xmm1
    345d:	c4 e2 79 1e c9       	vpabsd %xmm1,%xmm1
    3462:	c4 e2 7d 35 c9       	vpmovzxdq %xmm1,%ymm1
    3467:	c5 fd d4 c1          	vpaddq %ymm1,%ymm0,%ymm0
    346b:	41 83 c4 04          	add    $0x4,%r12d
    346f:	49 83 c3 04          	add    $0x4,%r11
    3473:	75 db                	jne    3450 <_Z10differencejjRSt6vectorIjSaIjEES2_+0x260>
    3475:	c4 e3 7d 39 c1 01    	vextracti128 $0x1,%ymm0,%xmm1
    347b:	c5 f9 d4 c1          	vpaddq %xmm1,%xmm0,%xmm0
    347f:	c5 f9 70 c8 ee       	vpshufd $0xee,%xmm0,%xmm1
    3484:	c5 f9 d4 c1          	vpaddq %xmm1,%xmm0,%xmm0
    3488:	c4 c1 f9 7e c7       	vmovq  %xmm0,%r15
    348d:	48 8b 74 24 f8       	mov    -0x8(%rsp),%rsi
    3492:	49 89 f5             	mov    %rsi,%r13
    3495:	39 d6                	cmp    %edx,%esi
    3497:	0f 84 a3 fd ff ff    	je     3240 <_Z10differencejjRSt6vectorIjSaIjEES2_+0x50>
    349d:	e9 d5 fd ff ff       	jmp    3277 <_Z10differencejjRSt6vectorIjSaIjEES2_+0x87>
    34a2:	c4 c1 bb 2a c7       	vcvtsi2sd %r15,%xmm8,%xmm0
    34a7:	8b 74 24 e4          	mov    -0x1c(%rsp),%esi
    34ab:	5b                   	pop    %rbx
    34ac:	41 5c                	pop    %r12
    34ae:	41 5d                	pop    %r13
    34b0:	41 5e                	pop    %r14
    34b2:	41 5f                	pop    %r15
    34b4:	5d                   	pop    %rbp
    34b5:	eb 04                	jmp    34bb <_Z10differencejjRSt6vectorIjSaIjEES2_+0x2cb>
    34b7:	c5 f9 57 c0          	vxorpd %xmm0,%xmm0,%xmm0
    34bb:	0f af ff             	imul   %edi,%edi
    34be:	0f af fe             	imul   %esi,%edi
    34c1:	62 f1 3f 08 7b cf    	vcvtusi2sd %edi,%xmm8,%xmm1
    34c7:	c5 fb 5e c1          	vdivsd %xmm1,%xmm0,%xmm0
    34cb:	c5 f8 77             	vzeroupper
    34ce:	c3                   	ret
    34cf:	90                   	nop

00000000000034d0 <_Z10dump_imagePKcjjRKSt6vectorIjSaIjEE>:
    34d0:	41 57                	push   %r15
    34d2:	41 56                	push   %r14
    34d4:	53                   	push   %rbx
    34d5:	48 83 ec 20          	sub    $0x20,%rsp
    34d9:	89 f3                	mov    %esi,%ebx
    34db:	49 89 fe             	mov    %rdi,%r14
    34de:	4c 8d 7c 24 08       	lea    0x8(%rsp),%r15
    34e3:	4c 89 ff             	mov    %r15,%rdi
    34e6:	e8 15 f7 ff ff       	call   2c00 <_Z15iters_to_colorsjjRKSt6vectorIjSaIjEE>
    34eb:	4c 89 f7             	mov    %r14,%rdi
    34ee:	89 de                	mov    %ebx,%esi
    34f0:	4c 89 fa             	mov    %r15,%rdx
    34f3:	e8 38 f6 ff ff       	call   2b30 <_Z8writeBMPPKcjRKSt6vectorIhSaIhEE>
    34f8:	48 8b 7c 24 08       	mov    0x8(%rsp),%rdi
    34fd:	48 85 ff             	test   %rdi,%rdi
    3500:	74 16                	je     3518 <_Z10dump_imagePKcjjRKSt6vectorIjSaIjEE+0x48>
    3502:	48 8b 74 24 18       	mov    0x18(%rsp),%rsi
    3507:	48 29 fe             	sub    %rdi,%rsi
    350a:	48 83 c4 20          	add    $0x20,%rsp
    350e:	5b                   	pop    %rbx
    350f:	41 5e                	pop    %r14
    3511:	41 5f                	pop    %r15
    3513:	e9 f8 eb ff ff       	jmp    2110 <_ZdlPvm@plt>
    3518:	48 83 c4 20          	add    $0x20,%rsp
    351c:	5b                   	pop    %rbx
    351d:	41 5e                	pop    %r14
    351f:	41 5f                	pop    %r15
    3521:	c3                   	ret
    3522:	48 89 c3             	mov    %rax,%rbx
    3525:	48 8b 7c 24 08       	mov    0x8(%rsp),%rdi
    352a:	48 85 ff             	test   %rdi,%rdi
    352d:	74 0d                	je     353c <_Z10dump_imagePKcjjRKSt6vectorIjSaIjEE+0x6c>
    352f:	48 8b 74 24 18       	mov    0x18(%rsp),%rsi
    3534:	48 29 fe             	sub    %rdi,%rsi
    3537:	e8 d4 eb ff ff       	call   2110 <_ZdlPvm@plt>
    353c:	48 89 df             	mov    %rbx,%rdi
    353f:	e8 ac ec ff ff       	call   21f0 <_Unwind_Resume@plt>
    3544:	66 66 66 2e 0f 1f 84 	data16 data16 cs nopw 0x0(%rax,%rax,1)
    354b:	00 00 00 00 00 

0000000000003550 <main>:
    3550:	55                   	push   %rbp
    3551:	41 57                	push   %r15
    3553:	41 56                	push   %r14
    3555:	41 55                	push   %r13
    3557:	41 54                	push   %r12
    3559:	53                   	push   %rbx
    355a:	48 81 ec a8 02 00 00 	sub    $0x2a8,%rsp
    3561:	c7 44 24 5c 00 04 00 	movl   $0x400,0x5c(%rsp)
    3568:	00 
    3569:	c7 44 24 6c d0 07 00 	movl   $0x7d0,0x6c(%rsp)
    3570:	00 
    3571:	c7 44 24 68 06 00 00 	movl   $0x6,0x68(%rsp)
    3578:	00 
    3579:	48 8d 54 24 5c       	lea    0x5c(%rsp),%rdx
    357e:	48 8d 4c 24 6c       	lea    0x6c(%rsp),%rcx
    3583:	4c 8d 44 24 68       	lea    0x68(%rsp),%r8
    3588:	e8 83 f1 ff ff       	call   2710 <_Z20ParseArgsAndMakeSpeciPPcPjS1_P14MandelbrotImpl>
    358d:	89 c1                	mov    %eax,%ecx
    358f:	b8 ff ff ff ff       	mov    $0xffffffff,%eax
    3594:	85 c9                	test   %ecx,%ecx
    3596:	0f 85 30 47 00 00    	jne    7ccc <main+0x477c>
    359c:	44 8b 64 24 5c       	mov    0x5c(%rsp),%r12d
    35a1:	45 89 e5             	mov    %r12d,%r13d
    35a4:	45 0f af ed          	imul   %r13d,%r13d
    35a8:	45 85 ed             	test   %r13d,%r13d
    35ab:	4c 89 ac 24 18 01 00 	mov    %r13,0x118(%rsp)
    35b2:	00 
    35b3:	0f 84 80 00 00 00    	je     3639 <main+0xe9>
    35b9:	4e 8d 34 ad 00 00 00 	lea    0x0(,%r13,4),%r14
    35c0:	00 
    35c1:	4c 89 f7             	mov    %r14,%rdi
    35c4:	e8 37 eb ff ff       	call   2100 <_Znwm@plt>
    35c9:	49 89 c7             	mov    %rax,%r15
    35cc:	c7 00 00 00 00 00    	movl   $0x0,(%rax)
    35d2:	49 83 fd 01          	cmp    $0x1,%r13
    35d6:	74 0f                	je     35e7 <main+0x97>
    35d8:	49 8d 7f 04          	lea    0x4(%r15),%rdi
    35dc:	49 8d 56 fc          	lea    -0x4(%r14),%rdx
    35e0:	31 f6                	xor    %esi,%esi
    35e2:	e8 b9 ea ff ff       	call   20a0 <memset@plt>
    35e7:	4b 8d 04 af          	lea    (%r15,%r13,4),%rax
    35eb:	48 89 84 24 10 01 00 	mov    %rax,0x110(%rsp)
    35f2:	00 
    35f3:	4c 89 f7             	mov    %r14,%rdi
    35f6:	e8 05 eb ff ff       	call   2100 <_Znwm@plt>
    35fb:	48 89 c3             	mov    %rax,%rbx
    35fe:	4a 8d 04 a8          	lea    (%rax,%r13,4),%rax
    3602:	48 89 84 24 08 01 00 	mov    %rax,0x108(%rsp)
    3609:	00 
    360a:	c7 03 00 00 00 00    	movl   $0x0,(%rbx)
    3610:	49 83 fd 01          	cmp    $0x1,%r13
    3614:	74 15                	je     362b <main+0xdb>
    3616:	48 89 df             	mov    %rbx,%rdi
    3619:	48 83 c7 04          	add    $0x4,%rdi
    361d:	49 83 c6 fc          	add    $0xfffffffffffffffc,%r14
    3621:	31 f6                	xor    %esi,%esi
    3623:	4c 89 f2             	mov    %r14,%rdx
    3626:	e8 75 ea ff ff       	call   20a0 <memset@plt>
    362b:	8b 6c 24 6c          	mov    0x6c(%rsp),%ebp
    362f:	4d 85 e4             	test   %r12,%r12
    3632:	75 2f                	jne    3663 <main+0x113>
    3634:	e9 1c 02 00 00       	jmp    3855 <main+0x305>
    3639:	45 31 ff             	xor    %r15d,%r15d
    363c:	48 c7 84 24 10 01 00 	movq   $0x0,0x110(%rsp)
    3643:	00 00 00 00 00 
    3648:	48 c7 84 24 08 01 00 	movq   $0x0,0x108(%rsp)
    364f:	00 00 00 00 00 
    3654:	31 db                	xor    %ebx,%ebx
    3656:	8b 6c 24 6c          	mov    0x6c(%rsp),%ebp
    365a:	4d 85 e4             	test   %r12,%r12
    365d:	0f 84 f2 01 00 00    	je     3855 <main+0x305>
    3663:	85 ed                	test   %ebp,%ebp
    3665:	0f 84 d5 01 00 00    	je     3840 <main+0x2f0>
    366b:	62 d1 7e 08 7b c4    	vcvtusi2ss %r12d,%xmm0,%xmm0
    3671:	c5 fa 10 0d 8b 59 00 	vmovss 0x598b(%rip),%xmm1        # 9004 <_IO_stdin_used+0x4>
    3678:	00 
    3679:	c5 f2 5e c0          	vdivss %xmm0,%xmm1,%xmm0
    367d:	44 89 e0             	mov    %r12d,%eax
    3680:	83 e0 fe             	and    $0xfffffffe,%eax
    3683:	31 c9                	xor    %ecx,%ecx
    3685:	c5 fa 10 0d 7b 59 00 	vmovss 0x597b(%rip),%xmm1        # 9008 <_IO_stdin_used+0x8>
    368c:	00 
    368d:	c5 fa 10 15 77 59 00 	vmovss 0x5977(%rip),%xmm2        # 900c <_IO_stdin_used+0xc>
    3694:	00 
    3695:	c5 fa 10 1d 73 59 00 	vmovss 0x5973(%rip),%xmm3        # 9010 <_IO_stdin_used+0x10>
    369c:	00 
    369d:	c5 fa 10 25 6f 59 00 	vmovss 0x596f(%rip),%xmm4        # 9014 <_IO_stdin_used+0x14>
    36a4:	00 
    36a5:	eb 18                	jmp    36bf <main+0x16f>
    36a7:	66 0f 1f 84 00 00 00 	nopw   0x0(%rax,%rax,1)
    36ae:	00 00 
    36b0:	89 3c b2             	mov    %edi,(%rdx,%rsi,4)
    36b3:	48 ff c1             	inc    %rcx
    36b6:	4c 39 e1             	cmp    %r12,%rcx
    36b9:	0f 84 96 01 00 00    	je     3855 <main+0x305>
    36bf:	c4 e1 9a 2a e9       	vcvtsi2ss %rcx,%xmm12,%xmm5
    36c4:	48 89 ca             	mov    %rcx,%rdx
    36c7:	49 0f af d4          	imul   %r12,%rdx
    36cb:	c5 d2 59 e9          	vmulss %xmm1,%xmm5,%xmm5
    36cf:	c4 e2 79 a9 ea       	vfmadd213ss %xmm2,%xmm0,%xmm5
    36d4:	48 8d 14 93          	lea    (%rbx,%rdx,4),%rdx
    36d8:	31 f6                	xor    %esi,%esi
    36da:	49 83 fc 01          	cmp    $0x1,%r12
    36de:	0f 85 7d 00 00 00    	jne    3761 <main+0x211>
    36e4:	41 f6 c4 01          	test   $0x1,%r12b
    36e8:	74 c9                	je     36b3 <main+0x163>
    36ea:	c4 e1 9a 2a f6       	vcvtsi2ss %rsi,%xmm12,%xmm6
    36ef:	c5 ca 59 f1          	vmulss %xmm1,%xmm6,%xmm6
    36f3:	c4 e2 79 a9 f3       	vfmadd213ss %xmm3,%xmm0,%xmm6
    36f8:	31 ff                	xor    %edi,%edi
    36fa:	c4 41 30 57 c9       	vxorps %xmm9,%xmm9,%xmm9
    36ff:	c4 41 28 57 d2       	vxorps %xmm10,%xmm10,%xmm10
    3704:	c5 c0 57 ff          	vxorps %xmm7,%xmm7,%xmm7
    3708:	c4 41 38 57 c0       	vxorps %xmm8,%xmm8,%xmm8
    370d:	0f 1f 00             	nopl   (%rax)
    3710:	c4 41 2a 5c c9       	vsubss %xmm9,%xmm10,%xmm9
    3715:	c5 ba 5c ff          	vsubss %xmm7,%xmm8,%xmm7
    3719:	c5 4a 58 d7          	vaddss %xmm7,%xmm6,%xmm10
    371d:	c5 32 58 dd          	vaddss %xmm5,%xmm9,%xmm11
    3721:	c4 41 2a 59 c2       	vmulss %xmm10,%xmm10,%xmm8
    3726:	c4 c1 22 59 fb       	vmulss %xmm11,%xmm11,%xmm7
    372b:	ff c7                	inc    %edi
    372d:	c5 3a 58 cf          	vaddss %xmm7,%xmm8,%xmm9
    3731:	c5 78 2e cc          	vucomiss %xmm4,%xmm9
    3735:	0f 87 75 ff ff ff    	ja     36b0 <main+0x160>
    373b:	c4 41 2a 58 d3       	vaddss %xmm11,%xmm10,%xmm10
    3740:	c4 41 2a 59 d2       	vmulss %xmm10,%xmm10,%xmm10
    3745:	39 ef                	cmp    %ebp,%edi
    3747:	72 c7                	jb     3710 <main+0x1c0>
    3749:	e9 62 ff ff ff       	jmp    36b0 <main+0x160>
    374e:	66 90                	xchg   %ax,%ax
    3750:	44 89 04 ba          	mov    %r8d,(%rdx,%rdi,4)
    3754:	48 83 c6 02          	add    $0x2,%rsi
    3758:	48 39 c6             	cmp    %rax,%rsi
    375b:	0f 84 83 ff ff ff    	je     36e4 <main+0x194>
    3761:	c4 e1 9a 2a f6       	vcvtsi2ss %rsi,%xmm12,%xmm6
    3766:	c5 ca 59 f1          	vmulss %xmm1,%xmm6,%xmm6
    376a:	c4 e2 79 a9 f3       	vfmadd213ss %xmm3,%xmm0,%xmm6
    376f:	31 ff                	xor    %edi,%edi
    3771:	c4 41 30 57 c9       	vxorps %xmm9,%xmm9,%xmm9
    3776:	c4 41 28 57 d2       	vxorps %xmm10,%xmm10,%xmm10
    377b:	c5 c0 57 ff          	vxorps %xmm7,%xmm7,%xmm7
    377f:	c4 41 38 57 c0       	vxorps %xmm8,%xmm8,%xmm8
    3784:	66 66 66 2e 0f 1f 84 	data16 data16 cs nopw 0x0(%rax,%rax,1)
    378b:	00 00 00 00 00 
    3790:	c4 41 2a 5c c9       	vsubss %xmm9,%xmm10,%xmm9
    3795:	c5 ba 5c ff          	vsubss %xmm7,%xmm8,%xmm7
    3799:	c5 4a 58 d7          	vaddss %xmm7,%xmm6,%xmm10
    379d:	c5 32 58 dd          	vaddss %xmm5,%xmm9,%xmm11
    37a1:	c4 41 2a 59 c2       	vmulss %xmm10,%xmm10,%xmm8
    37a6:	c4 c1 22 59 fb       	vmulss %xmm11,%xmm11,%xmm7
    37ab:	ff c7                	inc    %edi
    37ad:	c5 3a 58 cf          	vaddss %xmm7,%xmm8,%xmm9
    37b1:	c5 78 2e cc          	vucomiss %xmm4,%xmm9
    37b5:	77 0e                	ja     37c5 <main+0x275>
    37b7:	c4 41 2a 58 d3       	vaddss %xmm11,%xmm10,%xmm10
    37bc:	c4 41 2a 59 d2       	vmulss %xmm10,%xmm10,%xmm10
    37c1:	39 ef                	cmp    %ebp,%edi
    37c3:	72 cb                	jb     3790 <main+0x240>
    37c5:	89 3c b2             	mov    %edi,(%rdx,%rsi,4)
    37c8:	48 89 f7             	mov    %rsi,%rdi
    37cb:	48 83 cf 01          	or     $0x1,%rdi
    37cf:	c4 e1 9a 2a f7       	vcvtsi2ss %rdi,%xmm12,%xmm6
    37d4:	c5 ca 59 f1          	vmulss %xmm1,%xmm6,%xmm6
    37d8:	c4 e2 79 a9 f3       	vfmadd213ss %xmm3,%xmm0,%xmm6
    37dd:	45 31 c0             	xor    %r8d,%r8d
    37e0:	c4 41 30 57 c9       	vxorps %xmm9,%xmm9,%xmm9
    37e5:	c4 41 28 57 d2       	vxorps %xmm10,%xmm10,%xmm10
    37ea:	c5 c0 57 ff          	vxorps %xmm7,%xmm7,%xmm7
    37ee:	c4 41 38 57 c0       	vxorps %xmm8,%xmm8,%xmm8
    37f3:	66 66 66 66 2e 0f 1f 	data16 data16 data16 cs nopw 0x0(%rax,%rax,1)
    37fa:	84 00 00 00 00 00 
    3800:	c4 41 2a 5c c9       	vsubss %xmm9,%xmm10,%xmm9
    3805:	c5 ba 5c ff          	vsubss %xmm7,%xmm8,%xmm7
    3809:	c5 4a 58 d7          	vaddss %xmm7,%xmm6,%xmm10
    380d:	c5 32 58 dd          	vaddss %xmm5,%xmm9,%xmm11
    3811:	c4 41 2a 59 c2       	vmulss %xmm10,%xmm10,%xmm8
    3816:	c4 c1 22 59 fb       	vmulss %xmm11,%xmm11,%xmm7
    381b:	41 ff c0             	inc    %r8d
    381e:	c5 3a 58 cf          	vaddss %xmm7,%xmm8,%xmm9
    3822:	c5 78 2e cc          	vucomiss %xmm4,%xmm9
    3826:	0f 87 24 ff ff ff    	ja     3750 <main+0x200>
    382c:	c4 41 2a 58 d3       	vaddss %xmm11,%xmm10,%xmm10
    3831:	c4 41 2a 59 d2       	vmulss %xmm10,%xmm10,%xmm10
    3836:	41 39 e8             	cmp    %ebp,%r8d
    3839:	72 c5                	jb     3800 <main+0x2b0>
    383b:	e9 10 ff ff ff       	jmp    3750 <main+0x200>
    3840:	4c 89 e2             	mov    %r12,%rdx
    3843:	49 0f af d4          	imul   %r12,%rdx
    3847:	48 c1 e2 02          	shl    $0x2,%rdx
    384b:	48 89 df             	mov    %rbx,%rdi
    384e:	31 f6                	xor    %esi,%esi
    3850:	e8 4b e8 ff ff       	call   20a0 <memset@plt>
    3855:	8b 44 24 68          	mov    0x68(%rsp),%eax
    3859:	83 f8 06             	cmp    $0x6,%eax
    385c:	4c 89 7c 24 08       	mov    %r15,0x8(%rsp)
    3861:	48 89 1c 24          	mov    %rbx,(%rsp)
    3865:	89 84 24 bc 00 00 00 	mov    %eax,0xbc(%rsp)
    386c:	74 08                	je     3876 <main+0x326>
    386e:	85 c0                	test   %eax,%eax
    3870:	0f 85 83 0b 00 00    	jne    43f9 <main+0xea9>
    3876:	4c 89 e2             	mov    %r12,%rdx
    3879:	49 0f af d4          	imul   %r12,%rdx
    387d:	48 c1 e2 02          	shl    $0x2,%rdx
    3881:	4c 89 ff             	mov    %r15,%rdi
    3884:	31 f6                	xor    %esi,%esi
    3886:	48 89 54 24 18       	mov    %rdx,0x18(%rsp)
    388b:	e8 10 e8 ff ff       	call   20a0 <memset@plt>
    3890:	48 8b 05 21 77 00 00 	mov    0x7721(%rip),%rax        # afb8 <_ZSt4cout@GLIBCXX_3.4>
    3897:	48 8b 08             	mov    (%rax),%rcx
    389a:	48 8b 49 e8          	mov    -0x18(%rcx),%rcx
    389e:	4c 8b b4 08 f0 00 00 	mov    0xf0(%rax,%rcx,1),%r14
    38a5:	00 
    38a6:	4d 85 f6             	test   %r14,%r14
    38a9:	0f 84 2f 44 00 00    	je     7cde <main+0x478e>
    38af:	41 80 7e 38 00       	cmpb   $0x0,0x38(%r14)
    38b4:	74 07                	je     38bd <main+0x36d>
    38b6:	41 0f b6 46 43       	movzbl 0x43(%r14),%eax
    38bb:	eb 16                	jmp    38d3 <main+0x383>
    38bd:	4c 89 f7             	mov    %r14,%rdi
    38c0:	e8 7b e8 ff ff       	call   2140 <_ZNKSt5ctypeIcE13_M_widen_initEv@plt>
    38c5:	49 8b 06             	mov    (%r14),%rax
    38c8:	4c 89 f7             	mov    %r14,%rdi
    38cb:	be 0a 00 00 00       	mov    $0xa,%esi
    38d0:	ff 50 30             	call   *0x30(%rax)
    38d3:	0f be f0             	movsbl %al,%esi
    38d6:	48 8b 3d db 76 00 00 	mov    0x76db(%rip),%rdi        # afb8 <_ZSt4cout@GLIBCXX_3.4>
    38dd:	e8 4e e7 ff ff       	call   2030 <_ZNSo3putEc@plt>
    38e2:	48 89 c7             	mov    %rax,%rdi
    38e5:	e8 d6 e7 ff ff       	call   20c0 <_ZNSo5flushEv@plt>
    38ea:	49 89 c6             	mov    %rax,%r14
    38ed:	48 8d 35 65 59 00 00 	lea    0x5965(%rip),%rsi        # 9259 <_IO_stdin_used+0x259>
    38f4:	ba 08 00 00 00       	mov    $0x8,%edx
    38f9:	48 89 c7             	mov    %rax,%rdi
    38fc:	e8 2f e8 ff ff       	call   2130 <_ZSt16__ostream_insertIcSt11char_traitsIcEERSt13basic_ostreamIT_T0_ES6_PKS3_l@plt>
    3901:	48 8d 35 5a 59 00 00 	lea    0x595a(%rip),%rsi        # 9262 <_IO_stdin_used+0x262>
    3908:	ba 15 00 00 00       	mov    $0x15,%edx
    390d:	4c 89 f7             	mov    %r14,%rdi
    3910:	e8 1b e8 ff ff       	call   2130 <_ZSt16__ostream_insertIcSt11char_traitsIcEERSt13basic_ostreamIT_T0_ES6_PKS3_l@plt>
    3915:	48 8d 35 5c 59 00 00 	lea    0x595c(%rip),%rsi        # 9278 <_IO_stdin_used+0x278>
    391c:	ba 05 00 00 00       	mov    $0x5,%edx
    3921:	4c 89 f7             	mov    %r14,%rdi
    3924:	e8 07 e8 ff ff       	call   2130 <_ZSt16__ostream_insertIcSt11char_traitsIcEERSt13basic_ostreamIT_T0_ES6_PKS3_l@plt>
    3929:	bf 50 00 00 00       	mov    $0x50,%edi
    392e:	e8 cd e7 ff ff       	call   2100 <_Znwm@plt>
    3933:	48 89 44 24 48       	mov    %rax,0x48(%rsp)
    3938:	62 d1 1e 08 7b c4    	vcvtusi2ss %r12d,%xmm12,%xmm0
    393e:	c5 f0 57 c9          	vxorps %xmm1,%xmm1,%xmm1
    3942:	c5 fc 11 48 30       	vmovups %ymm1,0x30(%rax)
    3947:	c5 fc 11 48 20       	vmovups %ymm1,0x20(%rax)
    394c:	48 89 44 24 70       	mov    %rax,0x70(%rsp)
    3951:	c5 fc 11 08          	vmovups %ymm1,(%rax)
    3955:	c5 fa 10 0d a7 56 00 	vmovss 0x56a7(%rip),%xmm1        # 9004 <_IO_stdin_used+0x4>
    395c:	00 
    395d:	49 8d 5c 24 ff       	lea    -0x1(%r12),%rbx
    3962:	c5 f2 5e c0          	vdivss %xmm0,%xmm1,%xmm0
    3966:	c5 fa 11 84 24 c0 00 	vmovss %xmm0,0xc0(%rsp)
    396d:	00 00 
    396f:	45 89 e5             	mov    %r12d,%r13d
    3972:	41 83 e5 fe          	and    $0xfffffffe,%r13d
    3976:	45 31 f6             	xor    %r14d,%r14d
    3979:	eb 3c                	jmp    39b7 <main+0x467>
    397b:	0f 1f 44 00 00       	nopl   0x0(%rax,%rax,1)
    3980:	4c 89 ff             	mov    %r15,%rdi
    3983:	31 f6                	xor    %esi,%esi
    3985:	48 8b 54 24 18       	mov    0x18(%rsp),%rdx
    398a:	e8 11 e7 ff ff       	call   20a0 <memset@plt>
    398f:	e8 ac e6 ff ff       	call   2040 <_ZNSt6chrono3_V212system_clock3nowEv@plt>
    3994:	48 2b 44 24 10       	sub    0x10(%rsp),%rax
    3999:	62 f1 9f 08 7b c0    	vcvtusi2sd %rax,%xmm12,%xmm0
    399f:	48 8b 44 24 70       	mov    0x70(%rsp),%rax
    39a4:	c4 a1 7b 11 04 f0    	vmovsd %xmm0,(%rax,%r14,8)
    39aa:	49 ff c6             	inc    %r14
    39ad:	49 83 fe 0a          	cmp    $0xa,%r14
    39b1:	0f 84 b3 01 00 00    	je     3b6a <main+0x61a>
    39b7:	c5 f8 77             	vzeroupper
    39ba:	e8 81 e6 ff ff       	call   2040 <_ZNSt6chrono3_V212system_clock3nowEv@plt>
    39bf:	48 89 44 24 10       	mov    %rax,0x10(%rsp)
    39c4:	4d 85 e4             	test   %r12,%r12
    39c7:	c5 fa 10 bc 24 c0 00 	vmovss 0xc0(%rsp),%xmm7
    39ce:	00 00 
    39d0:	c5 7a 10 05 30 56 00 	vmovss 0x5630(%rip),%xmm8        # 9008 <_IO_stdin_used+0x8>
    39d7:	00 
    39d8:	c5 7a 10 0d 2c 56 00 	vmovss 0x562c(%rip),%xmm9        # 900c <_IO_stdin_used+0xc>
    39df:	00 
    39e0:	c5 7a 10 15 28 56 00 	vmovss 0x5628(%rip),%xmm10        # 9010 <_IO_stdin_used+0x10>
    39e7:	00 
    39e8:	c5 7a 10 1d 24 56 00 	vmovss 0x5624(%rip),%xmm11        # 9014 <_IO_stdin_used+0x14>
    39ef:	00 
    39f0:	74 9d                	je     398f <main+0x43f>
    39f2:	85 ed                	test   %ebp,%ebp
    39f4:	74 8a                	je     3980 <main+0x430>
    39f6:	31 c0                	xor    %eax,%eax
    39f8:	eb 11                	jmp    3a0b <main+0x4bb>
    39fa:	66 0f 1f 44 00 00    	nopw   0x0(%rax,%rax,1)
    3a00:	89 34 91             	mov    %esi,(%rcx,%rdx,4)
    3a03:	48 ff c0             	inc    %rax
    3a06:	4c 39 e0             	cmp    %r12,%rax
    3a09:	74 84                	je     398f <main+0x43f>
    3a0b:	c4 e1 9a 2a c0       	vcvtsi2ss %rax,%xmm12,%xmm0
    3a10:	48 89 c1             	mov    %rax,%rcx
    3a13:	49 0f af cc          	imul   %r12,%rcx
    3a17:	c5 ba 59 c0          	vmulss %xmm0,%xmm8,%xmm0
    3a1b:	c4 c2 41 a9 c1       	vfmadd213ss %xmm9,%xmm7,%xmm0
    3a20:	49 8d 0c 8f          	lea    (%r15,%rcx,4),%rcx
    3a24:	31 d2                	xor    %edx,%edx
    3a26:	48 85 db             	test   %rbx,%rbx
    3a29:	0f 85 81 00 00 00    	jne    3ab0 <main+0x560>
    3a2f:	41 f6 c4 01          	test   $0x1,%r12b
    3a33:	74 ce                	je     3a03 <main+0x4b3>
    3a35:	c4 e1 9a 2a ca       	vcvtsi2ss %rdx,%xmm12,%xmm1
    3a3a:	c5 ba 59 c9          	vmulss %xmm1,%xmm8,%xmm1
    3a3e:	c4 c2 41 a9 ca       	vfmadd213ss %xmm10,%xmm7,%xmm1
    3a43:	31 f6                	xor    %esi,%esi
    3a45:	c5 d8 57 e4          	vxorps %xmm4,%xmm4,%xmm4
    3a49:	c5 d0 57 ed          	vxorps %xmm5,%xmm5,%xmm5
    3a4d:	c5 e8 57 d2          	vxorps %xmm2,%xmm2,%xmm2
    3a51:	c5 e0 57 db          	vxorps %xmm3,%xmm3,%xmm3
    3a55:	66 66 2e 0f 1f 84 00 	data16 cs nopw 0x0(%rax,%rax,1)
    3a5c:	00 00 00 00 
    3a60:	c5 d2 5c e4          	vsubss %xmm4,%xmm5,%xmm4
    3a64:	c5 e2 5c d2          	vsubss %xmm2,%xmm3,%xmm2
    3a68:	c5 f2 58 ea          	vaddss %xmm2,%xmm1,%xmm5
    3a6c:	c5 fa 58 f4          	vaddss %xmm4,%xmm0,%xmm6
    3a70:	c5 d2 59 dd          	vmulss %xmm5,%xmm5,%xmm3
    3a74:	c5 ca 59 d6          	vmulss %xmm6,%xmm6,%xmm2
    3a78:	ff c6                	inc    %esi
    3a7a:	c5 e2 58 e2          	vaddss %xmm2,%xmm3,%xmm4
    3a7e:	c4 c1 78 2e e3       	vucomiss %xmm11,%xmm4
    3a83:	0f 87 77 ff ff ff    	ja     3a00 <main+0x4b0>
    3a89:	c5 d2 58 ee          	vaddss %xmm6,%xmm5,%xmm5
    3a8d:	c5 d2 59 ed          	vmulss %xmm5,%xmm5,%xmm5
    3a91:	39 ee                	cmp    %ebp,%esi
    3a93:	72 cb                	jb     3a60 <main+0x510>
    3a95:	e9 66 ff ff ff       	jmp    3a00 <main+0x4b0>
    3a9a:	66 0f 1f 44 00 00    	nopw   0x0(%rax,%rax,1)
    3aa0:	89 3c b1             	mov    %edi,(%rcx,%rsi,4)
    3aa3:	48 83 c2 02          	add    $0x2,%rdx
    3aa7:	4c 39 ea             	cmp    %r13,%rdx
    3aaa:	0f 84 7f ff ff ff    	je     3a2f <main+0x4df>
    3ab0:	c4 e1 9a 2a ca       	vcvtsi2ss %rdx,%xmm12,%xmm1
    3ab5:	c5 ba 59 c9          	vmulss %xmm1,%xmm8,%xmm1
    3ab9:	c4 c2 41 a9 ca       	vfmadd213ss %xmm10,%xmm7,%xmm1
    3abe:	31 f6                	xor    %esi,%esi
    3ac0:	c5 d8 57 e4          	vxorps %xmm4,%xmm4,%xmm4
    3ac4:	c5 d0 57 ed          	vxorps %xmm5,%xmm5,%xmm5
    3ac8:	c5 e8 57 d2          	vxorps %xmm2,%xmm2,%xmm2
    3acc:	c5 e0 57 db          	vxorps %xmm3,%xmm3,%xmm3
    3ad0:	c5 d2 5c e4          	vsubss %xmm4,%xmm5,%xmm4
    3ad4:	c5 e2 5c d2          	vsubss %xmm2,%xmm3,%xmm2
    3ad8:	c5 f2 58 ea          	vaddss %xmm2,%xmm1,%xmm5
    3adc:	c5 fa 58 f4          	vaddss %xmm4,%xmm0,%xmm6
    3ae0:	c5 d2 59 dd          	vmulss %xmm5,%xmm5,%xmm3
    3ae4:	c5 ca 59 d6          	vmulss %xmm6,%xmm6,%xmm2
    3ae8:	ff c6                	inc    %esi
    3aea:	c5 e2 58 e2          	vaddss %xmm2,%xmm3,%xmm4
    3aee:	c4 c1 78 2e e3       	vucomiss %xmm11,%xmm4
    3af3:	77 0c                	ja     3b01 <main+0x5b1>
    3af5:	c5 d2 58 ee          	vaddss %xmm6,%xmm5,%xmm5
    3af9:	c5 d2 59 ed          	vmulss %xmm5,%xmm5,%xmm5
    3afd:	39 ee                	cmp    %ebp,%esi
    3aff:	72 cf                	jb     3ad0 <main+0x580>
    3b01:	89 34 91             	mov    %esi,(%rcx,%rdx,4)
    3b04:	48 89 d6             	mov    %rdx,%rsi
    3b07:	48 83 ce 01          	or     $0x1,%rsi
    3b0b:	c4 e1 9a 2a ce       	vcvtsi2ss %rsi,%xmm12,%xmm1
    3b10:	c5 ba 59 c9          	vmulss %xmm1,%xmm8,%xmm1
    3b14:	c4 c2 41 a9 ca       	vfmadd213ss %xmm10,%xmm7,%xmm1
    3b19:	31 ff                	xor    %edi,%edi
    3b1b:	c5 d8 57 e4          	vxorps %xmm4,%xmm4,%xmm4
    3b1f:	c5 d0 57 ed          	vxorps %xmm5,%xmm5,%xmm5
    3b23:	c5 e8 57 d2          	vxorps %xmm2,%xmm2,%xmm2
    3b27:	c5 e0 57 db          	vxorps %xmm3,%xmm3,%xmm3
    3b2b:	0f 1f 44 00 00       	nopl   0x0(%rax,%rax,1)
    3b30:	c5 d2 5c e4          	vsubss %xmm4,%xmm5,%xmm4
    3b34:	c5 e2 5c d2          	vsubss %xmm2,%xmm3,%xmm2
    3b38:	c5 f2 58 ea          	vaddss %xmm2,%xmm1,%xmm5
    3b3c:	c5 fa 58 f4          	vaddss %xmm4,%xmm0,%xmm6
    3b40:	c5 d2 59 dd          	vmulss %xmm5,%xmm5,%xmm3
    3b44:	c5 ca 59 d6          	vmulss %xmm6,%xmm6,%xmm2
    3b48:	ff c7                	inc    %edi
    3b4a:	c5 e2 58 e2          	vaddss %xmm2,%xmm3,%xmm4
    3b4e:	c4 c1 78 2e e3       	vucomiss %xmm11,%xmm4
    3b53:	0f 87 47 ff ff ff    	ja     3aa0 <main+0x550>
    3b59:	c5 d2 58 ee          	vaddss %xmm6,%xmm5,%xmm5
    3b5d:	c5 d2 59 ed          	vmulss %xmm5,%xmm5,%xmm5
    3b61:	39 ef                	cmp    %ebp,%edi
    3b63:	72 cb                	jb     3b30 <main+0x5e0>
    3b65:	e9 36 ff ff ff       	jmp    3aa0 <main+0x550>
    3b6a:	4c 8b 6c 24 48       	mov    0x48(%rsp),%r13
    3b6f:	49 83 c5 50          	add    $0x50,%r13
    3b73:	ba 06 00 00 00       	mov    $0x6,%edx
    3b78:	4c 8b 74 24 70       	mov    0x70(%rsp),%r14
    3b7d:	4c 89 f7             	mov    %r14,%rdi
    3b80:	4c 89 ee             	mov    %r13,%rsi
    3b83:	e8 78 43 00 00       	call   7f00 <_ZSt16__introsort_loopIN9__gnu_cxx17__normal_iteratorIPdSt6vectorIdSaIdEEEElNS0_5__ops15_Iter_less_iterEEvT_S9_T0_T1_>
    3b88:	4c 89 f7             	mov    %r14,%rdi
    3b8b:	4c 89 ee             	mov    %r13,%rsi
    3b8e:	e8 0d 46 00 00       	call   81a0 <_ZSt22__final_insertion_sortIN9__gnu_cxx17__normal_iteratorIPdSt6vectorIdSaIdEEEENS0_5__ops15_Iter_less_iterEEvT_S9_T0_>
    3b93:	48 8d bc 24 20 01 00 	lea    0x120(%rsp),%rdi
    3b9a:	00 
    3b9b:	e8 30 e5 ff ff       	call   20d0 <_ZNSt7__cxx1118basic_stringstreamIcSt11char_traitsIcESaIcEEC1Ev@plt>
    3ba0:	48 8d bc 24 30 01 00 	lea    0x130(%rsp),%rdi
    3ba7:	00 
    3ba8:	48 8b 84 24 30 01 00 	mov    0x130(%rsp),%rax
    3baf:	00 
    3bb0:	48 8b 48 e8          	mov    -0x18(%rax),%rcx
    3bb4:	ba fb fe ff ff       	mov    $0xfffffefb,%edx
    3bb9:	23 94 0c 48 01 00 00 	and    0x148(%rsp,%rcx,1),%edx
    3bc0:	83 ca 04             	or     $0x4,%edx
    3bc3:	89 94 0c 48 01 00 00 	mov    %edx,0x148(%rsp,%rcx,1)
    3bca:	48 8b 48 e8          	mov    -0x18(%rax),%rcx
    3bce:	48 c7 84 0c 40 01 00 	movq   $0x6,0x140(%rsp,%rcx,1)
    3bd5:	00 06 00 00 00 
    3bda:	48 8b 40 e8          	mov    -0x18(%rax),%rax
    3bde:	48 c7 84 04 38 01 00 	movq   $0x2,0x138(%rsp,%rax,1)
    3be5:	00 02 00 00 00 
    3bea:	c4 c1 7b 10 06       	vmovsd (%r14),%xmm0
    3bef:	c5 fb 59 05 61 55 00 	vmulsd 0x5561(%rip),%xmm0,%xmm0        # 9158 <_IO_stdin_used+0x158>
    3bf6:	00 
    3bf7:	e8 c4 e5 ff ff       	call   21c0 <_ZNSo9_M_insertIdEERSoT_@plt>
    3bfc:	48 8b 3d b5 73 00 00 	mov    0x73b5(%rip),%rdi        # afb8 <_ZSt4cout@GLIBCXX_3.4>
    3c03:	48 8d 35 74 56 00 00 	lea    0x5674(%rip),%rsi        # 927e <_IO_stdin_used+0x27e>
    3c0a:	ba 0b 00 00 00       	mov    $0xb,%edx
    3c0f:	e8 1c e5 ff ff       	call   2130 <_ZSt16__ostream_insertIcSt11char_traitsIcEERSt13basic_ostreamIT_T0_ES6_PKS3_l@plt>
    3c14:	48 8d 44 24 30       	lea    0x30(%rsp),%rax
    3c19:	48 89 44 24 20       	mov    %rax,0x20(%rsp)
    3c1e:	48 c7 44 24 28 00 00 	movq   $0x0,0x28(%rsp)
    3c25:	00 00 
    3c27:	c6 44 24 30 00       	movb   $0x0,0x30(%rsp)
    3c2c:	4c 8b 84 24 50 01 00 	mov    0x150(%rsp),%r8
    3c33:	00 
    3c34:	48 8b 84 24 60 01 00 	mov    0x160(%rsp),%rax
    3c3b:	00 
    3c3c:	48 85 c0             	test   %rax,%rax
    3c3f:	0f 94 c1             	sete   %cl
    3c42:	4c 39 c0             	cmp    %r8,%rax
    3c45:	4c 0f 47 c0          	cmova  %rax,%r8
    3c49:	4d 85 c0             	test   %r8,%r8
    3c4c:	0f 94 c0             	sete   %al
    3c4f:	08 c8                	or     %cl,%al
    3c51:	74 14                	je     3c67 <main+0x717>
    3c53:	48 8d b4 24 80 01 00 	lea    0x180(%rsp),%rsi
    3c5a:	00 
    3c5b:	48 8d 7c 24 20       	lea    0x20(%rsp),%rdi
    3c60:	e8 4b 4c 00 00       	call   88b0 <_ZNSt7__cxx1112basic_stringIcSt11char_traitsIcESaIcEE9_M_assignERKS4_>
    3c65:	eb 19                	jmp    3c80 <main+0x730>
    3c67:	48 8b 8c 24 58 01 00 	mov    0x158(%rsp),%rcx
    3c6e:	00 
    3c6f:	49 29 c8             	sub    %rcx,%r8
    3c72:	48 8d 7c 24 20       	lea    0x20(%rsp),%rdi
    3c77:	31 f6                	xor    %esi,%esi
    3c79:	31 d2                	xor    %edx,%edx
    3c7b:	e8 60 49 00 00       	call   85e0 <_ZNSt7__cxx1112basic_stringIcSt11char_traitsIcESaIcEE10_M_replaceEmmPKcm>
    3c80:	48 8b 74 24 20       	mov    0x20(%rsp),%rsi
    3c85:	48 8b 54 24 28       	mov    0x28(%rsp),%rdx
    3c8a:	48 8b 3d 27 73 00 00 	mov    0x7327(%rip),%rdi        # afb8 <_ZSt4cout@GLIBCXX_3.4>
    3c91:	e8 9a e4 ff ff       	call   2130 <_ZSt16__ostream_insertIcSt11char_traitsIcEERSt13basic_ostreamIT_T0_ES6_PKS3_l@plt>
    3c96:	49 89 c6             	mov    %rax,%r14
    3c99:	48 8d 35 ea 55 00 00 	lea    0x55ea(%rip),%rsi        # 928a <_IO_stdin_used+0x28a>
    3ca0:	ba 03 00 00 00       	mov    $0x3,%edx
    3ca5:	48 89 c7             	mov    %rax,%rdi
    3ca8:	e8 83 e4 ff ff       	call   2130 <_ZSt16__ostream_insertIcSt11char_traitsIcEERSt13basic_ostreamIT_T0_ES6_PKS3_l@plt>
    3cad:	49 8b 06             	mov    (%r14),%rax
    3cb0:	48 8b 40 e8          	mov    -0x18(%rax),%rax
    3cb4:	4d 89 f5             	mov    %r14,%r13
    3cb7:	4d 8b b4 06 f0 00 00 	mov    0xf0(%r14,%rax,1),%r14
    3cbe:	00 
    3cbf:	4d 85 f6             	test   %r14,%r14
    3cc2:	0f 84 1b 40 00 00    	je     7ce3 <main+0x4793>
    3cc8:	41 80 7e 38 00       	cmpb   $0x0,0x38(%r14)
    3ccd:	74 07                	je     3cd6 <main+0x786>
    3ccf:	41 0f b6 46 43       	movzbl 0x43(%r14),%eax
    3cd4:	eb 16                	jmp    3cec <main+0x79c>
    3cd6:	4c 89 f7             	mov    %r14,%rdi
    3cd9:	e8 62 e4 ff ff       	call   2140 <_ZNKSt5ctypeIcE13_M_widen_initEv@plt>
    3cde:	49 8b 06             	mov    (%r14),%rax
    3ce1:	4c 89 f7             	mov    %r14,%rdi
    3ce4:	be 0a 00 00 00       	mov    $0xa,%esi
    3ce9:	ff 50 30             	call   *0x30(%rax)
    3cec:	0f be f0             	movsbl %al,%esi
    3cef:	4c 89 ef             	mov    %r13,%rdi
    3cf2:	e8 39 e3 ff ff       	call   2030 <_ZNSo3putEc@plt>
    3cf7:	48 89 c7             	mov    %rax,%rdi
    3cfa:	e8 c1 e3 ff ff       	call   20c0 <_ZNSo5flushEv@plt>
    3cff:	48 89 5c 24 50       	mov    %rbx,0x50(%rsp)
    3d04:	48 8b 7c 24 20       	mov    0x20(%rsp),%rdi
    3d09:	48 8d 44 24 30       	lea    0x30(%rsp),%rax
    3d0e:	48 39 c7             	cmp    %rax,%rdi
    3d11:	74 0d                	je     3d20 <main+0x7d0>
    3d13:	48 8b 74 24 30       	mov    0x30(%rsp),%rsi
    3d18:	48 ff c6             	inc    %rsi
    3d1b:	e8 f0 e3 ff ff       	call   2110 <_ZdlPvm@plt>
    3d20:	48 8b 1d 71 72 00 00 	mov    0x7271(%rip),%rbx        # af98 <_ZTTNSt7__cxx1118basic_stringstreamIcSt11char_traitsIcESaIcEEE@GLIBCXX_3.4.21>
    3d27:	48 8b 03             	mov    (%rbx),%rax
    3d2a:	48 8b 4b 40          	mov    0x40(%rbx),%rcx
    3d2e:	48 89 84 24 20 01 00 	mov    %rax,0x120(%rsp)
    3d35:	00 
    3d36:	48 8b 40 e8          	mov    -0x18(%rax),%rax
    3d3a:	48 89 8c 04 20 01 00 	mov    %rcx,0x120(%rsp,%rax,1)
    3d41:	00 
    3d42:	48 8b 43 48          	mov    0x48(%rbx),%rax
    3d46:	48 89 84 24 30 01 00 	mov    %rax,0x130(%rsp)
    3d4d:	00 
    3d4e:	48 8b 05 8b 72 00 00 	mov    0x728b(%rip),%rax        # afe0 <_ZTVNSt7__cxx1115basic_stringbufIcSt11char_traitsIcESaIcEEE@GLIBCXX_3.4.21>
    3d55:	48 83 c0 10          	add    $0x10,%rax
    3d59:	48 89 84 24 38 01 00 	mov    %rax,0x138(%rsp)
    3d60:	00 
    3d61:	48 8b bc 24 80 01 00 	mov    0x180(%rsp),%rdi
    3d68:	00 
    3d69:	48 8d 84 24 90 01 00 	lea    0x190(%rsp),%rax
    3d70:	00 
    3d71:	48 39 c7             	cmp    %rax,%rdi
    3d74:	4c 8b 74 24 70       	mov    0x70(%rsp),%r14
    3d79:	74 10                	je     3d8b <main+0x83b>
    3d7b:	48 8b b4 24 90 01 00 	mov    0x190(%rsp),%rsi
    3d82:	00 
    3d83:	48 ff c6             	inc    %rsi
    3d86:	e8 85 e3 ff ff       	call   2110 <_ZdlPvm@plt>
    3d8b:	48 8b 05 16 72 00 00 	mov    0x7216(%rip),%rax        # afa8 <_ZTVSt15basic_streambufIcSt11char_traitsIcEE@GLIBCXX_3.4>
    3d92:	48 83 c0 10          	add    $0x10,%rax
    3d96:	48 89 84 24 38 01 00 	mov    %rax,0x138(%rsp)
    3d9d:	00 
    3d9e:	48 8d bc 24 70 01 00 	lea    0x170(%rsp),%rdi
    3da5:	00 
    3da6:	e8 f5 e3 ff ff       	call   21a0 <_ZNSt6localeD1Ev@plt>
    3dab:	48 8b 43 10          	mov    0x10(%rbx),%rax
    3daf:	48 8b 4b 18          	mov    0x18(%rbx),%rcx
    3db3:	48 89 84 24 20 01 00 	mov    %rax,0x120(%rsp)
    3dba:	00 
    3dbb:	48 8b 40 e8          	mov    -0x18(%rax),%rax
    3dbf:	48 89 8c 04 20 01 00 	mov    %rcx,0x120(%rsp,%rax,1)
    3dc6:	00 
    3dc7:	48 c7 84 24 28 01 00 	movq   $0x0,0x128(%rsp)
    3dce:	00 00 00 00 00 
    3dd3:	48 8d bc 24 a0 01 00 	lea    0x1a0(%rsp),%rdi
    3dda:	00 
    3ddb:	e8 70 e2 ff ff       	call   2050 <_ZNSt8ios_baseD2Ev@plt>
    3de0:	be 50 00 00 00       	mov    $0x50,%esi
    3de5:	4c 89 f7             	mov    %r14,%rdi
    3de8:	e8 23 e3 ff ff       	call   2110 <_ZdlPvm@plt>
    3ded:	41 89 e8             	mov    %ebp,%r8d
    3df0:	4d 85 e4             	test   %r12,%r12
    3df3:	48 8b 1c 24          	mov    (%rsp),%rbx
    3df7:	0f 84 10 03 00 00    	je     410d <main+0xbbd>
    3dfd:	44 89 e0             	mov    %r12d,%eax
    3e00:	83 e0 e0             	and    $0xffffffe0,%eax
    3e03:	44 89 e1             	mov    %r12d,%ecx
    3e06:	83 e1 fc             	and    $0xfffffffc,%ecx
    3e09:	48 89 ca             	mov    %rcx,%rdx
    3e0c:	48 f7 da             	neg    %rdx
    3e0f:	31 f6                	xor    %esi,%esi
    3e11:	31 ff                	xor    %edi,%edi
    3e13:	41 89 e8             	mov    %ebp,%r8d
    3e16:	eb 16                	jmp    3e2e <main+0x8de>
    3e18:	0f 1f 84 00 00 00 00 	nopl   0x0(%rax,%rax,1)
    3e1f:	00 
    3e20:	ff c7                	inc    %edi
    3e22:	4c 01 e6             	add    %r12,%rsi
    3e25:	44 39 e7             	cmp    %r12d,%edi
    3e28:	0f 84 df 02 00 00    	je     410d <main+0xbbd>
    3e2e:	41 83 fc 03          	cmp    $0x3,%r12d
    3e32:	76 27                	jbe    3e5b <main+0x90b>
    3e34:	4c 8b 5c 24 50       	mov    0x50(%rsp),%r11
    3e39:	4d 89 d9             	mov    %r11,%r9
    3e3c:	49 c1 e9 20          	shr    $0x20,%r9
    3e40:	41 0f 95 c1          	setne  %r9b
    3e44:	45 89 e2             	mov    %r12d,%r10d
    3e47:	44 0f af d7          	imul   %edi,%r10d
    3e4b:	45 01 da             	add    %r11d,%r10d
    3e4e:	41 0f 92 c2          	setb   %r10b
    3e52:	45 08 ca             	or     %r9b,%r10b
    3e55:	0f 84 b5 01 00 00    	je     4010 <main+0xac0>
    3e5b:	45 31 d2             	xor    %r10d,%r10d
    3e5e:	45 89 e3             	mov    %r12d,%r11d
    3e61:	45 29 d3             	sub    %r10d,%r11d
    3e64:	4d 89 d1             	mov    %r10,%r9
    3e67:	41 83 e3 07          	and    $0x7,%r11d
    3e6b:	74 1a                	je     3e87 <main+0x937>
    3e6d:	0f 1f 00             	nopl   (%rax)
    3e70:	42 8d 1c 0e          	lea    (%rsi,%r9,1),%ebx
    3e74:	41 8b 1c 9f          	mov    (%r15,%rbx,4),%ebx
    3e78:	44 39 c3             	cmp    %r8d,%ebx
    3e7b:	44 0f 42 c3          	cmovb  %ebx,%r8d
    3e7f:	49 ff c1             	inc    %r9
    3e82:	49 ff cb             	dec    %r11
    3e85:	75 e9                	jne    3e70 <main+0x920>
    3e87:	4d 29 e2             	sub    %r12,%r10
    3e8a:	49 83 fa f8          	cmp    $0xfffffffffffffff8,%r10
    3e8e:	48 8b 1c 24          	mov    (%rsp),%rbx
    3e92:	76 19                	jbe    3ead <main+0x95d>
    3e94:	eb 8a                	jmp    3e20 <main+0x8d0>
    3e96:	66 2e 0f 1f 84 00 00 	cs nopw 0x0(%rax,%rax,1)
    3e9d:	00 00 00 
    3ea0:	49 83 c1 08          	add    $0x8,%r9
    3ea4:	4d 39 cc             	cmp    %r9,%r12
    3ea7:	0f 84 73 ff ff ff    	je     3e20 <main+0x8d0>
    3ead:	46 8d 14 0e          	lea    (%rsi,%r9,1),%r10d
    3eb1:	47 8b 14 97          	mov    (%r15,%r10,4),%r10d
    3eb5:	45 39 c2             	cmp    %r8d,%r10d
    3eb8:	0f 83 a2 00 00 00    	jae    3f60 <main+0xa10>
    3ebe:	46 8d 04 0e          	lea    (%rsi,%r9,1),%r8d
    3ec2:	41 ff c0             	inc    %r8d
    3ec5:	47 8b 04 87          	mov    (%r15,%r8,4),%r8d
    3ec9:	45 39 d0             	cmp    %r10d,%r8d
    3ecc:	0f 83 a5 00 00 00    	jae    3f77 <main+0xa27>
    3ed2:	46 8d 14 0e          	lea    (%rsi,%r9,1),%r10d
    3ed6:	41 83 c2 02          	add    $0x2,%r10d
    3eda:	47 8b 14 97          	mov    (%r15,%r10,4),%r10d
    3ede:	45 39 c2             	cmp    %r8d,%r10d
    3ee1:	0f 83 a8 00 00 00    	jae    3f8f <main+0xa3f>
    3ee7:	46 8d 04 0e          	lea    (%rsi,%r9,1),%r8d
    3eeb:	41 83 c0 03          	add    $0x3,%r8d
    3eef:	47 8b 04 87          	mov    (%r15,%r8,4),%r8d
    3ef3:	45 39 d0             	cmp    %r10d,%r8d
    3ef6:	0f 83 ab 00 00 00    	jae    3fa7 <main+0xa57>
    3efc:	46 8d 14 0e          	lea    (%rsi,%r9,1),%r10d
    3f00:	41 83 c2 04          	add    $0x4,%r10d
    3f04:	47 8b 14 97          	mov    (%r15,%r10,4),%r10d
    3f08:	45 39 c2             	cmp    %r8d,%r10d
    3f0b:	0f 83 ae 00 00 00    	jae    3fbf <main+0xa6f>
    3f11:	46 8d 04 0e          	lea    (%rsi,%r9,1),%r8d
    3f15:	41 83 c0 05          	add    $0x5,%r8d
    3f19:	47 8b 04 87          	mov    (%r15,%r8,4),%r8d
    3f1d:	45 39 d0             	cmp    %r10d,%r8d
    3f20:	0f 83 b1 00 00 00    	jae    3fd7 <main+0xa87>
    3f26:	46 8d 14 0e          	lea    (%rsi,%r9,1),%r10d
    3f2a:	41 83 c2 06          	add    $0x6,%r10d
    3f2e:	47 8b 14 97          	mov    (%r15,%r10,4),%r10d
    3f32:	45 39 c2             	cmp    %r8d,%r10d
    3f35:	0f 83 b4 00 00 00    	jae    3fef <main+0xa9f>
    3f3b:	46 8d 04 0e          	lea    (%rsi,%r9,1),%r8d
    3f3f:	41 83 c0 07          	add    $0x7,%r8d
    3f43:	47 8b 04 87          	mov    (%r15,%r8,4),%r8d
    3f47:	45 39 d0             	cmp    %r10d,%r8d
    3f4a:	0f 82 50 ff ff ff    	jb     3ea0 <main+0x950>
    3f50:	e9 b2 00 00 00       	jmp    4007 <main+0xab7>
    3f55:	66 66 2e 0f 1f 84 00 	data16 cs nopw 0x0(%rax,%rax,1)
    3f5c:	00 00 00 00 
    3f60:	45 89 c2             	mov    %r8d,%r10d
    3f63:	46 8d 04 0e          	lea    (%rsi,%r9,1),%r8d
    3f67:	41 ff c0             	inc    %r8d
    3f6a:	47 8b 04 87          	mov    (%r15,%r8,4),%r8d
    3f6e:	45 39 d0             	cmp    %r10d,%r8d
    3f71:	0f 82 5b ff ff ff    	jb     3ed2 <main+0x982>
    3f77:	45 89 d0             	mov    %r10d,%r8d
    3f7a:	46 8d 14 0e          	lea    (%rsi,%r9,1),%r10d
    3f7e:	41 83 c2 02          	add    $0x2,%r10d
    3f82:	47 8b 14 97          	mov    (%r15,%r10,4),%r10d
    3f86:	45 39 c2             	cmp    %r8d,%r10d
    3f89:	0f 82 58 ff ff ff    	jb     3ee7 <main+0x997>
    3f8f:	45 89 c2             	mov    %r8d,%r10d
    3f92:	46 8d 04 0e          	lea    (%rsi,%r9,1),%r8d
    3f96:	41 83 c0 03          	add    $0x3,%r8d
    3f9a:	47 8b 04 87          	mov    (%r15,%r8,4),%r8d
    3f9e:	45 39 d0             	cmp    %r10d,%r8d
    3fa1:	0f 82 55 ff ff ff    	jb     3efc <main+0x9ac>
    3fa7:	45 89 d0             	mov    %r10d,%r8d
    3faa:	46 8d 14 0e          	lea    (%rsi,%r9,1),%r10d
    3fae:	41 83 c2 04          	add    $0x4,%r10d
    3fb2:	47 8b 14 97          	mov    (%r15,%r10,4),%r10d
    3fb6:	45 39 c2             	cmp    %r8d,%r10d
    3fb9:	0f 82 52 ff ff ff    	jb     3f11 <main+0x9c1>
    3fbf:	45 89 c2             	mov    %r8d,%r10d
    3fc2:	46 8d 04 0e          	lea    (%rsi,%r9,1),%r8d
    3fc6:	41 83 c0 05          	add    $0x5,%r8d
    3fca:	47 8b 04 87          	mov    (%r15,%r8,4),%r8d
    3fce:	45 39 d0             	cmp    %r10d,%r8d
    3fd1:	0f 82 4f ff ff ff    	jb     3f26 <main+0x9d6>
    3fd7:	45 89 d0             	mov    %r10d,%r8d
    3fda:	46 8d 14 0e          	lea    (%rsi,%r9,1),%r10d
    3fde:	41 83 c2 06          	add    $0x6,%r10d
    3fe2:	47 8b 14 97          	mov    (%r15,%r10,4),%r10d
    3fe6:	45 39 c2             	cmp    %r8d,%r10d
    3fe9:	0f 82 4c ff ff ff    	jb     3f3b <main+0x9eb>
    3fef:	45 89 c2             	mov    %r8d,%r10d
    3ff2:	46 8d 04 0e          	lea    (%rsi,%r9,1),%r8d
    3ff6:	41 83 c0 07          	add    $0x7,%r8d
    3ffa:	47 8b 04 87          	mov    (%r15,%r8,4),%r8d
    3ffe:	45 39 d0             	cmp    %r10d,%r8d
    4001:	0f 82 99 fe ff ff    	jb     3ea0 <main+0x950>
    4007:	45 89 d0             	mov    %r10d,%r8d
    400a:	e9 91 fe ff ff       	jmp    3ea0 <main+0x950>
    400f:	90                   	nop
    4010:	41 83 fc 20          	cmp    $0x20,%r12d
    4014:	73 08                	jae    401e <main+0xace>
    4016:	45 31 c9             	xor    %r9d,%r9d
    4019:	e9 96 00 00 00       	jmp    40b4 <main+0xb64>
    401e:	62 d2 7d 28 7c c0    	vpbroadcastd %r8d,%ymm0
    4024:	41 89 f0             	mov    %esi,%r8d
    4027:	49 89 c1             	mov    %rax,%r9
    402a:	c5 fd 6f c8          	vmovdqa %ymm0,%ymm1
    402e:	c5 fd 6f d0          	vmovdqa %ymm0,%ymm2
    4032:	c5 fd 6f d8          	vmovdqa %ymm0,%ymm3
    4036:	66 2e 0f 1f 84 00 00 	cs nopw 0x0(%rax,%rax,1)
    403d:	00 00 00 
    4040:	45 89 c2             	mov    %r8d,%r10d
    4043:	c4 82 7d 3b 04 97    	vpminud (%r15,%r10,4),%ymm0,%ymm0
    4049:	c4 82 75 3b 4c 97 20 	vpminud 0x20(%r15,%r10,4),%ymm1,%ymm1
    4050:	c4 82 6d 3b 54 97 40 	vpminud 0x40(%r15,%r10,4),%ymm2,%ymm2
    4057:	c4 82 65 3b 5c 97 60 	vpminud 0x60(%r15,%r10,4),%ymm3,%ymm3
    405e:	41 83 c0 20          	add    $0x20,%r8d
    4062:	49 83 c1 e0          	add    $0xffffffffffffffe0,%r9
    4066:	75 d8                	jne    4040 <main+0xaf0>
    4068:	c4 e2 7d 3b c1       	vpminud %ymm1,%ymm0,%ymm0
    406d:	c4 e2 6d 3b cb       	vpminud %ymm3,%ymm2,%ymm1
    4072:	c4 e2 7d 3b c1       	vpminud %ymm1,%ymm0,%ymm0
    4077:	c4 e3 7d 39 c1 01    	vextracti128 $0x1,%ymm0,%xmm1
    407d:	c4 e2 79 3b c1       	vpminud %xmm1,%xmm0,%xmm0
    4082:	c5 f9 70 c8 ee       	vpshufd $0xee,%xmm0,%xmm1
    4087:	c4 e2 79 3b c1       	vpminud %xmm1,%xmm0,%xmm0
    408c:	c5 f9 70 c8 55       	vpshufd $0x55,%xmm0,%xmm1
    4091:	c4 e2 79 3b c1       	vpminud %xmm1,%xmm0,%xmm0
    4096:	c4 c1 79 7e c0       	vmovd  %xmm0,%r8d
    409b:	44 39 e0             	cmp    %r12d,%eax
    409e:	0f 84 7c fd ff ff    	je     3e20 <main+0x8d0>
    40a4:	49 89 c2             	mov    %rax,%r10
    40a7:	49 89 c1             	mov    %rax,%r9
    40aa:	41 f6 c4 1c          	test   $0x1c,%r12b
    40ae:	0f 84 aa fd ff ff    	je     3e5e <main+0x90e>
    40b4:	62 d2 7d 08 7c c0    	vpbroadcastd %r8d,%xmm0
    40ba:	4e 8d 04 0a          	lea    (%rdx,%r9,1),%r8
    40be:	41 01 f1             	add    %esi,%r9d
    40c1:	66 66 66 66 66 66 2e 	data16 data16 data16 data16 data16 cs nopw 0x0(%rax,%rax,1)
    40c8:	0f 1f 84 00 00 00 00 
    40cf:	00 
    40d0:	45 89 ca             	mov    %r9d,%r10d
    40d3:	c4 82 79 3b 04 97    	vpminud (%r15,%r10,4),%xmm0,%xmm0
    40d9:	41 83 c1 04          	add    $0x4,%r9d
    40dd:	49 83 c0 04          	add    $0x4,%r8
    40e1:	75 ed                	jne    40d0 <main+0xb80>
    40e3:	c5 f9 70 c8 ee       	vpshufd $0xee,%xmm0,%xmm1
    40e8:	c4 e2 79 3b c1       	vpminud %xmm1,%xmm0,%xmm0
    40ed:	c5 f9 70 c8 55       	vpshufd $0x55,%xmm0,%xmm1
    40f2:	c4 e2 79 3b c1       	vpminud %xmm1,%xmm0,%xmm0
    40f7:	c4 c1 79 7e c0       	vmovd  %xmm0,%r8d
    40fc:	49 89 ca             	mov    %rcx,%r10
    40ff:	44 39 e1             	cmp    %r12d,%ecx
    4102:	0f 84 18 fd ff ff    	je     3e20 <main+0x8d0>
    4108:	e9 51 fd ff ff       	jmp    3e5e <main+0x90e>
    410d:	62 d1 5e 08 7b c0    	vcvtusi2ss %r8d,%xmm4,%xmm0
    4113:	c5 fa 11 44 24 70    	vmovss %xmm0,0x70(%rsp)
    4119:	c5 f8 77             	vzeroupper
    411c:	e8 3f e0 ff ff       	call   2160 <log2f@plt>
    4121:	c5 fa 11 44 24 10    	vmovss %xmm0,0x10(%rsp)
    4127:	62 f1 5e 08 7b c5    	vcvtusi2ss %ebp,%xmm4,%xmm0
    412d:	c5 fa 5e 44 24 70    	vdivss 0x70(%rsp),%xmm0,%xmm0
    4133:	e8 28 e0 ff ff       	call   2160 <log2f@plt>
    4138:	c5 f8 28 c8          	vmovaps %xmm0,%xmm1
    413c:	48 8b 84 24 18 01 00 	mov    0x118(%rsp),%rax
    4143:	00 
    4144:	48 85 c0             	test   %rax,%rax
    4147:	74 64                	je     41ad <main+0xc5d>
    4149:	c5 fa 11 4c 24 70    	vmovss %xmm1,0x70(%rsp)
    414f:	44 8d 2c 40          	lea    (%rax,%rax,2),%r13d
    4153:	4c 89 ef             	mov    %r13,%rdi
    4156:	e8 a5 df ff ff       	call   2100 <_Znwm@plt>
    415b:	49 89 c6             	mov    %rax,%r14
    415e:	48 89 84 24 20 01 00 	mov    %rax,0x120(%rsp)
    4165:	00 
    4166:	4e 8d 3c 28          	lea    (%rax,%r13,1),%r15
    416a:	4c 89 bc 24 30 01 00 	mov    %r15,0x130(%rsp)
    4171:	00 
    4172:	c6 00 00             	movb   $0x0,(%rax)
    4175:	48 89 c7             	mov    %rax,%rdi
    4178:	48 ff c7             	inc    %rdi
    417b:	49 ff cd             	dec    %r13
    417e:	4c 89 bc 24 00 01 00 	mov    %r15,0x100(%rsp)
    4185:	00 
    4186:	74 0d                	je     4195 <main+0xc45>
    4188:	31 f6                	xor    %esi,%esi
    418a:	4c 89 ea             	mov    %r13,%rdx
    418d:	e8 0e df ff ff       	call   20a0 <memset@plt>
    4192:	4c 89 ff             	mov    %r15,%rdi
    4195:	c5 fa 10 4c 24 70    	vmovss 0x70(%rsp),%xmm1
    419b:	48 89 bc 24 28 01 00 	mov    %rdi,0x128(%rsp)
    41a2:	00 
    41a3:	4d 85 e4             	test   %r12,%r12
    41a6:	75 40                	jne    41e8 <main+0xc98>
    41a8:	e9 11 02 00 00       	jmp    43be <main+0xe6e>
    41ad:	c5 f8 57 c0          	vxorps %xmm0,%xmm0,%xmm0
    41b1:	c5 f8 29 84 24 20 01 	vmovaps %xmm0,0x120(%rsp)
    41b8:	00 00 
    41ba:	48 c7 84 24 30 01 00 	movq   $0x0,0x130(%rsp)
    41c1:	00 00 00 00 00 
    41c6:	48 c7 84 24 00 01 00 	movq   $0x0,0x100(%rsp)
    41cd:	00 00 00 00 00 
    41d2:	45 31 f6             	xor    %r14d,%r14d
    41d5:	31 ff                	xor    %edi,%edi
    41d7:	48 89 bc 24 28 01 00 	mov    %rdi,0x128(%rsp)
    41de:	00 
    41df:	4d 85 e4             	test   %r12,%r12
    41e2:	0f 84 d6 01 00 00    	je     43be <main+0xe6e>
    41e8:	44 89 e0             	mov    %r12d,%eax
    41eb:	83 e0 fe             	and    $0xfffffffe,%eax
    41ee:	48 89 84 24 c0 00 00 	mov    %rax,0xc0(%rsp)
    41f5:	00 
    41f6:	c5 fa 10 05 06 4e 00 	vmovss 0x4e06(%rip),%xmm0        # 9004 <_IO_stdin_used+0x4>
    41fd:	00 
    41fe:	c5 fa 5e c1          	vdivss %xmm1,%xmm0,%xmm0
    4202:	c5 fa 11 44 24 70    	vmovss %xmm0,0x70(%rsp)
    4208:	43 8d 04 64          	lea    (%r12,%r12,2),%eax
    420c:	89 44 24 40          	mov    %eax,0x40(%rsp)
    4210:	45 31 ed             	xor    %r13d,%r13d
    4213:	b8 05 00 00 00       	mov    $0x5,%eax
    4218:	b9 01 00 00 00       	mov    $0x1,%ecx
    421d:	eb 5f                	jmp    427e <main+0xd2e>
    421f:	90                   	nop
    4220:	62 f1 5e 08 7b c0    	vcvtusi2ss %eax,%xmm4,%xmm0
    4226:	e8 35 df ff ff       	call   2160 <log2f@plt>
    422b:	c5 fa 5c 44 24 10    	vsubss 0x10(%rsp),%xmm0,%xmm0
    4231:	c5 fa 59 05 e3 4d 00 	vmulss 0x4de3(%rip),%xmm0,%xmm0        # 901c <_IO_stdin_used+0x1c>
    4238:	00 
    4239:	c5 fa 59 44 24 70    	vmulss 0x70(%rsp),%xmm0,%xmm0
    423f:	c5 fa 2c c0          	vcvttss2si %xmm0,%eax
    4243:	04 20                	add    $0x20,%al
    4245:	b1 20                	mov    $0x20,%cl
    4247:	8d 14 5b             	lea    (%rbx,%rbx,2),%edx
    424a:	41 88 0c 16          	mov    %cl,(%r14,%rdx,1)
    424e:	8d 14 5b             	lea    (%rbx,%rbx,2),%edx
    4251:	ff c2                	inc    %edx
    4253:	41 88 04 16          	mov    %al,(%r14,%rdx,1)
    4257:	8d 44 5b 02          	lea    0x2(%rbx,%rbx,2),%eax
    425b:	41 88 0c 06          	mov    %cl,(%r14,%rax,1)
    425f:	48 8b 1c 24          	mov    (%rsp),%rbx
    4263:	8b 44 24 18          	mov    0x18(%rsp),%eax
    4267:	8b 4c 24 48          	mov    0x48(%rsp),%ecx
    426b:	41 ff c5             	inc    %r13d
    426e:	03 44 24 40          	add    0x40(%rsp),%eax
    4272:	44 01 e1             	add    %r12d,%ecx
    4275:	45 39 e5             	cmp    %r12d,%r13d
    4278:	0f 84 40 01 00 00    	je     43be <main+0xe6e>
    427e:	41 bf 00 00 00 00    	mov    $0x0,%r15d
    4284:	48 83 7c 24 50 00    	cmpq   $0x0,0x50(%rsp)
    428a:	89 44 24 18          	mov    %eax,0x18(%rsp)
    428e:	89 4c 24 48          	mov    %ecx,0x48(%rsp)
    4292:	0f 84 f9 00 00 00    	je     4391 <main+0xe41>
    4298:	4c 89 6c 24 60       	mov    %r13,0x60(%rsp)
    429d:	41 89 cd             	mov    %ecx,%r13d
    42a0:	89 c3                	mov    %eax,%ebx
    42a2:	45 31 ff             	xor    %r15d,%r15d
    42a5:	eb 5d                	jmp    4304 <main+0xdb4>
    42a7:	66 0f 1f 84 00 00 00 	nopw   0x0(%rax,%rax,1)
    42ae:	00 00 
    42b0:	62 f1 5e 08 7b c0    	vcvtusi2ss %eax,%xmm4,%xmm0
    42b6:	e8 a5 de ff ff       	call   2160 <log2f@plt>
    42bb:	c5 fa 5c 44 24 10    	vsubss 0x10(%rsp),%xmm0,%xmm0
    42c1:	c5 fa 59 05 53 4d 00 	vmulss 0x4d53(%rip),%xmm0,%xmm0        # 901c <_IO_stdin_used+0x1c>
    42c8:	00 
    42c9:	c5 fa 59 44 24 70    	vmulss 0x70(%rsp),%xmm0,%xmm0
    42cf:	c5 fa 2c c0          	vcvttss2si %xmm0,%eax
    42d3:	04 20                	add    $0x20,%al
    42d5:	b1 20                	mov    $0x20,%cl
    42d7:	8d 53 fe             	lea    -0x2(%rbx),%edx
    42da:	41 88 0c 16          	mov    %cl,(%r14,%rdx,1)
    42de:	8d 53 ff             	lea    -0x1(%rbx),%edx
    42e1:	41 88 04 16          	mov    %al,(%r14,%rdx,1)
    42e5:	89 d8                	mov    %ebx,%eax
    42e7:	41 88 0c 06          	mov    %cl,(%r14,%rax,1)
    42eb:	49 83 c7 02          	add    $0x2,%r15
    42ef:	83 c3 06             	add    $0x6,%ebx
    42f2:	41 83 c5 02          	add    $0x2,%r13d
    42f6:	4c 39 bc 24 c0 00 00 	cmp    %r15,0xc0(%rsp)
    42fd:	00 
    42fe:	0f 84 7c 00 00 00    	je     4380 <main+0xe30>
    4304:	41 8d 45 ff          	lea    -0x1(%r13),%eax
    4308:	48 8b 4c 24 08       	mov    0x8(%rsp),%rcx
    430d:	8b 04 81             	mov    (%rcx,%rax,4),%eax
    4310:	39 e8                	cmp    %ebp,%eax
    4312:	73 2c                	jae    4340 <main+0xdf0>
    4314:	62 f1 5e 08 7b c0    	vcvtusi2ss %eax,%xmm4,%xmm0
    431a:	e8 41 de ff ff       	call   2160 <log2f@plt>
    431f:	c5 fa 5c 44 24 10    	vsubss 0x10(%rsp),%xmm0,%xmm0
    4325:	c5 fa 59 05 ef 4c 00 	vmulss 0x4cef(%rip),%xmm0,%xmm0        # 901c <_IO_stdin_used+0x1c>
    432c:	00 
    432d:	c5 fa 59 44 24 70    	vmulss 0x70(%rsp),%xmm0,%xmm0
    4333:	c5 fa 2c c0          	vcvttss2si %xmm0,%eax
    4337:	04 20                	add    $0x20,%al
    4339:	b1 20                	mov    $0x20,%cl
    433b:	eb 07                	jmp    4344 <main+0xdf4>
    433d:	0f 1f 00             	nopl   (%rax)
    4340:	31 c0                	xor    %eax,%eax
    4342:	31 c9                	xor    %ecx,%ecx
    4344:	8d 53 fb             	lea    -0x5(%rbx),%edx
    4347:	41 88 0c 16          	mov    %cl,(%r14,%rdx,1)
    434b:	8d 53 fc             	lea    -0x4(%rbx),%edx
    434e:	41 88 04 16          	mov    %al,(%r14,%rdx,1)
    4352:	8d 43 fd             	lea    -0x3(%rbx),%eax
    4355:	41 88 0c 06          	mov    %cl,(%r14,%rax,1)
    4359:	44 89 e8             	mov    %r13d,%eax
    435c:	48 8b 4c 24 08       	mov    0x8(%rsp),%rcx
    4361:	8b 04 81             	mov    (%rcx,%rax,4),%eax
    4364:	39 e8                	cmp    %ebp,%eax
    4366:	0f 82 44 ff ff ff    	jb     42b0 <main+0xd60>
    436c:	31 c0                	xor    %eax,%eax
    436e:	31 c9                	xor    %ecx,%ecx
    4370:	e9 62 ff ff ff       	jmp    42d7 <main+0xd87>
    4375:	66 66 2e 0f 1f 84 00 	data16 cs nopw 0x0(%rax,%rax,1)
    437c:	00 00 00 00 
    4380:	48 8b 1c 24          	mov    (%rsp),%rbx
    4384:	4c 8b 6c 24 60       	mov    0x60(%rsp),%r13
    4389:	8b 44 24 18          	mov    0x18(%rsp),%eax
    438d:	8b 4c 24 48          	mov    0x48(%rsp),%ecx
    4391:	41 f6 c4 01          	test   $0x1,%r12b
    4395:	0f 84 d0 fe ff ff    	je     426b <main+0xd1b>
    439b:	44 89 eb             	mov    %r13d,%ebx
    439e:	41 0f af dc          	imul   %r12d,%ebx
    43a2:	44 01 fb             	add    %r15d,%ebx
    43a5:	48 8b 44 24 08       	mov    0x8(%rsp),%rax
    43aa:	8b 04 98             	mov    (%rax,%rbx,4),%eax
    43ad:	39 e8                	cmp    %ebp,%eax
    43af:	0f 82 6b fe ff ff    	jb     4220 <main+0xcd0>
    43b5:	31 c0                	xor    %eax,%eax
    43b7:	31 c9                	xor    %ecx,%ecx
    43b9:	e9 89 fe ff ff       	jmp    4247 <main+0xcf7>
    43be:	48 8d 3d c9 4e 00 00 	lea    0x4ec9(%rip),%rdi        # 928e <_IO_stdin_used+0x28e>
    43c5:	48 8d 94 24 20 01 00 	lea    0x120(%rsp),%rdx
    43cc:	00 
    43cd:	44 89 e6             	mov    %r12d,%esi
    43d0:	e8 5b e7 ff ff       	call   2b30 <_Z8writeBMPPKcjRKSt6vectorIhSaIhEE>
    43d5:	4d 85 f6             	test   %r14,%r14
    43d8:	4c 8b 7c 24 08       	mov    0x8(%rsp),%r15
    43dd:	74 13                	je     43f2 <main+0xea2>
    43df:	48 8b b4 24 00 01 00 	mov    0x100(%rsp),%rsi
    43e6:	00 
    43e7:	4c 29 f6             	sub    %r14,%rsi
    43ea:	4c 89 f7             	mov    %r14,%rdi
    43ed:	e8 1e dd ff ff       	call   2110 <_ZdlPvm@plt>
    43f2:	8b 84 24 bc 00 00 00 	mov    0xbc(%rsp),%eax
    43f9:	83 e0 fb             	and    $0xfffffffb,%eax
    43fc:	83 f8 02             	cmp    $0x2,%eax
    43ff:	0f 85 c0 0e 00 00    	jne    52c5 <main+0x1d75>
    4405:	4c 89 e2             	mov    %r12,%rdx
    4408:	49 0f af d4          	imul   %r12,%rdx
    440c:	48 c1 e2 02          	shl    $0x2,%rdx
    4410:	4c 89 ff             	mov    %r15,%rdi
    4413:	31 f6                	xor    %esi,%esi
    4415:	e8 86 dc ff ff       	call   20a0 <memset@plt>
    441a:	48 8b 05 97 6b 00 00 	mov    0x6b97(%rip),%rax        # afb8 <_ZSt4cout@GLIBCXX_3.4>
    4421:	48 8b 08             	mov    (%rax),%rcx
    4424:	48 8b 49 e8          	mov    -0x18(%rcx),%rcx
    4428:	4c 8b b4 08 f0 00 00 	mov    0xf0(%rax,%rcx,1),%r14
    442f:	00 
    4430:	4d 85 f6             	test   %r14,%r14
    4433:	0f 84 a5 38 00 00    	je     7cde <main+0x478e>
    4439:	41 80 7e 38 00       	cmpb   $0x0,0x38(%r14)
    443e:	74 07                	je     4447 <main+0xef7>
    4440:	41 0f b6 46 43       	movzbl 0x43(%r14),%eax
    4445:	eb 16                	jmp    445d <main+0xf0d>
    4447:	4c 89 f7             	mov    %r14,%rdi
    444a:	e8 f1 dc ff ff       	call   2140 <_ZNKSt5ctypeIcE13_M_widen_initEv@plt>
    444f:	49 8b 06             	mov    (%r14),%rax
    4452:	4c 89 f7             	mov    %r14,%rdi
    4455:	be 0a 00 00 00       	mov    $0xa,%esi
    445a:	ff 50 30             	call   *0x30(%rax)
    445d:	0f be f0             	movsbl %al,%esi
    4460:	48 8b 3d 51 6b 00 00 	mov    0x6b51(%rip),%rdi        # afb8 <_ZSt4cout@GLIBCXX_3.4>
    4467:	e8 c4 db ff ff       	call   2030 <_ZNSo3putEc@plt>
    446c:	48 89 c7             	mov    %rax,%rdi
    446f:	e8 4c dc ff ff       	call   20c0 <_ZNSo5flushEv@plt>
    4474:	49 89 c6             	mov    %rax,%r14
    4477:	48 8d 35 db 4d 00 00 	lea    0x4ddb(%rip),%rsi        # 9259 <_IO_stdin_used+0x259>
    447e:	ba 08 00 00 00       	mov    $0x8,%edx
    4483:	48 89 c7             	mov    %rax,%rdi
    4486:	e8 a5 dc ff ff       	call   2130 <_ZSt16__ostream_insertIcSt11char_traitsIcEERSt13basic_ostreamIT_T0_ES6_PKS3_l@plt>
    448b:	48 8d 35 1a 4e 00 00 	lea    0x4e1a(%rip),%rsi        # 92ac <_IO_stdin_used+0x2ac>
    4492:	ba 19 00 00 00       	mov    $0x19,%edx
    4497:	4c 89 f7             	mov    %r14,%rdi
    449a:	e8 91 dc ff ff       	call   2130 <_ZSt16__ostream_insertIcSt11char_traitsIcEERSt13basic_ostreamIT_T0_ES6_PKS3_l@plt>
    449f:	48 8d 35 d2 4d 00 00 	lea    0x4dd2(%rip),%rsi        # 9278 <_IO_stdin_used+0x278>
    44a6:	ba 05 00 00 00       	mov    $0x5,%edx
    44ab:	4c 89 f7             	mov    %r14,%rdi
    44ae:	e8 7d dc ff ff       	call   2130 <_ZSt16__ostream_insertIcSt11char_traitsIcEERSt13basic_ostreamIT_T0_ES6_PKS3_l@plt>
    44b3:	bf 50 00 00 00       	mov    $0x50,%edi
    44b8:	e8 43 dc ff ff       	call   2100 <_Znwm@plt>
    44bd:	62 d1 1e 08 7b c4    	vcvtusi2ss %r12d,%xmm12,%xmm0
    44c3:	48 89 44 24 18       	mov    %rax,0x18(%rsp)
    44c8:	48 89 c3             	mov    %rax,%rbx
    44cb:	c5 fa 10 0d 31 4b 00 	vmovss 0x4b31(%rip),%xmm1        # 9004 <_IO_stdin_used+0x4>
    44d2:	00 
    44d3:	c5 f2 5e c0          	vdivss %xmm0,%xmm1,%xmm0
    44d7:	c5 fa 11 44 24 10    	vmovss %xmm0,0x10(%rsp)
    44dd:	c5 fa 59 05 23 4b 00 	vmulss 0x4b23(%rip),%xmm0,%xmm0        # 9008 <_IO_stdin_used+0x8>
    44e4:	00 
    44e5:	62 f2 7d 48 7c cd    	vpbroadcastd %ebp,%zmm1
    44eb:	62 f1 fe 48 7f 8c 24 	vmovdqu64 %zmm1,0x70(%rsp)
    44f2:	70 00 00 00 
    44f6:	c5 f1 ef c9          	vpxor  %xmm1,%xmm1,%xmm1
    44fa:	c5 fe 7f 48 30       	vmovdqu %ymm1,0x30(%rax)
    44ff:	c5 fe 7f 48 20       	vmovdqu %ymm1,0x20(%rax)
    4504:	62 f2 7d 48 18 c0    	vbroadcastss %xmm0,%zmm0
    450a:	62 f1 7c 48 11 44 24 	vmovups %zmm0,0xc0(%rsp)
    4511:	03 
    4512:	c5 fe 7f 08          	vmovdqu %ymm1,(%rax)
    4516:	45 31 f6             	xor    %r14d,%r14d
    4519:	eb 29                	jmp    4544 <main+0xff4>
    451b:	0f 1f 44 00 00       	nopl   0x0(%rax,%rax,1)
    4520:	c5 f8 77             	vzeroupper
    4523:	e8 18 db ff ff       	call   2040 <_ZNSt6chrono3_V212system_clock3nowEv@plt>
    4528:	4c 29 e8             	sub    %r13,%rax
    452b:	62 f1 ef 00 7b c0    	vcvtusi2sd %rax,%xmm18,%xmm0
    4531:	c4 a1 7b 11 04 f3    	vmovsd %xmm0,(%rbx,%r14,8)
    4537:	49 ff c6             	inc    %r14
    453a:	49 83 fe 0a          	cmp    $0xa,%r14
    453e:	0f 84 8c 01 00 00    	je     46d0 <main+0x1180>
    4544:	c5 f8 77             	vzeroupper
    4547:	e8 f4 da ff ff       	call   2040 <_ZNSt6chrono3_V212system_clock3nowEv@plt>
    454c:	49 89 c5             	mov    %rax,%r13
    454f:	4d 85 e4             	test   %r12,%r12
    4552:	c5 7a 10 44 24 10    	vmovss 0x10(%rsp),%xmm8
    4558:	62 71 fe 48 6f 8c 24 	vmovdqu64 0x70(%rsp),%zmm9
    455f:	70 00 00 00 
    4563:	62 71 7c 48 10 54 24 	vmovups 0xc0(%rsp),%zmm10
    456a:	03 
    456b:	c5 7a 10 1d 95 4a 00 	vmovss 0x4a95(%rip),%xmm11        # 9008 <_IO_stdin_used+0x8>
    4572:	00 
    4573:	c5 7a 10 25 91 4a 00 	vmovss 0x4a91(%rip),%xmm12        # 900c <_IO_stdin_used+0xc>
    457a:	00 
    457b:	62 72 7d 48 22 2d cb 	vpmovsxbq 0x4bcb(%rip),%zmm13        # 9150 <_IO_stdin_used+0x150>
    4582:	4b 00 00 
    4585:	c4 62 7d 22 35 8a 4a 	vpmovsxbq 0x4a8a(%rip),%ymm14        # 9018 <_IO_stdin_used+0x18>
    458c:	00 00 
    458e:	c4 62 79 22 3d 69 4b 	vpmovsxbq 0x4b69(%rip),%xmm15        # 9100 <_IO_stdin_used+0x100>
    4595:	00 00 
    4597:	62 e2 7d 48 18 05 6f 	vbroadcastss 0x4a6f(%rip),%zmm16        # 9010 <_IO_stdin_used+0x10>
    459e:	4a 00 00 
    45a1:	62 e2 7d 48 18 0d 69 	vbroadcastss 0x4a69(%rip),%zmm17        # 9014 <_IO_stdin_used+0x14>
    45a8:	4a 00 00 
    45ab:	0f 84 6f ff ff ff    	je     4520 <main+0xfd0>
    45b1:	31 c0                	xor    %eax,%eax
    45b3:	66 66 66 66 2e 0f 1f 	data16 data16 data16 cs nopw 0x0(%rax,%rax,1)
    45ba:	84 00 00 00 00 00 
    45c0:	62 f1 ee 00 2a c0    	vcvtsi2ss %rax,%xmm18,%xmm0
    45c6:	c5 a2 59 c0          	vmulss %xmm0,%xmm11,%xmm0
    45ca:	c4 c2 39 a9 c4       	vfmadd213ss %xmm12,%xmm8,%xmm0
    45cf:	62 f2 7d 48 18 c0    	vbroadcastss %xmm0,%zmm0
    45d5:	48 89 c1             	mov    %rax,%rcx
    45d8:	49 0f af cc          	imul   %r12,%rcx
    45dc:	49 8d 0c 8f          	lea    (%r15,%rcx,4),%rcx
    45e0:	31 d2                	xor    %edx,%edx
    45e2:	66 66 66 66 66 2e 0f 	data16 data16 data16 data16 cs nopw 0x0(%rax,%rax,1)
    45e9:	1f 84 00 00 00 00 00 
    45f0:	62 f2 fd 48 7c ca    	vpbroadcastq %rdx,%zmm1
    45f6:	62 d1 f5 48 eb d5    	vporq  %zmm13,%zmm1,%zmm2
    45fc:	c5 8d eb d9          	vpor   %ymm1,%ymm14,%ymm3
    4600:	c5 81 eb e1          	vpor   %xmm1,%xmm15,%xmm4
    4604:	48 89 d6             	mov    %rdx,%rsi
    4607:	48 83 ce 01          	or     $0x1,%rsi
    460b:	c4 e1 f9 6e ee       	vmovq  %rsi,%xmm5
    4610:	c5 f1 6c cd          	vpunpcklqdq %xmm5,%xmm1,%xmm1
    4614:	62 f3 f5 48 3a cb 01 	vinserti64x4 $0x1,%ymm3,%zmm1,%zmm1
    461b:	62 f3 75 48 38 cc 01 	vinserti32x4 $0x1,%xmm4,%zmm1,%zmm1
    4622:	62 f1 ff 48 7a c9    	vcvtuqq2ps %zmm1,%ymm1
    4628:	62 f1 ff 48 7a d2    	vcvtuqq2ps %zmm2,%ymm2
    462e:	62 f3 f5 48 1a ca 01 	vinsertf64x4 $0x1,%ymm2,%zmm1,%zmm1
    4635:	62 b2 2d 48 a8 c8    	vfmadd213ps %zmm16,%zmm10,%zmm1
    463b:	c5 e8 57 d2          	vxorps %xmm2,%xmm2,%xmm2
    463f:	c5 fc 46 c8          	kxnorw %k0,%k0,%k1
    4643:	c5 e1 ef db          	vpxor  %xmm3,%xmm3,%xmm3
    4647:	c5 d9 ef e4          	vpxor  %xmm4,%xmm4,%xmm4
    464b:	c5 d1 ef ed          	vpxor  %xmm5,%xmm5,%xmm5
    464f:	90                   	nop
    4650:	62 f1 64 48 5c f4    	vsubps %zmm4,%zmm3,%zmm6
    4656:	62 f1 74 48 58 f6    	vaddps %zmm6,%zmm1,%zmm6
    465c:	62 f1 64 48 58 fc    	vaddps %zmm4,%zmm3,%zmm7
    4662:	62 f1 7c 48 5c ff    	vsubps %zmm7,%zmm0,%zmm7
    4668:	62 f1 44 48 58 fd    	vaddps %zmm5,%zmm7,%zmm7
    466e:	62 f1 4c 49 59 de    	vmulps %zmm6,%zmm6,%zmm3{%k1}
    4674:	62 f1 44 49 59 e7    	vmulps %zmm7,%zmm7,%zmm4{%k1}
    467a:	62 f1 44 48 58 f6    	vaddps %zmm6,%zmm7,%zmm6
    4680:	62 f1 5c 48 58 fb    	vaddps %zmm3,%zmm4,%zmm7
    4686:	62 f1 35 48 66 d2    	vpcmpgtd %zmm2,%zmm9,%k2
    468c:	62 f1 4c 49 59 ee    	vmulps %zmm6,%zmm6,%zmm5{%k1}
    4692:	62 b1 44 4a c2 c9 02 	vcmpleps %zmm17,%zmm7,%k1{%k2}
    4699:	62 f2 7e 48 38 f1    	vpmovm2d %k1,%zmm6
    469f:	62 f1 6d 48 fa d6    	vpsubd %zmm6,%zmm2,%zmm2
    46a5:	c5 f8 98 c9          	kortestw %k1,%k1
    46a9:	75 a5                	jne    4650 <main+0x1100>
    46ab:	62 f1 fe 48 7f 14 91 	vmovdqu64 %zmm2,(%rcx,%rdx,4)
    46b2:	48 83 c2 10          	add    $0x10,%rdx
    46b6:	4c 39 e2             	cmp    %r12,%rdx
    46b9:	0f 82 31 ff ff ff    	jb     45f0 <main+0x10a0>
    46bf:	48 ff c0             	inc    %rax
    46c2:	4c 39 e0             	cmp    %r12,%rax
    46c5:	0f 85 f5 fe ff ff    	jne    45c0 <main+0x1070>
    46cb:	e9 50 fe ff ff       	jmp    4520 <main+0xfd0>
    46d0:	4c 8b 74 24 18       	mov    0x18(%rsp),%r14
    46d5:	49 83 c6 50          	add    $0x50,%r14
    46d9:	ba 06 00 00 00       	mov    $0x6,%edx
    46de:	48 89 df             	mov    %rbx,%rdi
    46e1:	4c 89 f6             	mov    %r14,%rsi
    46e4:	e8 17 38 00 00       	call   7f00 <_ZSt16__introsort_loopIN9__gnu_cxx17__normal_iteratorIPdSt6vectorIdSaIdEEEElNS0_5__ops15_Iter_less_iterEEvT_S9_T0_T1_>
    46e9:	48 89 df             	mov    %rbx,%rdi
    46ec:	4c 89 f6             	mov    %r14,%rsi
    46ef:	e8 ac 3a 00 00       	call   81a0 <_ZSt22__final_insertion_sortIN9__gnu_cxx17__normal_iteratorIPdSt6vectorIdSaIdEEEENS0_5__ops15_Iter_less_iterEEvT_S9_T0_>
    46f4:	48 8d bc 24 20 01 00 	lea    0x120(%rsp),%rdi
    46fb:	00 
    46fc:	e8 cf d9 ff ff       	call   20d0 <_ZNSt7__cxx1118basic_stringstreamIcSt11char_traitsIcESaIcEEC1Ev@plt>
    4701:	48 8d bc 24 30 01 00 	lea    0x130(%rsp),%rdi
    4708:	00 
    4709:	48 8b 84 24 30 01 00 	mov    0x130(%rsp),%rax
    4710:	00 
    4711:	48 8b 48 e8          	mov    -0x18(%rax),%rcx
    4715:	ba fb fe ff ff       	mov    $0xfffffefb,%edx
    471a:	23 94 0c 48 01 00 00 	and    0x148(%rsp,%rcx,1),%edx
    4721:	83 ca 04             	or     $0x4,%edx
    4724:	89 94 0c 48 01 00 00 	mov    %edx,0x148(%rsp,%rcx,1)
    472b:	48 8b 48 e8          	mov    -0x18(%rax),%rcx
    472f:	48 c7 84 0c 40 01 00 	movq   $0x6,0x140(%rsp,%rcx,1)
    4736:	00 06 00 00 00 
    473b:	48 8b 40 e8          	mov    -0x18(%rax),%rax
    473f:	48 c7 84 04 38 01 00 	movq   $0x2,0x138(%rsp,%rax,1)
    4746:	00 02 00 00 00 
    474b:	c5 fb 10 03          	vmovsd (%rbx),%xmm0
    474f:	c5 fb 59 05 01 4a 00 	vmulsd 0x4a01(%rip),%xmm0,%xmm0        # 9158 <_IO_stdin_used+0x158>
    4756:	00 
    4757:	e8 64 da ff ff       	call   21c0 <_ZNSo9_M_insertIdEERSoT_@plt>
    475c:	48 8b 3d 55 68 00 00 	mov    0x6855(%rip),%rdi        # afb8 <_ZSt4cout@GLIBCXX_3.4>
    4763:	48 8d 35 14 4b 00 00 	lea    0x4b14(%rip),%rsi        # 927e <_IO_stdin_used+0x27e>
    476a:	ba 0b 00 00 00       	mov    $0xb,%edx
    476f:	e8 bc d9 ff ff       	call   2130 <_ZSt16__ostream_insertIcSt11char_traitsIcEERSt13basic_ostreamIT_T0_ES6_PKS3_l@plt>
    4774:	4c 8d 74 24 30       	lea    0x30(%rsp),%r14
    4779:	4c 89 74 24 20       	mov    %r14,0x20(%rsp)
    477e:	48 c7 44 24 28 00 00 	movq   $0x0,0x28(%rsp)
    4785:	00 00 
    4787:	c6 44 24 30 00       	movb   $0x0,0x30(%rsp)
    478c:	4c 8b 84 24 50 01 00 	mov    0x150(%rsp),%r8
    4793:	00 
    4794:	48 8b 84 24 60 01 00 	mov    0x160(%rsp),%rax
    479b:	00 
    479c:	48 85 c0             	test   %rax,%rax
    479f:	0f 94 c1             	sete   %cl
    47a2:	4c 39 c0             	cmp    %r8,%rax
    47a5:	4c 0f 47 c0          	cmova  %rax,%r8
    47a9:	4d 85 c0             	test   %r8,%r8
    47ac:	0f 94 c0             	sete   %al
    47af:	08 c8                	or     %cl,%al
    47b1:	74 14                	je     47c7 <main+0x1277>
    47b3:	48 8d b4 24 80 01 00 	lea    0x180(%rsp),%rsi
    47ba:	00 
    47bb:	48 8d 7c 24 20       	lea    0x20(%rsp),%rdi
    47c0:	e8 eb 40 00 00       	call   88b0 <_ZNSt7__cxx1112basic_stringIcSt11char_traitsIcESaIcEE9_M_assignERKS4_>
    47c5:	eb 19                	jmp    47e0 <main+0x1290>
    47c7:	48 8b 8c 24 58 01 00 	mov    0x158(%rsp),%rcx
    47ce:	00 
    47cf:	49 29 c8             	sub    %rcx,%r8
    47d2:	48 8d 7c 24 20       	lea    0x20(%rsp),%rdi
    47d7:	31 f6                	xor    %esi,%esi
    47d9:	31 d2                	xor    %edx,%edx
    47db:	e8 00 3e 00 00       	call   85e0 <_ZNSt7__cxx1112basic_stringIcSt11char_traitsIcESaIcEE10_M_replaceEmmPKcm>
    47e0:	48 8b 74 24 20       	mov    0x20(%rsp),%rsi
    47e5:	48 8b 54 24 28       	mov    0x28(%rsp),%rdx
    47ea:	48 8b 3d c7 67 00 00 	mov    0x67c7(%rip),%rdi        # afb8 <_ZSt4cout@GLIBCXX_3.4>
    47f1:	e8 3a d9 ff ff       	call   2130 <_ZSt16__ostream_insertIcSt11char_traitsIcEERSt13basic_ostreamIT_T0_ES6_PKS3_l@plt>
    47f6:	49 89 c6             	mov    %rax,%r14
    47f9:	48 8d 35 8a 4a 00 00 	lea    0x4a8a(%rip),%rsi        # 928a <_IO_stdin_used+0x28a>
    4800:	ba 03 00 00 00       	mov    $0x3,%edx
    4805:	48 89 c7             	mov    %rax,%rdi
    4808:	e8 23 d9 ff ff       	call   2130 <_ZSt16__ostream_insertIcSt11char_traitsIcEERSt13basic_ostreamIT_T0_ES6_PKS3_l@plt>
    480d:	49 8b 06             	mov    (%r14),%rax
    4810:	48 8b 40 e8          	mov    -0x18(%rax),%rax
    4814:	4d 8b ac 06 f0 00 00 	mov    0xf0(%r14,%rax,1),%r13
    481b:	00 
    481c:	4d 85 ed             	test   %r13,%r13
    481f:	0f 84 c8 34 00 00    	je     7ced <main+0x479d>
    4825:	41 80 7d 38 00       	cmpb   $0x0,0x38(%r13)
    482a:	74 07                	je     4833 <main+0x12e3>
    482c:	41 0f b6 45 43       	movzbl 0x43(%r13),%eax
    4831:	eb 17                	jmp    484a <main+0x12fa>
    4833:	4c 89 ef             	mov    %r13,%rdi
    4836:	e8 05 d9 ff ff       	call   2140 <_ZNKSt5ctypeIcE13_M_widen_initEv@plt>
    483b:	49 8b 45 00          	mov    0x0(%r13),%rax
    483f:	4c 89 ef             	mov    %r13,%rdi
    4842:	be 0a 00 00 00       	mov    $0xa,%esi
    4847:	ff 50 30             	call   *0x30(%rax)
    484a:	0f be f0             	movsbl %al,%esi
    484d:	4c 89 f7             	mov    %r14,%rdi
    4850:	e8 db d7 ff ff       	call   2030 <_ZNSo3putEc@plt>
    4855:	48 89 c7             	mov    %rax,%rdi
    4858:	e8 63 d8 ff ff       	call   20c0 <_ZNSo5flushEv@plt>
    485d:	49 89 de             	mov    %rbx,%r14
    4860:	48 8b 7c 24 20       	mov    0x20(%rsp),%rdi
    4865:	48 8d 44 24 30       	lea    0x30(%rsp),%rax
    486a:	48 39 c7             	cmp    %rax,%rdi
    486d:	74 0d                	je     487c <main+0x132c>
    486f:	48 8b 74 24 30       	mov    0x30(%rsp),%rsi
    4874:	48 ff c6             	inc    %rsi
    4877:	e8 94 d8 ff ff       	call   2110 <_ZdlPvm@plt>
    487c:	48 8b 1d 15 67 00 00 	mov    0x6715(%rip),%rbx        # af98 <_ZTTNSt7__cxx1118basic_stringstreamIcSt11char_traitsIcESaIcEEE@GLIBCXX_3.4.21>
    4883:	48 8b 03             	mov    (%rbx),%rax
    4886:	48 8b 4b 40          	mov    0x40(%rbx),%rcx
    488a:	48 89 84 24 20 01 00 	mov    %rax,0x120(%rsp)
    4891:	00 
    4892:	48 8b 40 e8          	mov    -0x18(%rax),%rax
    4896:	48 89 8c 04 20 01 00 	mov    %rcx,0x120(%rsp,%rax,1)
    489d:	00 
    489e:	48 8b 43 48          	mov    0x48(%rbx),%rax
    48a2:	48 89 84 24 30 01 00 	mov    %rax,0x130(%rsp)
    48a9:	00 
    48aa:	48 8b 05 2f 67 00 00 	mov    0x672f(%rip),%rax        # afe0 <_ZTVNSt7__cxx1115basic_stringbufIcSt11char_traitsIcESaIcEEE@GLIBCXX_3.4.21>
    48b1:	48 83 c0 10          	add    $0x10,%rax
    48b5:	48 89 84 24 38 01 00 	mov    %rax,0x138(%rsp)
    48bc:	00 
    48bd:	48 8b bc 24 80 01 00 	mov    0x180(%rsp),%rdi
    48c4:	00 
    48c5:	48 8d 84 24 90 01 00 	lea    0x190(%rsp),%rax
    48cc:	00 
    48cd:	48 39 c7             	cmp    %rax,%rdi
    48d0:	74 10                	je     48e2 <main+0x1392>
    48d2:	48 8b b4 24 90 01 00 	mov    0x190(%rsp),%rsi
    48d9:	00 
    48da:	48 ff c6             	inc    %rsi
    48dd:	e8 2e d8 ff ff       	call   2110 <_ZdlPvm@plt>
    48e2:	48 8b 05 bf 66 00 00 	mov    0x66bf(%rip),%rax        # afa8 <_ZTVSt15basic_streambufIcSt11char_traitsIcEE@GLIBCXX_3.4>
    48e9:	48 83 c0 10          	add    $0x10,%rax
    48ed:	48 89 84 24 38 01 00 	mov    %rax,0x138(%rsp)
    48f4:	00 
    48f5:	48 8d bc 24 70 01 00 	lea    0x170(%rsp),%rdi
    48fc:	00 
    48fd:	e8 9e d8 ff ff       	call   21a0 <_ZNSt6localeD1Ev@plt>
    4902:	48 8b 43 10          	mov    0x10(%rbx),%rax
    4906:	48 8b 4b 18          	mov    0x18(%rbx),%rcx
    490a:	48 89 84 24 20 01 00 	mov    %rax,0x120(%rsp)
    4911:	00 
    4912:	48 8b 40 e8          	mov    -0x18(%rax),%rax
    4916:	48 89 8c 04 20 01 00 	mov    %rcx,0x120(%rsp,%rax,1)
    491d:	00 
    491e:	48 c7 84 24 28 01 00 	movq   $0x0,0x128(%rsp)
    4925:	00 00 00 00 00 
    492a:	48 8d bc 24 a0 01 00 	lea    0x1a0(%rsp),%rdi
    4931:	00 
    4932:	e8 19 d7 ff ff       	call   2050 <_ZNSt8ios_baseD2Ev@plt>
    4937:	be 50 00 00 00       	mov    $0x50,%esi
    493c:	4c 89 f7             	mov    %r14,%rdi
    493f:	e8 cc d7 ff ff       	call   2110 <_ZdlPvm@plt>
    4944:	41 89 e9             	mov    %ebp,%r9d
    4947:	4d 85 e4             	test   %r12,%r12
    494a:	48 8b 1c 24          	mov    (%rsp),%rbx
    494e:	0f 84 19 03 00 00    	je     4c6d <main+0x171d>
    4954:	49 8d 44 24 ff       	lea    -0x1(%r12),%rax
    4959:	44 89 e1             	mov    %r12d,%ecx
    495c:	83 e1 e0             	and    $0xffffffe0,%ecx
    495f:	44 89 e2             	mov    %r12d,%edx
    4962:	83 e2 fc             	and    $0xfffffffc,%edx
    4965:	48 89 d6             	mov    %rdx,%rsi
    4968:	48 f7 de             	neg    %rsi
    496b:	31 ff                	xor    %edi,%edi
    496d:	45 31 c0             	xor    %r8d,%r8d
    4970:	41 89 e9             	mov    %ebp,%r9d
    4973:	eb 1a                	jmp    498f <main+0x143f>
    4975:	66 66 2e 0f 1f 84 00 	data16 cs nopw 0x0(%rax,%rax,1)
    497c:	00 00 00 00 
    4980:	41 ff c0             	inc    %r8d
    4983:	4c 01 e7             	add    %r12,%rdi
    4986:	45 39 e0             	cmp    %r12d,%r8d
    4989:	0f 84 de 02 00 00    	je     4c6d <main+0x171d>
    498f:	41 83 fc 03          	cmp    $0x3,%r12d
    4993:	76 22                	jbe    49b7 <main+0x1467>
    4995:	49 89 c2             	mov    %rax,%r10
    4998:	49 c1 ea 20          	shr    $0x20,%r10
    499c:	41 0f 95 c2          	setne  %r10b
    49a0:	45 89 e3             	mov    %r12d,%r11d
    49a3:	45 0f af d8          	imul   %r8d,%r11d
    49a7:	41 01 c3             	add    %eax,%r11d
    49aa:	41 0f 92 c3          	setb   %r11b
    49ae:	45 08 d3             	or     %r10b,%r11b
    49b1:	0f 84 b9 01 00 00    	je     4b70 <main+0x1620>
    49b7:	45 31 db             	xor    %r11d,%r11d
    49ba:	44 89 e3             	mov    %r12d,%ebx
    49bd:	44 29 db             	sub    %r11d,%ebx
    49c0:	4d 89 da             	mov    %r11,%r10
    49c3:	83 e3 07             	and    $0x7,%ebx
    49c6:	74 1f                	je     49e7 <main+0x1497>
    49c8:	0f 1f 84 00 00 00 00 	nopl   0x0(%rax,%rax,1)
    49cf:	00 
    49d0:	46 8d 34 17          	lea    (%rdi,%r10,1),%r14d
    49d4:	47 8b 34 b7          	mov    (%r15,%r14,4),%r14d
    49d8:	45 39 ce             	cmp    %r9d,%r14d
    49db:	45 0f 42 ce          	cmovb  %r14d,%r9d
    49df:	49 ff c2             	inc    %r10
    49e2:	48 ff cb             	dec    %rbx
    49e5:	75 e9                	jne    49d0 <main+0x1480>
    49e7:	4d 29 e3             	sub    %r12,%r11
    49ea:	49 83 fb f8          	cmp    $0xfffffffffffffff8,%r11
    49ee:	48 8b 1c 24          	mov    (%rsp),%rbx
    49f2:	76 19                	jbe    4a0d <main+0x14bd>
    49f4:	eb 8a                	jmp    4980 <main+0x1430>
    49f6:	66 2e 0f 1f 84 00 00 	cs nopw 0x0(%rax,%rax,1)
    49fd:	00 00 00 
    4a00:	49 83 c2 08          	add    $0x8,%r10
    4a04:	4d 39 d4             	cmp    %r10,%r12
    4a07:	0f 84 73 ff ff ff    	je     4980 <main+0x1430>
    4a0d:	46 8d 1c 17          	lea    (%rdi,%r10,1),%r11d
    4a11:	47 8b 1c 9f          	mov    (%r15,%r11,4),%r11d
    4a15:	45 39 cb             	cmp    %r9d,%r11d
    4a18:	0f 83 a2 00 00 00    	jae    4ac0 <main+0x1570>
    4a1e:	46 8d 0c 17          	lea    (%rdi,%r10,1),%r9d
    4a22:	41 ff c1             	inc    %r9d
    4a25:	47 8b 0c 8f          	mov    (%r15,%r9,4),%r9d
    4a29:	45 39 d9             	cmp    %r11d,%r9d
    4a2c:	0f 83 a5 00 00 00    	jae    4ad7 <main+0x1587>
    4a32:	46 8d 1c 17          	lea    (%rdi,%r10,1),%r11d
    4a36:	41 83 c3 02          	add    $0x2,%r11d
    4a3a:	47 8b 1c 9f          	mov    (%r15,%r11,4),%r11d
    4a3e:	45 39 cb             	cmp    %r9d,%r11d
    4a41:	0f 83 a8 00 00 00    	jae    4aef <main+0x159f>
    4a47:	46 8d 0c 17          	lea    (%rdi,%r10,1),%r9d
    4a4b:	41 83 c1 03          	add    $0x3,%r9d
    4a4f:	47 8b 0c 8f          	mov    (%r15,%r9,4),%r9d
    4a53:	45 39 d9             	cmp    %r11d,%r9d
    4a56:	0f 83 ab 00 00 00    	jae    4b07 <main+0x15b7>
    4a5c:	46 8d 1c 17          	lea    (%rdi,%r10,1),%r11d
    4a60:	41 83 c3 04          	add    $0x4,%r11d
    4a64:	47 8b 1c 9f          	mov    (%r15,%r11,4),%r11d
    4a68:	45 39 cb             	cmp    %r9d,%r11d
    4a6b:	0f 83 ae 00 00 00    	jae    4b1f <main+0x15cf>
    4a71:	46 8d 0c 17          	lea    (%rdi,%r10,1),%r9d
    4a75:	41 83 c1 05          	add    $0x5,%r9d
    4a79:	47 8b 0c 8f          	mov    (%r15,%r9,4),%r9d
    4a7d:	45 39 d9             	cmp    %r11d,%r9d
    4a80:	0f 83 b1 00 00 00    	jae    4b37 <main+0x15e7>
    4a86:	46 8d 1c 17          	lea    (%rdi,%r10,1),%r11d
    4a8a:	41 83 c3 06          	add    $0x6,%r11d
    4a8e:	47 8b 1c 9f          	mov    (%r15,%r11,4),%r11d
    4a92:	45 39 cb             	cmp    %r9d,%r11d
    4a95:	0f 83 b4 00 00 00    	jae    4b4f <main+0x15ff>
    4a9b:	46 8d 0c 17          	lea    (%rdi,%r10,1),%r9d
    4a9f:	41 83 c1 07          	add    $0x7,%r9d
    4aa3:	47 8b 0c 8f          	mov    (%r15,%r9,4),%r9d
    4aa7:	45 39 d9             	cmp    %r11d,%r9d
    4aaa:	0f 82 50 ff ff ff    	jb     4a00 <main+0x14b0>
    4ab0:	e9 b2 00 00 00       	jmp    4b67 <main+0x1617>
    4ab5:	66 66 2e 0f 1f 84 00 	data16 cs nopw 0x0(%rax,%rax,1)
    4abc:	00 00 00 00 
    4ac0:	45 89 cb             	mov    %r9d,%r11d
    4ac3:	46 8d 0c 17          	lea    (%rdi,%r10,1),%r9d
    4ac7:	41 ff c1             	inc    %r9d
    4aca:	47 8b 0c 8f          	mov    (%r15,%r9,4),%r9d
    4ace:	45 39 d9             	cmp    %r11d,%r9d
    4ad1:	0f 82 5b ff ff ff    	jb     4a32 <main+0x14e2>
    4ad7:	45 89 d9             	mov    %r11d,%r9d
    4ada:	46 8d 1c 17          	lea    (%rdi,%r10,1),%r11d
    4ade:	41 83 c3 02          	add    $0x2,%r11d
    4ae2:	47 8b 1c 9f          	mov    (%r15,%r11,4),%r11d
    4ae6:	45 39 cb             	cmp    %r9d,%r11d
    4ae9:	0f 82 58 ff ff ff    	jb     4a47 <main+0x14f7>
    4aef:	45 89 cb             	mov    %r9d,%r11d
    4af2:	46 8d 0c 17          	lea    (%rdi,%r10,1),%r9d
    4af6:	41 83 c1 03          	add    $0x3,%r9d
    4afa:	47 8b 0c 8f          	mov    (%r15,%r9,4),%r9d
    4afe:	45 39 d9             	cmp    %r11d,%r9d
    4b01:	0f 82 55 ff ff ff    	jb     4a5c <main+0x150c>
    4b07:	45 89 d9             	mov    %r11d,%r9d
    4b0a:	46 8d 1c 17          	lea    (%rdi,%r10,1),%r11d
    4b0e:	41 83 c3 04          	add    $0x4,%r11d
    4b12:	47 8b 1c 9f          	mov    (%r15,%r11,4),%r11d
    4b16:	45 39 cb             	cmp    %r9d,%r11d
    4b19:	0f 82 52 ff ff ff    	jb     4a71 <main+0x1521>
    4b1f:	45 89 cb             	mov    %r9d,%r11d
    4b22:	46 8d 0c 17          	lea    (%rdi,%r10,1),%r9d
    4b26:	41 83 c1 05          	add    $0x5,%r9d
    4b2a:	47 8b 0c 8f          	mov    (%r15,%r9,4),%r9d
    4b2e:	45 39 d9             	cmp    %r11d,%r9d
    4b31:	0f 82 4f ff ff ff    	jb     4a86 <main+0x1536>
    4b37:	45 89 d9             	mov    %r11d,%r9d
    4b3a:	46 8d 1c 17          	lea    (%rdi,%r10,1),%r11d
    4b3e:	41 83 c3 06          	add    $0x6,%r11d
    4b42:	47 8b 1c 9f          	mov    (%r15,%r11,4),%r11d
    4b46:	45 39 cb             	cmp    %r9d,%r11d
    4b49:	0f 82 4c ff ff ff    	jb     4a9b <main+0x154b>
    4b4f:	45 89 cb             	mov    %r9d,%r11d
    4b52:	46 8d 0c 17          	lea    (%rdi,%r10,1),%r9d
    4b56:	41 83 c1 07          	add    $0x7,%r9d
    4b5a:	47 8b 0c 8f          	mov    (%r15,%r9,4),%r9d
    4b5e:	45 39 d9             	cmp    %r11d,%r9d
    4b61:	0f 82 99 fe ff ff    	jb     4a00 <main+0x14b0>
    4b67:	45 89 d9             	mov    %r11d,%r9d
    4b6a:	e9 91 fe ff ff       	jmp    4a00 <main+0x14b0>
    4b6f:	90                   	nop
    4b70:	41 83 fc 20          	cmp    $0x20,%r12d
    4b74:	73 08                	jae    4b7e <main+0x162e>
    4b76:	45 31 d2             	xor    %r10d,%r10d
    4b79:	e9 96 00 00 00       	jmp    4c14 <main+0x16c4>
    4b7e:	62 d2 7d 28 7c c1    	vpbroadcastd %r9d,%ymm0
    4b84:	41 89 f9             	mov    %edi,%r9d
    4b87:	49 89 ca             	mov    %rcx,%r10
    4b8a:	c5 fd 6f c8          	vmovdqa %ymm0,%ymm1
    4b8e:	c5 fd 6f d0          	vmovdqa %ymm0,%ymm2
    4b92:	c5 fd 6f d8          	vmovdqa %ymm0,%ymm3
    4b96:	66 2e 0f 1f 84 00 00 	cs nopw 0x0(%rax,%rax,1)
    4b9d:	00 00 00 
    4ba0:	45 89 cb             	mov    %r9d,%r11d
    4ba3:	c4 82 7d 3b 04 9f    	vpminud (%r15,%r11,4),%ymm0,%ymm0
    4ba9:	c4 82 75 3b 4c 9f 20 	vpminud 0x20(%r15,%r11,4),%ymm1,%ymm1
    4bb0:	c4 82 6d 3b 54 9f 40 	vpminud 0x40(%r15,%r11,4),%ymm2,%ymm2
    4bb7:	c4 82 65 3b 5c 9f 60 	vpminud 0x60(%r15,%r11,4),%ymm3,%ymm3
    4bbe:	41 83 c1 20          	add    $0x20,%r9d
    4bc2:	49 83 c2 e0          	add    $0xffffffffffffffe0,%r10
    4bc6:	75 d8                	jne    4ba0 <main+0x1650>
    4bc8:	c4 e2 7d 3b c1       	vpminud %ymm1,%ymm0,%ymm0
    4bcd:	c4 e2 6d 3b cb       	vpminud %ymm3,%ymm2,%ymm1
    4bd2:	c4 e2 7d 3b c1       	vpminud %ymm1,%ymm0,%ymm0
    4bd7:	c4 e3 7d 39 c1 01    	vextracti128 $0x1,%ymm0,%xmm1
    4bdd:	c4 e2 79 3b c1       	vpminud %xmm1,%xmm0,%xmm0
    4be2:	c5 f9 70 c8 ee       	vpshufd $0xee,%xmm0,%xmm1
    4be7:	c4 e2 79 3b c1       	vpminud %xmm1,%xmm0,%xmm0
    4bec:	c5 f9 70 c8 55       	vpshufd $0x55,%xmm0,%xmm1
    4bf1:	c4 e2 79 3b c1       	vpminud %xmm1,%xmm0,%xmm0
    4bf6:	c4 c1 79 7e c1       	vmovd  %xmm0,%r9d
    4bfb:	44 39 e1             	cmp    %r12d,%ecx
    4bfe:	0f 84 7c fd ff ff    	je     4980 <main+0x1430>
    4c04:	49 89 cb             	mov    %rcx,%r11
    4c07:	49 89 ca             	mov    %rcx,%r10
    4c0a:	41 f6 c4 1c          	test   $0x1c,%r12b
    4c0e:	0f 84 a6 fd ff ff    	je     49ba <main+0x146a>
    4c14:	62 d2 7d 08 7c c1    	vpbroadcastd %r9d,%xmm0
    4c1a:	4e 8d 0c 16          	lea    (%rsi,%r10,1),%r9
    4c1e:	41 01 fa             	add    %edi,%r10d
    4c21:	66 66 66 66 66 66 2e 	data16 data16 data16 data16 data16 cs nopw 0x0(%rax,%rax,1)
    4c28:	0f 1f 84 00 00 00 00 
    4c2f:	00 
    4c30:	45 89 d3             	mov    %r10d,%r11d
    4c33:	c4 82 79 3b 04 9f    	vpminud (%r15,%r11,4),%xmm0,%xmm0
    4c39:	41 83 c2 04          	add    $0x4,%r10d
    4c3d:	49 83 c1 04          	add    $0x4,%r9
    4c41:	75 ed                	jne    4c30 <main+0x16e0>
    4c43:	c5 f9 70 c8 ee       	vpshufd $0xee,%xmm0,%xmm1
    4c48:	c4 e2 79 3b c1       	vpminud %xmm1,%xmm0,%xmm0
    4c4d:	c5 f9 70 c8 55       	vpshufd $0x55,%xmm0,%xmm1
    4c52:	c4 e2 79 3b c1       	vpminud %xmm1,%xmm0,%xmm0
    4c57:	c4 c1 79 7e c1       	vmovd  %xmm0,%r9d
    4c5c:	49 89 d3             	mov    %rdx,%r11
    4c5f:	44 39 e2             	cmp    %r12d,%edx
    4c62:	0f 84 18 fd ff ff    	je     4980 <main+0x1430>
    4c68:	e9 4d fd ff ff       	jmp    49ba <main+0x146a>
    4c6d:	62 d1 5e 08 7b c1    	vcvtusi2ss %r9d,%xmm4,%xmm0
    4c73:	c5 fa 11 44 24 70    	vmovss %xmm0,0x70(%rsp)
    4c79:	c5 f8 77             	vzeroupper
    4c7c:	e8 df d4 ff ff       	call   2160 <log2f@plt>
    4c81:	c5 fa 11 44 24 10    	vmovss %xmm0,0x10(%rsp)
    4c87:	62 f1 5e 08 7b c5    	vcvtusi2ss %ebp,%xmm4,%xmm0
    4c8d:	c5 fa 5e 44 24 70    	vdivss 0x70(%rsp),%xmm0,%xmm0
    4c93:	e8 c8 d4 ff ff       	call   2160 <log2f@plt>
    4c98:	c5 f8 28 c8          	vmovaps %xmm0,%xmm1
    4c9c:	48 8b 84 24 18 01 00 	mov    0x118(%rsp),%rax
    4ca3:	00 
    4ca4:	48 85 c0             	test   %rax,%rax
    4ca7:	74 61                	je     4d0a <main+0x17ba>
    4ca9:	c5 fa 11 4c 24 70    	vmovss %xmm1,0x70(%rsp)
    4caf:	44 8d 2c 40          	lea    (%rax,%rax,2),%r13d
    4cb3:	4c 89 ef             	mov    %r13,%rdi
    4cb6:	e8 45 d4 ff ff       	call   2100 <_Znwm@plt>
    4cbb:	49 89 c6             	mov    %rax,%r14
    4cbe:	48 89 84 24 20 01 00 	mov    %rax,0x120(%rsp)
    4cc5:	00 
    4cc6:	4e 8d 3c 28          	lea    (%rax,%r13,1),%r15
    4cca:	4c 89 bc 24 30 01 00 	mov    %r15,0x130(%rsp)
    4cd1:	00 
    4cd2:	c6 00 00             	movb   $0x0,(%rax)
    4cd5:	48 89 c7             	mov    %rax,%rdi
    4cd8:	48 ff c7             	inc    %rdi
    4cdb:	49 ff cd             	dec    %r13
    4cde:	4c 89 7c 24 40       	mov    %r15,0x40(%rsp)
    4ce3:	74 0d                	je     4cf2 <main+0x17a2>
    4ce5:	31 f6                	xor    %esi,%esi
    4ce7:	4c 89 ea             	mov    %r13,%rdx
    4cea:	e8 b1 d3 ff ff       	call   20a0 <memset@plt>
    4cef:	4c 89 ff             	mov    %r15,%rdi
    4cf2:	c5 fa 10 4c 24 70    	vmovss 0x70(%rsp),%xmm1
    4cf8:	48 89 bc 24 28 01 00 	mov    %rdi,0x128(%rsp)
    4cff:	00 
    4d00:	4d 85 e4             	test   %r12,%r12
    4d03:	75 3d                	jne    4d42 <main+0x17f2>
    4d05:	e9 14 02 00 00       	jmp    4f1e <main+0x19ce>
    4d0a:	c5 f8 57 c0          	vxorps %xmm0,%xmm0,%xmm0
    4d0e:	c5 f8 29 84 24 20 01 	vmovaps %xmm0,0x120(%rsp)
    4d15:	00 00 
    4d17:	48 c7 84 24 30 01 00 	movq   $0x0,0x130(%rsp)
    4d1e:	00 00 00 00 00 
    4d23:	48 c7 44 24 40 00 00 	movq   $0x0,0x40(%rsp)
    4d2a:	00 00 
    4d2c:	45 31 f6             	xor    %r14d,%r14d
    4d2f:	31 ff                	xor    %edi,%edi
    4d31:	48 89 bc 24 28 01 00 	mov    %rdi,0x128(%rsp)
    4d38:	00 
    4d39:	4d 85 e4             	test   %r12,%r12
    4d3c:	0f 84 dc 01 00 00    	je     4f1e <main+0x19ce>
    4d42:	44 89 e0             	mov    %r12d,%eax
    4d45:	83 e0 fe             	and    $0xfffffffe,%eax
    4d48:	48 89 84 24 c0 00 00 	mov    %rax,0xc0(%rsp)
    4d4f:	00 
    4d50:	c5 fa 10 05 ac 42 00 	vmovss 0x42ac(%rip),%xmm0        # 9004 <_IO_stdin_used+0x4>
    4d57:	00 
    4d58:	c5 fa 5e c1          	vdivss %xmm1,%xmm0,%xmm0
    4d5c:	c5 fa 11 44 24 70    	vmovss %xmm0,0x70(%rsp)
    4d62:	47 8d 2c 64          	lea    (%r12,%r12,2),%r13d
    4d66:	31 c0                	xor    %eax,%eax
    4d68:	b9 05 00 00 00       	mov    $0x5,%ecx
    4d6d:	c7 44 24 50 01 00 00 	movl   $0x1,0x50(%rsp)
    4d74:	00 
    4d75:	44 89 6c 24 60       	mov    %r13d,0x60(%rsp)
    4d7a:	eb 63                	jmp    4ddf <main+0x188f>
    4d7c:	0f 1f 40 00          	nopl   0x0(%rax)
    4d80:	62 f1 5e 08 7b c0    	vcvtusi2ss %eax,%xmm4,%xmm0
    4d86:	e8 d5 d3 ff ff       	call   2160 <log2f@plt>
    4d8b:	c5 fa 5c 44 24 10    	vsubss 0x10(%rsp),%xmm0,%xmm0
    4d91:	c5 fa 59 05 83 42 00 	vmulss 0x4283(%rip),%xmm0,%xmm0        # 901c <_IO_stdin_used+0x1c>
    4d98:	00 
    4d99:	c5 fa 59 44 24 70    	vmulss 0x70(%rsp),%xmm0,%xmm0
    4d9f:	c5 fa 2c c0          	vcvttss2si %xmm0,%eax
    4da3:	04 20                	add    $0x20,%al
    4da5:	b1 20                	mov    $0x20,%cl
    4da7:	8d 14 5b             	lea    (%rbx,%rbx,2),%edx
    4daa:	41 88 0c 16          	mov    %cl,(%r14,%rdx,1)
    4dae:	8d 14 5b             	lea    (%rbx,%rbx,2),%edx
    4db1:	ff c2                	inc    %edx
    4db3:	41 88 04 16          	mov    %al,(%r14,%rdx,1)
    4db7:	8d 44 5b 02          	lea    0x2(%rbx,%rbx,2),%eax
    4dbb:	41 88 0c 06          	mov    %cl,(%r14,%rax,1)
    4dbf:	48 8b 1c 24          	mov    (%rsp),%rbx
    4dc3:	48 8b 44 24 18       	mov    0x18(%rsp),%rax
    4dc8:	8b 4c 24 48          	mov    0x48(%rsp),%ecx
    4dcc:	ff c0                	inc    %eax
    4dce:	44 01 e9             	add    %r13d,%ecx
    4dd1:	44 01 64 24 50       	add    %r12d,0x50(%rsp)
    4dd6:	44 39 e0             	cmp    %r12d,%eax
    4dd9:	0f 84 3f 01 00 00    	je     4f1e <main+0x19ce>
    4ddf:	41 bf 00 00 00 00    	mov    $0x0,%r15d
    4de5:	49 83 fc 01          	cmp    $0x1,%r12
    4de9:	48 89 44 24 18       	mov    %rax,0x18(%rsp)
    4dee:	89 4c 24 48          	mov    %ecx,0x48(%rsp)
    4df2:	0f 84 fa 00 00 00    	je     4ef2 <main+0x19a2>
    4df8:	44 8b 6c 24 50       	mov    0x50(%rsp),%r13d
    4dfd:	89 cb                	mov    %ecx,%ebx
    4dff:	45 31 ff             	xor    %r15d,%r15d
    4e02:	eb 60                	jmp    4e64 <main+0x1914>
    4e04:	66 66 66 2e 0f 1f 84 	data16 data16 cs nopw 0x0(%rax,%rax,1)
    4e0b:	00 00 00 00 00 
    4e10:	62 f1 5e 08 7b c0    	vcvtusi2ss %eax,%xmm4,%xmm0
    4e16:	e8 45 d3 ff ff       	call   2160 <log2f@plt>
    4e1b:	c5 fa 5c 44 24 10    	vsubss 0x10(%rsp),%xmm0,%xmm0
    4e21:	c5 fa 59 05 f3 41 00 	vmulss 0x41f3(%rip),%xmm0,%xmm0        # 901c <_IO_stdin_used+0x1c>
    4e28:	00 
    4e29:	c5 fa 59 44 24 70    	vmulss 0x70(%rsp),%xmm0,%xmm0
    4e2f:	c5 fa 2c c0          	vcvttss2si %xmm0,%eax
    4e33:	04 20                	add    $0x20,%al
    4e35:	b1 20                	mov    $0x20,%cl
    4e37:	8d 53 fe             	lea    -0x2(%rbx),%edx
    4e3a:	41 88 0c 16          	mov    %cl,(%r14,%rdx,1)
    4e3e:	8d 53 ff             	lea    -0x1(%rbx),%edx
    4e41:	41 88 04 16          	mov    %al,(%r14,%rdx,1)
    4e45:	89 d8                	mov    %ebx,%eax
    4e47:	41 88 0c 06          	mov    %cl,(%r14,%rax,1)
    4e4b:	49 83 c7 02          	add    $0x2,%r15
    4e4f:	83 c3 06             	add    $0x6,%ebx
    4e52:	41 83 c5 02          	add    $0x2,%r13d
    4e56:	4c 39 bc 24 c0 00 00 	cmp    %r15,0xc0(%rsp)
    4e5d:	00 
    4e5e:	0f 84 7c 00 00 00    	je     4ee0 <main+0x1990>
    4e64:	41 8d 45 ff          	lea    -0x1(%r13),%eax
    4e68:	48 8b 4c 24 08       	mov    0x8(%rsp),%rcx
    4e6d:	8b 04 81             	mov    (%rcx,%rax,4),%eax
    4e70:	39 e8                	cmp    %ebp,%eax
    4e72:	73 2c                	jae    4ea0 <main+0x1950>
    4e74:	62 f1 5e 08 7b c0    	vcvtusi2ss %eax,%xmm4,%xmm0
    4e7a:	e8 e1 d2 ff ff       	call   2160 <log2f@plt>
    4e7f:	c5 fa 5c 44 24 10    	vsubss 0x10(%rsp),%xmm0,%xmm0
    4e85:	c5 fa 59 05 8f 41 00 	vmulss 0x418f(%rip),%xmm0,%xmm0        # 901c <_IO_stdin_used+0x1c>
    4e8c:	00 
    4e8d:	c5 fa 59 44 24 70    	vmulss 0x70(%rsp),%xmm0,%xmm0
    4e93:	c5 fa 2c c0          	vcvttss2si %xmm0,%eax
    4e97:	04 20                	add    $0x20,%al
    4e99:	b1 20                	mov    $0x20,%cl
    4e9b:	eb 07                	jmp    4ea4 <main+0x1954>
    4e9d:	0f 1f 00             	nopl   (%rax)
    4ea0:	31 c0                	xor    %eax,%eax
    4ea2:	31 c9                	xor    %ecx,%ecx
    4ea4:	8d 53 fb             	lea    -0x5(%rbx),%edx
    4ea7:	41 88 0c 16          	mov    %cl,(%r14,%rdx,1)
    4eab:	8d 53 fc             	lea    -0x4(%rbx),%edx
    4eae:	41 88 04 16          	mov    %al,(%r14,%rdx,1)
    4eb2:	8d 43 fd             	lea    -0x3(%rbx),%eax
    4eb5:	41 88 0c 06          	mov    %cl,(%r14,%rax,1)
    4eb9:	44 89 e8             	mov    %r13d,%eax
    4ebc:	48 8b 4c 24 08       	mov    0x8(%rsp),%rcx
    4ec1:	8b 04 81             	mov    (%rcx,%rax,4),%eax
    4ec4:	39 e8                	cmp    %ebp,%eax
    4ec6:	0f 82 44 ff ff ff    	jb     4e10 <main+0x18c0>
    4ecc:	31 c0                	xor    %eax,%eax
    4ece:	31 c9                	xor    %ecx,%ecx
    4ed0:	e9 62 ff ff ff       	jmp    4e37 <main+0x18e7>
    4ed5:	66 66 2e 0f 1f 84 00 	data16 cs nopw 0x0(%rax,%rax,1)
    4edc:	00 00 00 00 
    4ee0:	48 8b 1c 24          	mov    (%rsp),%rbx
    4ee4:	44 8b 6c 24 60       	mov    0x60(%rsp),%r13d
    4ee9:	48 8b 44 24 18       	mov    0x18(%rsp),%rax
    4eee:	8b 4c 24 48          	mov    0x48(%rsp),%ecx
    4ef2:	41 f6 c4 01          	test   $0x1,%r12b
    4ef6:	0f 84 d0 fe ff ff    	je     4dcc <main+0x187c>
    4efc:	89 c3                	mov    %eax,%ebx
    4efe:	41 0f af dc          	imul   %r12d,%ebx
    4f02:	44 01 fb             	add    %r15d,%ebx
    4f05:	48 8b 44 24 08       	mov    0x8(%rsp),%rax
    4f0a:	8b 04 98             	mov    (%rax,%rbx,4),%eax
    4f0d:	39 e8                	cmp    %ebp,%eax
    4f0f:	0f 82 6b fe ff ff    	jb     4d80 <main+0x1830>
    4f15:	31 c0                	xor    %eax,%eax
    4f17:	31 c9                	xor    %ecx,%ecx
    4f19:	e9 89 fe ff ff       	jmp    4da7 <main+0x1857>
    4f1e:	48 8d 3d a1 43 00 00 	lea    0x43a1(%rip),%rdi        # 92c6 <_IO_stdin_used+0x2c6>
    4f25:	48 8d 94 24 20 01 00 	lea    0x120(%rsp),%rdx
    4f2c:	00 
    4f2d:	44 89 e6             	mov    %r12d,%esi
    4f30:	e8 fb db ff ff       	call   2b30 <_Z8writeBMPPKcjRKSt6vectorIhSaIhEE>
    4f35:	4d 85 f6             	test   %r14,%r14
    4f38:	4c 8b 7c 24 08       	mov    0x8(%rsp),%r15
    4f3d:	74 10                	je     4f4f <main+0x19ff>
    4f3f:	48 8b 74 24 40       	mov    0x40(%rsp),%rsi
    4f44:	4c 29 f6             	sub    %r14,%rsi
    4f47:	4c 89 f7             	mov    %r14,%rdi
    4f4a:	e8 c1 d1 ff ff       	call   2110 <_ZdlPvm@plt>
    4f4f:	48 8b 3d 62 60 00 00 	mov    0x6062(%rip),%rdi        # afb8 <_ZSt4cout@GLIBCXX_3.4>
    4f56:	48 8d 35 8b 43 00 00 	lea    0x438b(%rip),%rsi        # 92e8 <_IO_stdin_used+0x2e8>
    4f5d:	ba 3a 00 00 00       	mov    $0x3a,%edx
    4f62:	e8 c9 d1 ff ff       	call   2130 <_ZSt16__ostream_insertIcSt11char_traitsIcEERSt13basic_ostreamIT_T0_ES6_PKS3_l@plt>
    4f67:	4d 85 e4             	test   %r12,%r12
    4f6a:	0f 84 db 02 00 00    	je     524b <main+0x1cfb>
    4f70:	49 8d 44 24 ff       	lea    -0x1(%r12),%rax
    4f75:	44 89 e1             	mov    %r12d,%ecx
    4f78:	83 e1 f0             	and    $0xfffffff0,%ecx
    4f7b:	48 89 4c 24 10       	mov    %rcx,0x10(%rsp)
    4f80:	44 89 e1             	mov    %r12d,%ecx
    4f83:	83 e1 fc             	and    $0xfffffffc,%ecx
    4f86:	44 89 e6             	mov    %r12d,%esi
    4f89:	83 e6 03             	and    $0x3,%esi
    4f8c:	48 89 4c 24 70       	mov    %rcx,0x70(%rsp)
    4f91:	48 f7 d9             	neg    %rcx
    4f94:	48 89 8c 24 c0 00 00 	mov    %rcx,0xc0(%rsp)
    4f9b:	00 
    4f9c:	45 31 c0             	xor    %r8d,%r8d
    4f9f:	45 31 c9             	xor    %r9d,%r9d
    4fa2:	45 31 d2             	xor    %r10d,%r10d
    4fa5:	eb 1b                	jmp    4fc2 <main+0x1a72>
    4fa7:	48 8b 0c 24          	mov    (%rsp),%rcx
    4fab:	0f 1f 44 00 00       	nopl   0x0(%rax,%rax,1)
    4fb0:	41 ff c1             	inc    %r9d
    4fb3:	4d 01 e0             	add    %r12,%r8
    4fb6:	45 39 e1             	cmp    %r12d,%r9d
    4fb9:	48 89 cb             	mov    %rcx,%rbx
    4fbc:	0f 84 82 02 00 00    	je     5244 <main+0x1cf4>
    4fc2:	41 83 fc 03          	cmp    $0x3,%r12d
    4fc6:	76 22                	jbe    4fea <main+0x1a9a>
    4fc8:	48 89 c7             	mov    %rax,%rdi
    4fcb:	48 c1 ef 20          	shr    $0x20,%rdi
    4fcf:	40 0f 95 c7          	setne  %dil
    4fd3:	45 89 e3             	mov    %r12d,%r11d
    4fd6:	45 0f af d9          	imul   %r9d,%r11d
    4fda:	41 01 c3             	add    %eax,%r11d
    4fdd:	41 0f 92 c3          	setb   %r11b
    4fe1:	41 08 fb             	or     %dil,%r11b
    4fe4:	0f 84 06 01 00 00    	je     50f0 <main+0x1ba0>
    4fea:	31 db                	xor    %ebx,%ebx
    4fec:	48 85 f6             	test   %rsi,%rsi
    4fef:	74 4f                	je     5040 <main+0x1af0>
    4ff1:	49 89 f6             	mov    %rsi,%r14
    4ff4:	49 89 db             	mov    %rbx,%r11
    4ff7:	48 8b 54 24 08       	mov    0x8(%rsp),%rdx
    4ffc:	48 8b 0c 24          	mov    (%rsp),%rcx
    5000:	47 8d 3c 18          	lea    (%r8,%r11,1),%r15d
    5004:	42 8b 3c ba          	mov    (%rdx,%r15,4),%edi
    5008:	46 8b 3c b9          	mov    (%rcx,%r15,4),%r15d
    500c:	41 89 fd             	mov    %edi,%r13d
    500f:	45 29 fd             	sub    %r15d,%r13d
    5012:	41 29 ff             	sub    %edi,%r15d
    5015:	45 0f 4c fd          	cmovl  %r13d,%r15d
    5019:	4d 01 fa             	add    %r15,%r10
    501c:	49 ff c3             	inc    %r11
    501f:	49 ff ce             	dec    %r14
    5022:	75 dc                	jne    5000 <main+0x1ab0>
    5024:	4c 29 e3             	sub    %r12,%rbx
    5027:	48 83 fb fc          	cmp    $0xfffffffffffffffc,%rbx
    502b:	49 89 d7             	mov    %rdx,%r15
    502e:	76 30                	jbe    5060 <main+0x1b10>
    5030:	e9 7b ff ff ff       	jmp    4fb0 <main+0x1a60>
    5035:	66 66 2e 0f 1f 84 00 	data16 cs nopw 0x0(%rax,%rax,1)
    503c:	00 00 00 00 
    5040:	49 89 db             	mov    %rbx,%r11
    5043:	48 8b 54 24 08       	mov    0x8(%rsp),%rdx
    5048:	48 8b 0c 24          	mov    (%rsp),%rcx
    504c:	4c 29 e3             	sub    %r12,%rbx
    504f:	48 83 fb fc          	cmp    $0xfffffffffffffffc,%rbx
    5053:	49 89 d7             	mov    %rdx,%r15
    5056:	0f 87 54 ff ff ff    	ja     4fb0 <main+0x1a60>
    505c:	0f 1f 40 00          	nopl   0x0(%rax)
    5060:	43 8d 3c 18          	lea    (%r8,%r11,1),%edi
    5064:	45 8b 34 bf          	mov    (%r15,%rdi,4),%r14d
    5068:	8b 1c b9             	mov    (%rcx,%rdi,4),%ebx
    506b:	44 89 f7             	mov    %r14d,%edi
    506e:	29 df                	sub    %ebx,%edi
    5070:	44 29 f3             	sub    %r14d,%ebx
    5073:	0f 4c df             	cmovl  %edi,%ebx
    5076:	4c 01 d3             	add    %r10,%rbx
    5079:	43 8d 3c 18          	lea    (%r8,%r11,1),%edi
    507d:	ff c7                	inc    %edi
    507f:	45 8b 14 bf          	mov    (%r15,%rdi,4),%r10d
    5083:	8b 3c b9             	mov    (%rcx,%rdi,4),%edi
    5086:	45 89 d6             	mov    %r10d,%r14d
    5089:	41 29 fe             	sub    %edi,%r14d
    508c:	44 29 d7             	sub    %r10d,%edi
    508f:	41 0f 4c fe          	cmovl  %r14d,%edi
    5093:	47 8d 54 18 02       	lea    0x2(%r8,%r11,1),%r10d
    5098:	47 8b 34 97          	mov    (%r15,%r10,4),%r14d
    509c:	46 8b 3c 91          	mov    (%rcx,%r10,4),%r15d
    50a0:	45 89 f2             	mov    %r14d,%r10d
    50a3:	45 29 fa             	sub    %r15d,%r10d
    50a6:	45 29 f7             	sub    %r14d,%r15d
    50a9:	45 0f 4c fa          	cmovl  %r10d,%r15d
    50ad:	49 01 ff             	add    %rdi,%r15
    50b0:	49 01 df             	add    %rbx,%r15
    50b3:	43 8d 3c 18          	lea    (%r8,%r11,1),%edi
    50b7:	83 c7 03             	add    $0x3,%edi
    50ba:	48 8b 54 24 08       	mov    0x8(%rsp),%rdx
    50bf:	8b 1c ba             	mov    (%rdx,%rdi,4),%ebx
    50c2:	44 8b 14 b9          	mov    (%rcx,%rdi,4),%r10d
    50c6:	89 df                	mov    %ebx,%edi
    50c8:	44 29 d7             	sub    %r10d,%edi
    50cb:	41 29 da             	sub    %ebx,%r10d
    50ce:	44 0f 4c d7          	cmovl  %edi,%r10d
    50d2:	4d 01 fa             	add    %r15,%r10
    50d5:	4c 8b 7c 24 08       	mov    0x8(%rsp),%r15
    50da:	49 83 c3 04          	add    $0x4,%r11
    50de:	4d 39 dc             	cmp    %r11,%r12
    50e1:	0f 85 79 ff ff ff    	jne    5060 <main+0x1b10>
    50e7:	e9 c4 fe ff ff       	jmp    4fb0 <main+0x1a60>
    50ec:	0f 1f 40 00          	nopl   0x0(%rax)
    50f0:	41 83 fc 10          	cmp    $0x10,%r12d
    50f4:	73 0b                	jae    5101 <main+0x1bb1>
    50f6:	45 31 db             	xor    %r11d,%r11d
    50f9:	48 89 d9             	mov    %rbx,%rcx
    50fc:	e9 d9 00 00 00       	jmp    51da <main+0x1c8a>
    5101:	c4 c1 f9 6e c2       	vmovq  %r10,%xmm0
    5106:	c5 f0 57 c9          	vxorps %xmm1,%xmm1,%xmm1
    510a:	45 89 c2             	mov    %r8d,%r10d
    510d:	4c 8b 5c 24 10       	mov    0x10(%rsp),%r11
    5112:	c5 e8 57 d2          	vxorps %xmm2,%xmm2,%xmm2
    5116:	c5 e0 57 db          	vxorps %xmm3,%xmm3,%xmm3
    511a:	66 0f 1f 44 00 00    	nopw   0x0(%rax,%rax,1)
    5120:	44 89 d7             	mov    %r10d,%edi
    5123:	c4 c1 7a 6f 24 bf    	vmovdqu (%r15,%rdi,4),%xmm4
    5129:	c4 c1 7a 6f 6c bf 10 	vmovdqu 0x10(%r15,%rdi,4),%xmm5
    5130:	c4 c1 7a 6f 74 bf 20 	vmovdqu 0x20(%r15,%rdi,4),%xmm6
    5137:	c4 c1 7a 6f 7c bf 30 	vmovdqu 0x30(%r15,%rdi,4),%xmm7
    513e:	c5 d9 fa 24 bb       	vpsubd (%rbx,%rdi,4),%xmm4,%xmm4
    5143:	c5 d1 fa 6c bb 10    	vpsubd 0x10(%rbx,%rdi,4),%xmm5,%xmm5
    5149:	c5 c9 fa 74 bb 20    	vpsubd 0x20(%rbx,%rdi,4),%xmm6,%xmm6
    514f:	c5 c1 fa 7c bb 30    	vpsubd 0x30(%rbx,%rdi,4),%xmm7,%xmm7
    5155:	c4 e2 79 1e e4       	vpabsd %xmm4,%xmm4
    515a:	c4 e2 79 1e ed       	vpabsd %xmm5,%xmm5
    515f:	c4 e2 79 1e f6       	vpabsd %xmm6,%xmm6
    5164:	c4 e2 79 1e ff       	vpabsd %xmm7,%xmm7
    5169:	c4 e2 7d 35 e4       	vpmovzxdq %xmm4,%ymm4
    516e:	c5 fd d4 c4          	vpaddq %ymm4,%ymm0,%ymm0
    5172:	c4 e2 7d 35 e5       	vpmovzxdq %xmm5,%ymm4
    5177:	c5 f5 d4 cc          	vpaddq %ymm4,%ymm1,%ymm1
    517b:	c4 e2 7d 35 e6       	vpmovzxdq %xmm6,%ymm4
    5180:	c5 ed d4 d4          	vpaddq %ymm4,%ymm2,%ymm2
    5184:	c4 e2 7d 35 e7       	vpmovzxdq %xmm7,%ymm4
    5189:	c5 e5 d4 dc          	vpaddq %ymm4,%ymm3,%ymm3
    518d:	41 83 c2 10          	add    $0x10,%r10d
    5191:	49 83 c3 f0          	add    $0xfffffffffffffff0,%r11
    5195:	75 89                	jne    5120 <main+0x1bd0>
    5197:	c5 f5 d4 c0          	vpaddq %ymm0,%ymm1,%ymm0
    519b:	c5 ed d4 c0          	vpaddq %ymm0,%ymm2,%ymm0
    519f:	c5 e5 d4 c0          	vpaddq %ymm0,%ymm3,%ymm0
    51a3:	c4 e3 7d 39 c1 01    	vextracti128 $0x1,%ymm0,%xmm1
    51a9:	c5 f9 d4 c1          	vpaddq %xmm1,%xmm0,%xmm0
    51ad:	c5 f9 70 c8 ee       	vpshufd $0xee,%xmm0,%xmm1
    51b2:	c5 f9 d4 c1          	vpaddq %xmm1,%xmm0,%xmm0
    51b6:	c4 c1 f9 7e c2       	vmovq  %xmm0,%r10
    51bb:	4c 8b 5c 24 10       	mov    0x10(%rsp),%r11
    51c0:	45 39 e3             	cmp    %r12d,%r11d
    51c3:	0f 84 de fd ff ff    	je     4fa7 <main+0x1a57>
    51c9:	4c 89 db             	mov    %r11,%rbx
    51cc:	41 f6 c4 0c          	test   $0xc,%r12b
    51d0:	48 8b 0c 24          	mov    (%rsp),%rcx
    51d4:	0f 84 12 fe ff ff    	je     4fec <main+0x1a9c>
    51da:	c4 c1 f9 6e c2       	vmovq  %r10,%xmm0
    51df:	48 8b 94 24 c0 00 00 	mov    0xc0(%rsp),%rdx
    51e6:	00 
    51e7:	4e 8d 14 1a          	lea    (%rdx,%r11,1),%r10
    51eb:	45 01 c3             	add    %r8d,%r11d
    51ee:	66 90                	xchg   %ax,%ax
    51f0:	44 89 df             	mov    %r11d,%edi
    51f3:	c4 c1 7a 6f 0c bf    	vmovdqu (%r15,%rdi,4),%xmm1
    51f9:	c5 f1 fa 0c b9       	vpsubd (%rcx,%rdi,4),%xmm1,%xmm1
    51fe:	c4 e2 79 1e c9       	vpabsd %xmm1,%xmm1
    5203:	c4 e2 7d 35 c9       	vpmovzxdq %xmm1,%ymm1
    5208:	c5 fd d4 c1          	vpaddq %ymm1,%ymm0,%ymm0
    520c:	41 83 c3 04          	add    $0x4,%r11d
    5210:	49 83 c2 04          	add    $0x4,%r10
    5214:	75 da                	jne    51f0 <main+0x1ca0>
    5216:	c4 e3 7d 39 c1 01    	vextracti128 $0x1,%ymm0,%xmm1
    521c:	c5 f9 d4 c1          	vpaddq %xmm1,%xmm0,%xmm0
    5220:	c5 f9 70 c8 ee       	vpshufd $0xee,%xmm0,%xmm1
    5225:	c5 f9 d4 c1          	vpaddq %xmm1,%xmm0,%xmm0
    5229:	c4 c1 f9 7e c2       	vmovq  %xmm0,%r10
    522e:	48 8b 54 24 70       	mov    0x70(%rsp),%rdx
    5233:	48 89 d3             	mov    %rdx,%rbx
    5236:	44 39 e2             	cmp    %r12d,%edx
    5239:	0f 84 71 fd ff ff    	je     4fb0 <main+0x1a60>
    523f:	e9 a8 fd ff ff       	jmp    4fec <main+0x1a9c>
    5244:	c4 c1 bb 2a c2       	vcvtsi2sd %r10,%xmm8,%xmm0
    5249:	eb 04                	jmp    524f <main+0x1cff>
    524b:	c5 f9 57 c0          	vxorpd %xmm0,%xmm0,%xmm0
    524f:	44 89 e0             	mov    %r12d,%eax
    5252:	0f af c5             	imul   %ebp,%eax
    5255:	41 0f af c4          	imul   %r12d,%eax
    5259:	62 f1 3f 08 7b c8    	vcvtusi2sd %eax,%xmm8,%xmm1
    525f:	c5 fb 5e c1          	vdivsd %xmm1,%xmm0,%xmm0
    5263:	48 8b 3d 4e 5d 00 00 	mov    0x5d4e(%rip),%rdi        # afb8 <_ZSt4cout@GLIBCXX_3.4>
    526a:	c5 f8 77             	vzeroupper
    526d:	e8 4e cf ff ff       	call   21c0 <_ZNSo9_M_insertIdEERSoT_@plt>
    5272:	49 89 c6             	mov    %rax,%r14
    5275:	48 8b 00             	mov    (%rax),%rax
    5278:	48 8b 40 e8          	mov    -0x18(%rax),%rax
    527c:	4d 8b ac 06 f0 00 00 	mov    0xf0(%r14,%rax,1),%r13
    5283:	00 
    5284:	4d 85 ed             	test   %r13,%r13
    5287:	0f 84 51 2a 00 00    	je     7cde <main+0x478e>
    528d:	41 80 7d 38 00       	cmpb   $0x0,0x38(%r13)
    5292:	74 07                	je     529b <main+0x1d4b>
    5294:	41 0f b6 45 43       	movzbl 0x43(%r13),%eax
    5299:	eb 17                	jmp    52b2 <main+0x1d62>
    529b:	4c 89 ef             	mov    %r13,%rdi
    529e:	e8 9d ce ff ff       	call   2140 <_ZNKSt5ctypeIcE13_M_widen_initEv@plt>
    52a3:	49 8b 45 00          	mov    0x0(%r13),%rax
    52a7:	4c 89 ef             	mov    %r13,%rdi
    52aa:	be 0a 00 00 00       	mov    $0xa,%esi
    52af:	ff 50 30             	call   *0x30(%rax)
    52b2:	0f be f0             	movsbl %al,%esi
    52b5:	4c 89 f7             	mov    %r14,%rdi
    52b8:	e8 73 cd ff ff       	call   2030 <_ZNSo3putEc@plt>
    52bd:	48 89 c7             	mov    %rax,%rdi
    52c0:	e8 fb cd ff ff       	call   20c0 <_ZNSo5flushEv@plt>
    52c5:	8b 8c 24 bc 00 00 00 	mov    0xbc(%rsp),%ecx
    52cc:	83 f9 06             	cmp    $0x6,%ecx
    52cf:	74 09                	je     52da <main+0x1d8a>
    52d1:	83 f9 03             	cmp    $0x3,%ecx
    52d4:	0f 85 e1 0d 00 00    	jne    60bb <main+0x2b6b>
    52da:	4c 89 e2             	mov    %r12,%rdx
    52dd:	49 0f af d4          	imul   %r12,%rdx
    52e1:	48 c1 e2 02          	shl    $0x2,%rdx
    52e5:	4c 89 ff             	mov    %r15,%rdi
    52e8:	31 f6                	xor    %esi,%esi
    52ea:	e8 b1 cd ff ff       	call   20a0 <memset@plt>
    52ef:	48 8b 05 c2 5c 00 00 	mov    0x5cc2(%rip),%rax        # afb8 <_ZSt4cout@GLIBCXX_3.4>
    52f6:	48 8b 08             	mov    (%rax),%rcx
    52f9:	48 8b 49 e8          	mov    -0x18(%rcx),%rcx
    52fd:	4c 8b b4 08 f0 00 00 	mov    0xf0(%rax,%rcx,1),%r14
    5304:	00 
    5305:	4d 85 f6             	test   %r14,%r14
    5308:	0f 84 d0 29 00 00    	je     7cde <main+0x478e>
    530e:	41 80 7e 38 00       	cmpb   $0x0,0x38(%r14)
    5313:	74 07                	je     531c <main+0x1dcc>
    5315:	41 0f b6 46 43       	movzbl 0x43(%r14),%eax
    531a:	eb 16                	jmp    5332 <main+0x1de2>
    531c:	4c 89 f7             	mov    %r14,%rdi
    531f:	e8 1c ce ff ff       	call   2140 <_ZNKSt5ctypeIcE13_M_widen_initEv@plt>
    5324:	49 8b 06             	mov    (%r14),%rax
    5327:	4c 89 f7             	mov    %r14,%rdi
    532a:	be 0a 00 00 00       	mov    $0xa,%esi
    532f:	ff 50 30             	call   *0x30(%rax)
    5332:	0f be f0             	movsbl %al,%esi
    5335:	48 8b 3d 7c 5c 00 00 	mov    0x5c7c(%rip),%rdi        # afb8 <_ZSt4cout@GLIBCXX_3.4>
    533c:	e8 ef cc ff ff       	call   2030 <_ZNSo3putEc@plt>
    5341:	48 89 c7             	mov    %rax,%rdi
    5344:	e8 77 cd ff ff       	call   20c0 <_ZNSo5flushEv@plt>
    5349:	49 89 c6             	mov    %rax,%r14
    534c:	48 8d 35 06 3f 00 00 	lea    0x3f06(%rip),%rsi        # 9259 <_IO_stdin_used+0x259>
    5353:	ba 08 00 00 00       	mov    $0x8,%edx
    5358:	48 89 c7             	mov    %rax,%rdi
    535b:	e8 d0 cd ff ff       	call   2130 <_ZSt16__ostream_insertIcSt11char_traitsIcEERSt13basic_ostreamIT_T0_ES6_PKS3_l@plt>
    5360:	48 8d 35 bc 3f 00 00 	lea    0x3fbc(%rip),%rsi        # 9323 <_IO_stdin_used+0x323>
    5367:	ba 1f 00 00 00       	mov    $0x1f,%edx
    536c:	4c 89 f7             	mov    %r14,%rdi
    536f:	e8 bc cd ff ff       	call   2130 <_ZSt16__ostream_insertIcSt11char_traitsIcEERSt13basic_ostreamIT_T0_ES6_PKS3_l@plt>
    5374:	48 8d 35 fd 3e 00 00 	lea    0x3efd(%rip),%rsi        # 9278 <_IO_stdin_used+0x278>
    537b:	ba 05 00 00 00       	mov    $0x5,%edx
    5380:	4c 89 f7             	mov    %r14,%rdi
    5383:	e8 a8 cd ff ff       	call   2130 <_ZSt16__ostream_insertIcSt11char_traitsIcEERSt13basic_ostreamIT_T0_ES6_PKS3_l@plt>
    5388:	bf 50 00 00 00       	mov    $0x50,%edi
    538d:	e8 6e cd ff ff       	call   2100 <_Znwm@plt>
    5392:	48 89 c3             	mov    %rax,%rbx
    5395:	c5 f8 57 c0          	vxorps %xmm0,%xmm0,%xmm0
    5399:	c5 fc 11 40 30       	vmovups %ymm0,0x30(%rax)
    539e:	c5 fc 11 40 20       	vmovups %ymm0,0x20(%rax)
    53a3:	c5 fc 11 00          	vmovups %ymm0,(%rax)
    53a7:	c5 f8 77             	vzeroupper
    53aa:	e8 91 cc ff ff       	call   2040 <_ZNSt6chrono3_V212system_clock3nowEv@plt>
    53af:	49 89 c6             	mov    %rax,%r14
    53b2:	e8 89 cc ff ff       	call   2040 <_ZNSt6chrono3_V212system_clock3nowEv@plt>
    53b7:	4c 29 f0             	sub    %r14,%rax
    53ba:	62 f1 9f 08 7b c0    	vcvtusi2sd %rax,%xmm12,%xmm0
    53c0:	c5 fb 11 03          	vmovsd %xmm0,(%rbx)
    53c4:	e8 77 cc ff ff       	call   2040 <_ZNSt6chrono3_V212system_clock3nowEv@plt>
    53c9:	49 89 c6             	mov    %rax,%r14
    53cc:	e8 6f cc ff ff       	call   2040 <_ZNSt6chrono3_V212system_clock3nowEv@plt>
    53d1:	4c 29 f0             	sub    %r14,%rax
    53d4:	62 f1 9f 08 7b c0    	vcvtusi2sd %rax,%xmm12,%xmm0
    53da:	c5 fb 11 43 08       	vmovsd %xmm0,0x8(%rbx)
    53df:	e8 5c cc ff ff       	call   2040 <_ZNSt6chrono3_V212system_clock3nowEv@plt>
    53e4:	49 89 c6             	mov    %rax,%r14
    53e7:	e8 54 cc ff ff       	call   2040 <_ZNSt6chrono3_V212system_clock3nowEv@plt>
    53ec:	4c 29 f0             	sub    %r14,%rax
    53ef:	62 f1 9f 08 7b c0    	vcvtusi2sd %rax,%xmm12,%xmm0
    53f5:	c5 fb 11 43 10       	vmovsd %xmm0,0x10(%rbx)
    53fa:	e8 41 cc ff ff       	call   2040 <_ZNSt6chrono3_V212system_clock3nowEv@plt>
    53ff:	49 89 c6             	mov    %rax,%r14
    5402:	e8 39 cc ff ff       	call   2040 <_ZNSt6chrono3_V212system_clock3nowEv@plt>
    5407:	4c 29 f0             	sub    %r14,%rax
    540a:	62 f1 9f 08 7b c0    	vcvtusi2sd %rax,%xmm12,%xmm0
    5410:	c5 fb 11 43 18       	vmovsd %xmm0,0x18(%rbx)
    5415:	e8 26 cc ff ff       	call   2040 <_ZNSt6chrono3_V212system_clock3nowEv@plt>
    541a:	49 89 c6             	mov    %rax,%r14
    541d:	e8 1e cc ff ff       	call   2040 <_ZNSt6chrono3_V212system_clock3nowEv@plt>
    5422:	4c 29 f0             	sub    %r14,%rax
    5425:	62 f1 9f 08 7b c0    	vcvtusi2sd %rax,%xmm12,%xmm0
    542b:	c5 fb 11 43 20       	vmovsd %xmm0,0x20(%rbx)
    5430:	e8 0b cc ff ff       	call   2040 <_ZNSt6chrono3_V212system_clock3nowEv@plt>
    5435:	49 89 c6             	mov    %rax,%r14
    5438:	e8 03 cc ff ff       	call   2040 <_ZNSt6chrono3_V212system_clock3nowEv@plt>
    543d:	4c 29 f0             	sub    %r14,%rax
    5440:	62 f1 9f 08 7b c0    	vcvtusi2sd %rax,%xmm12,%xmm0
    5446:	c5 fb 11 43 28       	vmovsd %xmm0,0x28(%rbx)
    544b:	e8 f0 cb ff ff       	call   2040 <_ZNSt6chrono3_V212system_clock3nowEv@plt>
    5450:	49 89 c6             	mov    %rax,%r14
    5453:	e8 e8 cb ff ff       	call   2040 <_ZNSt6chrono3_V212system_clock3nowEv@plt>
    5458:	4c 29 f0             	sub    %r14,%rax
    545b:	62 f1 9f 08 7b c0    	vcvtusi2sd %rax,%xmm12,%xmm0
    5461:	c5 fb 11 43 30       	vmovsd %xmm0,0x30(%rbx)
    5466:	e8 d5 cb ff ff       	call   2040 <_ZNSt6chrono3_V212system_clock3nowEv@plt>
    546b:	49 89 c6             	mov    %rax,%r14
    546e:	e8 cd cb ff ff       	call   2040 <_ZNSt6chrono3_V212system_clock3nowEv@plt>
    5473:	4c 29 f0             	sub    %r14,%rax
    5476:	62 f1 ef 08 7b c0    	vcvtusi2sd %rax,%xmm2,%xmm0
    547c:	c5 fb 11 43 38       	vmovsd %xmm0,0x38(%rbx)
    5481:	e8 ba cb ff ff       	call   2040 <_ZNSt6chrono3_V212system_clock3nowEv@plt>
    5486:	49 89 c6             	mov    %rax,%r14
    5489:	e8 b2 cb ff ff       	call   2040 <_ZNSt6chrono3_V212system_clock3nowEv@plt>
    548e:	4c 29 f0             	sub    %r14,%rax
    5491:	62 f1 ef 08 7b c0    	vcvtusi2sd %rax,%xmm2,%xmm0
    5497:	c5 fb 11 43 40       	vmovsd %xmm0,0x40(%rbx)
    549c:	e8 9f cb ff ff       	call   2040 <_ZNSt6chrono3_V212system_clock3nowEv@plt>
    54a1:	49 89 c6             	mov    %rax,%r14
    54a4:	e8 97 cb ff ff       	call   2040 <_ZNSt6chrono3_V212system_clock3nowEv@plt>
    54a9:	4c 29 f0             	sub    %r14,%rax
    54ac:	62 f1 f7 08 7b c0    	vcvtusi2sd %rax,%xmm1,%xmm0
    54b2:	c5 fb 11 43 48       	vmovsd %xmm0,0x48(%rbx)
    54b7:	49 89 de             	mov    %rbx,%r14
    54ba:	49 83 c6 50          	add    $0x50,%r14
    54be:	ba 06 00 00 00       	mov    $0x6,%edx
    54c3:	48 89 df             	mov    %rbx,%rdi
    54c6:	4c 89 f6             	mov    %r14,%rsi
    54c9:	e8 32 2a 00 00       	call   7f00 <_ZSt16__introsort_loopIN9__gnu_cxx17__normal_iteratorIPdSt6vectorIdSaIdEEEElNS0_5__ops15_Iter_less_iterEEvT_S9_T0_T1_>
    54ce:	48 89 df             	mov    %rbx,%rdi
    54d1:	4c 89 f6             	mov    %r14,%rsi
    54d4:	e8 c7 2c 00 00       	call   81a0 <_ZSt22__final_insertion_sortIN9__gnu_cxx17__normal_iteratorIPdSt6vectorIdSaIdEEEENS0_5__ops15_Iter_less_iterEEvT_S9_T0_>
    54d9:	48 8d bc 24 20 01 00 	lea    0x120(%rsp),%rdi
    54e0:	00 
    54e1:	e8 ea cb ff ff       	call   20d0 <_ZNSt7__cxx1118basic_stringstreamIcSt11char_traitsIcESaIcEEC1Ev@plt>
    54e6:	48 8d bc 24 30 01 00 	lea    0x130(%rsp),%rdi
    54ed:	00 
    54ee:	48 8b 84 24 30 01 00 	mov    0x130(%rsp),%rax
    54f5:	00 
    54f6:	48 8b 48 e8          	mov    -0x18(%rax),%rcx
    54fa:	ba fb fe ff ff       	mov    $0xfffffefb,%edx
    54ff:	23 94 0c 48 01 00 00 	and    0x148(%rsp,%rcx,1),%edx
    5506:	83 ca 04             	or     $0x4,%edx
    5509:	89 94 0c 48 01 00 00 	mov    %edx,0x148(%rsp,%rcx,1)
    5510:	48 8b 48 e8          	mov    -0x18(%rax),%rcx
    5514:	48 c7 84 0c 40 01 00 	movq   $0x6,0x140(%rsp,%rcx,1)
    551b:	00 06 00 00 00 
    5520:	48 8b 40 e8          	mov    -0x18(%rax),%rax
    5524:	48 c7 84 04 38 01 00 	movq   $0x2,0x138(%rsp,%rax,1)
    552b:	00 02 00 00 00 
    5530:	c5 fb 10 03          	vmovsd (%rbx),%xmm0
    5534:	c5 fb 59 05 1c 3c 00 	vmulsd 0x3c1c(%rip),%xmm0,%xmm0        # 9158 <_IO_stdin_used+0x158>
    553b:	00 
    553c:	e8 7f cc ff ff       	call   21c0 <_ZNSo9_M_insertIdEERSoT_@plt>
    5541:	48 8b 3d 70 5a 00 00 	mov    0x5a70(%rip),%rdi        # afb8 <_ZSt4cout@GLIBCXX_3.4>
    5548:	48 8d 35 2f 3d 00 00 	lea    0x3d2f(%rip),%rsi        # 927e <_IO_stdin_used+0x27e>
    554f:	ba 0b 00 00 00       	mov    $0xb,%edx
    5554:	e8 d7 cb ff ff       	call   2130 <_ZSt16__ostream_insertIcSt11char_traitsIcEERSt13basic_ostreamIT_T0_ES6_PKS3_l@plt>
    5559:	48 8d 44 24 30       	lea    0x30(%rsp),%rax
    555e:	48 89 44 24 20       	mov    %rax,0x20(%rsp)
    5563:	48 c7 44 24 28 00 00 	movq   $0x0,0x28(%rsp)
    556a:	00 00 
    556c:	c6 44 24 30 00       	movb   $0x0,0x30(%rsp)
    5571:	4c 8b 84 24 50 01 00 	mov    0x150(%rsp),%r8
    5578:	00 
    5579:	48 8b 84 24 60 01 00 	mov    0x160(%rsp),%rax
    5580:	00 
    5581:	48 85 c0             	test   %rax,%rax
    5584:	0f 94 c1             	sete   %cl
    5587:	4c 39 c0             	cmp    %r8,%rax
    558a:	4c 0f 47 c0          	cmova  %rax,%r8
    558e:	4d 85 c0             	test   %r8,%r8
    5591:	0f 94 c0             	sete   %al
    5594:	08 c8                	or     %cl,%al
    5596:	74 14                	je     55ac <main+0x205c>
    5598:	48 8d b4 24 80 01 00 	lea    0x180(%rsp),%rsi
    559f:	00 
    55a0:	48 8d 7c 24 20       	lea    0x20(%rsp),%rdi
    55a5:	e8 06 33 00 00       	call   88b0 <_ZNSt7__cxx1112basic_stringIcSt11char_traitsIcESaIcEE9_M_assignERKS4_>
    55aa:	eb 19                	jmp    55c5 <main+0x2075>
    55ac:	48 8b 8c 24 58 01 00 	mov    0x158(%rsp),%rcx
    55b3:	00 
    55b4:	49 29 c8             	sub    %rcx,%r8
    55b7:	48 8d 7c 24 20       	lea    0x20(%rsp),%rdi
    55bc:	31 f6                	xor    %esi,%esi
    55be:	31 d2                	xor    %edx,%edx
    55c0:	e8 1b 30 00 00       	call   85e0 <_ZNSt7__cxx1112basic_stringIcSt11char_traitsIcESaIcEE10_M_replaceEmmPKcm>
    55c5:	48 8b 74 24 20       	mov    0x20(%rsp),%rsi
    55ca:	48 8b 54 24 28       	mov    0x28(%rsp),%rdx
    55cf:	48 8b 3d e2 59 00 00 	mov    0x59e2(%rip),%rdi        # afb8 <_ZSt4cout@GLIBCXX_3.4>
    55d6:	e8 55 cb ff ff       	call   2130 <_ZSt16__ostream_insertIcSt11char_traitsIcEERSt13basic_ostreamIT_T0_ES6_PKS3_l@plt>
    55db:	49 89 c6             	mov    %rax,%r14
    55de:	48 8d 35 a5 3c 00 00 	lea    0x3ca5(%rip),%rsi        # 928a <_IO_stdin_used+0x28a>
    55e5:	ba 03 00 00 00       	mov    $0x3,%edx
    55ea:	48 89 c7             	mov    %rax,%rdi
    55ed:	e8 3e cb ff ff       	call   2130 <_ZSt16__ostream_insertIcSt11char_traitsIcEERSt13basic_ostreamIT_T0_ES6_PKS3_l@plt>
    55f2:	49 8b 06             	mov    (%r14),%rax
    55f5:	48 8b 40 e8          	mov    -0x18(%rax),%rax
    55f9:	4d 8b ac 06 f0 00 00 	mov    0xf0(%r14,%rax,1),%r13
    5600:	00 
    5601:	4d 85 ed             	test   %r13,%r13
    5604:	0f 84 de 26 00 00    	je     7ce8 <main+0x4798>
    560a:	41 80 7d 38 00       	cmpb   $0x0,0x38(%r13)
    560f:	74 07                	je     5618 <main+0x20c8>
    5611:	41 0f b6 45 43       	movzbl 0x43(%r13),%eax
    5616:	eb 17                	jmp    562f <main+0x20df>
    5618:	4c 89 ef             	mov    %r13,%rdi
    561b:	e8 20 cb ff ff       	call   2140 <_ZNKSt5ctypeIcE13_M_widen_initEv@plt>
    5620:	49 8b 45 00          	mov    0x0(%r13),%rax
    5624:	4c 89 ef             	mov    %r13,%rdi
    5627:	be 0a 00 00 00       	mov    $0xa,%esi
    562c:	ff 50 30             	call   *0x30(%rax)
    562f:	0f be f0             	movsbl %al,%esi
    5632:	4c 89 f7             	mov    %r14,%rdi
    5635:	e8 f6 c9 ff ff       	call   2030 <_ZNSo3putEc@plt>
    563a:	48 89 c7             	mov    %rax,%rdi
    563d:	e8 7e ca ff ff       	call   20c0 <_ZNSo5flushEv@plt>
    5642:	49 89 de             	mov    %rbx,%r14
    5645:	48 8b 7c 24 20       	mov    0x20(%rsp),%rdi
    564a:	48 8d 44 24 30       	lea    0x30(%rsp),%rax
    564f:	48 39 c7             	cmp    %rax,%rdi
    5652:	74 0d                	je     5661 <main+0x2111>
    5654:	48 8b 74 24 30       	mov    0x30(%rsp),%rsi
    5659:	48 ff c6             	inc    %rsi
    565c:	e8 af ca ff ff       	call   2110 <_ZdlPvm@plt>
    5661:	48 8b 1d 30 59 00 00 	mov    0x5930(%rip),%rbx        # af98 <_ZTTNSt7__cxx1118basic_stringstreamIcSt11char_traitsIcESaIcEEE@GLIBCXX_3.4.21>
    5668:	48 8b 03             	mov    (%rbx),%rax
    566b:	48 8b 4b 40          	mov    0x40(%rbx),%rcx
    566f:	48 89 84 24 20 01 00 	mov    %rax,0x120(%rsp)
    5676:	00 
    5677:	48 8b 40 e8          	mov    -0x18(%rax),%rax
    567b:	48 89 8c 04 20 01 00 	mov    %rcx,0x120(%rsp,%rax,1)
    5682:	00 
    5683:	48 8b 43 48          	mov    0x48(%rbx),%rax
    5687:	48 89 84 24 30 01 00 	mov    %rax,0x130(%rsp)
    568e:	00 
    568f:	48 8b 05 4a 59 00 00 	mov    0x594a(%rip),%rax        # afe0 <_ZTVNSt7__cxx1115basic_stringbufIcSt11char_traitsIcESaIcEEE@GLIBCXX_3.4.21>
    5696:	48 83 c0 10          	add    $0x10,%rax
    569a:	48 89 84 24 38 01 00 	mov    %rax,0x138(%rsp)
    56a1:	00 
    56a2:	48 8b bc 24 80 01 00 	mov    0x180(%rsp),%rdi
    56a9:	00 
    56aa:	48 8d 84 24 90 01 00 	lea    0x190(%rsp),%rax
    56b1:	00 
    56b2:	48 39 c7             	cmp    %rax,%rdi
    56b5:	74 10                	je     56c7 <main+0x2177>
    56b7:	48 8b b4 24 90 01 00 	mov    0x190(%rsp),%rsi
    56be:	00 
    56bf:	48 ff c6             	inc    %rsi
    56c2:	e8 49 ca ff ff       	call   2110 <_ZdlPvm@plt>
    56c7:	48 8b 05 da 58 00 00 	mov    0x58da(%rip),%rax        # afa8 <_ZTVSt15basic_streambufIcSt11char_traitsIcEE@GLIBCXX_3.4>
    56ce:	48 83 c0 10          	add    $0x10,%rax
    56d2:	48 89 84 24 38 01 00 	mov    %rax,0x138(%rsp)
    56d9:	00 
    56da:	48 8d bc 24 70 01 00 	lea    0x170(%rsp),%rdi
    56e1:	00 
    56e2:	e8 b9 ca ff ff       	call   21a0 <_ZNSt6localeD1Ev@plt>
    56e7:	48 8b 43 10          	mov    0x10(%rbx),%rax
    56eb:	48 8b 4b 18          	mov    0x18(%rbx),%rcx
    56ef:	48 89 84 24 20 01 00 	mov    %rax,0x120(%rsp)
    56f6:	00 
    56f7:	48 8b 40 e8          	mov    -0x18(%rax),%rax
    56fb:	48 89 8c 04 20 01 00 	mov    %rcx,0x120(%rsp,%rax,1)
    5702:	00 
    5703:	48 c7 84 24 28 01 00 	movq   $0x0,0x128(%rsp)
    570a:	00 00 00 00 00 
    570f:	48 8d bc 24 a0 01 00 	lea    0x1a0(%rsp),%rdi
    5716:	00 
    5717:	e8 34 c9 ff ff       	call   2050 <_ZNSt8ios_baseD2Ev@plt>
    571c:	be 50 00 00 00       	mov    $0x50,%esi
    5721:	4c 89 f7             	mov    %r14,%rdi
    5724:	e8 e7 c9 ff ff       	call   2110 <_ZdlPvm@plt>
    5729:	41 89 e9             	mov    %ebp,%r9d
    572c:	4d 85 e4             	test   %r12,%r12
    572f:	48 8b 1c 24          	mov    (%rsp),%rbx
    5733:	0f 84 14 03 00 00    	je     5a4d <main+0x24fd>
    5739:	49 8d 44 24 ff       	lea    -0x1(%r12),%rax
    573e:	44 89 e1             	mov    %r12d,%ecx
    5741:	83 e1 e0             	and    $0xffffffe0,%ecx
    5744:	44 89 e2             	mov    %r12d,%edx
    5747:	83 e2 fc             	and    $0xfffffffc,%edx
    574a:	48 89 d6             	mov    %rdx,%rsi
    574d:	48 f7 de             	neg    %rsi
    5750:	31 ff                	xor    %edi,%edi
    5752:	45 31 c0             	xor    %r8d,%r8d
    5755:	41 89 e9             	mov    %ebp,%r9d
    5758:	eb 15                	jmp    576f <main+0x221f>
    575a:	66 0f 1f 44 00 00    	nopw   0x0(%rax,%rax,1)
    5760:	41 ff c0             	inc    %r8d
    5763:	4c 01 e7             	add    %r12,%rdi
    5766:	45 39 e0             	cmp    %r12d,%r8d
    5769:	0f 84 de 02 00 00    	je     5a4d <main+0x24fd>
    576f:	41 83 fc 03          	cmp    $0x3,%r12d
    5773:	76 22                	jbe    5797 <main+0x2247>
    5775:	49 89 c2             	mov    %rax,%r10
    5778:	49 c1 ea 20          	shr    $0x20,%r10
    577c:	41 0f 95 c2          	setne  %r10b
    5780:	45 89 e3             	mov    %r12d,%r11d
    5783:	45 0f af d8          	imul   %r8d,%r11d
    5787:	41 01 c3             	add    %eax,%r11d
    578a:	41 0f 92 c3          	setb   %r11b
    578e:	45 08 d3             	or     %r10b,%r11b
    5791:	0f 84 b9 01 00 00    	je     5950 <main+0x2400>
    5797:	45 31 db             	xor    %r11d,%r11d
    579a:	44 89 e3             	mov    %r12d,%ebx
    579d:	44 29 db             	sub    %r11d,%ebx
    57a0:	4d 89 da             	mov    %r11,%r10
    57a3:	83 e3 07             	and    $0x7,%ebx
    57a6:	74 1f                	je     57c7 <main+0x2277>
    57a8:	0f 1f 84 00 00 00 00 	nopl   0x0(%rax,%rax,1)
    57af:	00 
    57b0:	46 8d 34 17          	lea    (%rdi,%r10,1),%r14d
    57b4:	47 8b 34 b7          	mov    (%r15,%r14,4),%r14d
    57b8:	45 39 ce             	cmp    %r9d,%r14d
    57bb:	45 0f 42 ce          	cmovb  %r14d,%r9d
    57bf:	49 ff c2             	inc    %r10
    57c2:	48 ff cb             	dec    %rbx
    57c5:	75 e9                	jne    57b0 <main+0x2260>
    57c7:	4d 29 e3             	sub    %r12,%r11
    57ca:	49 83 fb f8          	cmp    $0xfffffffffffffff8,%r11
    57ce:	48 8b 1c 24          	mov    (%rsp),%rbx
    57d2:	76 19                	jbe    57ed <main+0x229d>
    57d4:	eb 8a                	jmp    5760 <main+0x2210>
    57d6:	66 2e 0f 1f 84 00 00 	cs nopw 0x0(%rax,%rax,1)
    57dd:	00 00 00 
    57e0:	49 83 c2 08          	add    $0x8,%r10
    57e4:	4d 39 d4             	cmp    %r10,%r12
    57e7:	0f 84 73 ff ff ff    	je     5760 <main+0x2210>
    57ed:	46 8d 1c 17          	lea    (%rdi,%r10,1),%r11d
    57f1:	47 8b 1c 9f          	mov    (%r15,%r11,4),%r11d
    57f5:	45 39 cb             	cmp    %r9d,%r11d
    57f8:	0f 83 a2 00 00 00    	jae    58a0 <main+0x2350>
    57fe:	46 8d 0c 17          	lea    (%rdi,%r10,1),%r9d
    5802:	41 ff c1             	inc    %r9d
    5805:	47 8b 0c 8f          	mov    (%r15,%r9,4),%r9d
    5809:	45 39 d9             	cmp    %r11d,%r9d
    580c:	0f 83 a5 00 00 00    	jae    58b7 <main+0x2367>
    5812:	46 8d 1c 17          	lea    (%rdi,%r10,1),%r11d
    5816:	41 83 c3 02          	add    $0x2,%r11d
    581a:	47 8b 1c 9f          	mov    (%r15,%r11,4),%r11d
    581e:	45 39 cb             	cmp    %r9d,%r11d
    5821:	0f 83 a8 00 00 00    	jae    58cf <main+0x237f>
    5827:	46 8d 0c 17          	lea    (%rdi,%r10,1),%r9d
    582b:	41 83 c1 03          	add    $0x3,%r9d
    582f:	47 8b 0c 8f          	mov    (%r15,%r9,4),%r9d
    5833:	45 39 d9             	cmp    %r11d,%r9d
    5836:	0f 83 ab 00 00 00    	jae    58e7 <main+0x2397>
    583c:	46 8d 1c 17          	lea    (%rdi,%r10,1),%r11d
    5840:	41 83 c3 04          	add    $0x4,%r11d
    5844:	47 8b 1c 9f          	mov    (%r15,%r11,4),%r11d
    5848:	45 39 cb             	cmp    %r9d,%r11d
    584b:	0f 83 ae 00 00 00    	jae    58ff <main+0x23af>
    5851:	46 8d 0c 17          	lea    (%rdi,%r10,1),%r9d
    5855:	41 83 c1 05          	add    $0x5,%r9d
    5859:	47 8b 0c 8f          	mov    (%r15,%r9,4),%r9d
    585d:	45 39 d9             	cmp    %r11d,%r9d
    5860:	0f 83 b1 00 00 00    	jae    5917 <main+0x23c7>
    5866:	46 8d 1c 17          	lea    (%rdi,%r10,1),%r11d
    586a:	41 83 c3 06          	add    $0x6,%r11d
    586e:	47 8b 1c 9f          	mov    (%r15,%r11,4),%r11d
    5872:	45 39 cb             	cmp    %r9d,%r11d
    5875:	0f 83 b4 00 00 00    	jae    592f <main+0x23df>
    587b:	46 8d 0c 17          	lea    (%rdi,%r10,1),%r9d
    587f:	41 83 c1 07          	add    $0x7,%r9d
    5883:	47 8b 0c 8f          	mov    (%r15,%r9,4),%r9d
    5887:	45 39 d9             	cmp    %r11d,%r9d
    588a:	0f 82 50 ff ff ff    	jb     57e0 <main+0x2290>
    5890:	e9 b2 00 00 00       	jmp    5947 <main+0x23f7>
    5895:	66 66 2e 0f 1f 84 00 	data16 cs nopw 0x0(%rax,%rax,1)
    589c:	00 00 00 00 
    58a0:	45 89 cb             	mov    %r9d,%r11d
    58a3:	46 8d 0c 17          	lea    (%rdi,%r10,1),%r9d
    58a7:	41 ff c1             	inc    %r9d
    58aa:	47 8b 0c 8f          	mov    (%r15,%r9,4),%r9d
    58ae:	45 39 d9             	cmp    %r11d,%r9d
    58b1:	0f 82 5b ff ff ff    	jb     5812 <main+0x22c2>
    58b7:	45 89 d9             	mov    %r11d,%r9d
    58ba:	46 8d 1c 17          	lea    (%rdi,%r10,1),%r11d
    58be:	41 83 c3 02          	add    $0x2,%r11d
    58c2:	47 8b 1c 9f          	mov    (%r15,%r11,4),%r11d
    58c6:	45 39 cb             	cmp    %r9d,%r11d
    58c9:	0f 82 58 ff ff ff    	jb     5827 <main+0x22d7>
    58cf:	45 89 cb             	mov    %r9d,%r11d
    58d2:	46 8d 0c 17          	lea    (%rdi,%r10,1),%r9d
    58d6:	41 83 c1 03          	add    $0x3,%r9d
    58da:	47 8b 0c 8f          	mov    (%r15,%r9,4),%r9d
    58de:	45 39 d9             	cmp    %r11d,%r9d
    58e1:	0f 82 55 ff ff ff    	jb     583c <main+0x22ec>
    58e7:	45 89 d9             	mov    %r11d,%r9d
    58ea:	46 8d 1c 17          	lea    (%rdi,%r10,1),%r11d
    58ee:	41 83 c3 04          	add    $0x4,%r11d
    58f2:	47 8b 1c 9f          	mov    (%r15,%r11,4),%r11d
    58f6:	45 39 cb             	cmp    %r9d,%r11d
    58f9:	0f 82 52 ff ff ff    	jb     5851 <main+0x2301>
    58ff:	45 89 cb             	mov    %r9d,%r11d
    5902:	46 8d 0c 17          	lea    (%rdi,%r10,1),%r9d
    5906:	41 83 c1 05          	add    $0x5,%r9d
    590a:	47 8b 0c 8f          	mov    (%r15,%r9,4),%r9d
    590e:	45 39 d9             	cmp    %r11d,%r9d
    5911:	0f 82 4f ff ff ff    	jb     5866 <main+0x2316>
    5917:	45 89 d9             	mov    %r11d,%r9d
    591a:	46 8d 1c 17          	lea    (%rdi,%r10,1),%r11d
    591e:	41 83 c3 06          	add    $0x6,%r11d
    5922:	47 8b 1c 9f          	mov    (%r15,%r11,4),%r11d
    5926:	45 39 cb             	cmp    %r9d,%r11d
    5929:	0f 82 4c ff ff ff    	jb     587b <main+0x232b>
    592f:	45 89 cb             	mov    %r9d,%r11d
    5932:	46 8d 0c 17          	lea    (%rdi,%r10,1),%r9d
    5936:	41 83 c1 07          	add    $0x7,%r9d
    593a:	47 8b 0c 8f          	mov    (%r15,%r9,4),%r9d
    593e:	45 39 d9             	cmp    %r11d,%r9d
    5941:	0f 82 99 fe ff ff    	jb     57e0 <main+0x2290>
    5947:	45 89 d9             	mov    %r11d,%r9d
    594a:	e9 91 fe ff ff       	jmp    57e0 <main+0x2290>
    594f:	90                   	nop
    5950:	41 83 fc 20          	cmp    $0x20,%r12d
    5954:	73 08                	jae    595e <main+0x240e>
    5956:	45 31 d2             	xor    %r10d,%r10d
    5959:	e9 96 00 00 00       	jmp    59f4 <main+0x24a4>
    595e:	62 d2 7d 28 7c c1    	vpbroadcastd %r9d,%ymm0
    5964:	41 89 f9             	mov    %edi,%r9d
    5967:	49 89 ca             	mov    %rcx,%r10
    596a:	c5 fd 6f c8          	vmovdqa %ymm0,%ymm1
    596e:	c5 fd 6f d0          	vmovdqa %ymm0,%ymm2
    5972:	c5 fd 6f d8          	vmovdqa %ymm0,%ymm3
    5976:	66 2e 0f 1f 84 00 00 	cs nopw 0x0(%rax,%rax,1)
    597d:	00 00 00 
    5980:	45 89 cb             	mov    %r9d,%r11d
    5983:	c4 82 7d 3b 04 9f    	vpminud (%r15,%r11,4),%ymm0,%ymm0
    5989:	c4 82 75 3b 4c 9f 20 	vpminud 0x20(%r15,%r11,4),%ymm1,%ymm1
    5990:	c4 82 6d 3b 54 9f 40 	vpminud 0x40(%r15,%r11,4),%ymm2,%ymm2
    5997:	c4 82 65 3b 5c 9f 60 	vpminud 0x60(%r15,%r11,4),%ymm3,%ymm3
    599e:	41 83 c1 20          	add    $0x20,%r9d
    59a2:	49 83 c2 e0          	add    $0xffffffffffffffe0,%r10
    59a6:	75 d8                	jne    5980 <main+0x2430>
    59a8:	c4 e2 7d 3b c1       	vpminud %ymm1,%ymm0,%ymm0
    59ad:	c4 e2 6d 3b cb       	vpminud %ymm3,%ymm2,%ymm1
    59b2:	c4 e2 7d 3b c1       	vpminud %ymm1,%ymm0,%ymm0
    59b7:	c4 e3 7d 39 c1 01    	vextracti128 $0x1,%ymm0,%xmm1
    59bd:	c4 e2 79 3b c1       	vpminud %xmm1,%xmm0,%xmm0
    59c2:	c5 f9 70 c8 ee       	vpshufd $0xee,%xmm0,%xmm1
    59c7:	c4 e2 79 3b c1       	vpminud %xmm1,%xmm0,%xmm0
    59cc:	c5 f9 70 c8 55       	vpshufd $0x55,%xmm0,%xmm1
    59d1:	c4 e2 79 3b c1       	vpminud %xmm1,%xmm0,%xmm0
    59d6:	c4 c1 79 7e c1       	vmovd  %xmm0,%r9d
    59db:	44 39 e1             	cmp    %r12d,%ecx
    59de:	0f 84 7c fd ff ff    	je     5760 <main+0x2210>
    59e4:	49 89 cb             	mov    %rcx,%r11
    59e7:	49 89 ca             	mov    %rcx,%r10
    59ea:	41 f6 c4 1c          	test   $0x1c,%r12b
    59ee:	0f 84 a6 fd ff ff    	je     579a <main+0x224a>
    59f4:	62 d2 7d 08 7c c1    	vpbroadcastd %r9d,%xmm0
    59fa:	4e 8d 0c 16          	lea    (%rsi,%r10,1),%r9
    59fe:	41 01 fa             	add    %edi,%r10d
    5a01:	66 66 66 66 66 66 2e 	data16 data16 data16 data16 data16 cs nopw 0x0(%rax,%rax,1)
    5a08:	0f 1f 84 00 00 00 00 
    5a0f:	00 
    5a10:	45 89 d3             	mov    %r10d,%r11d
    5a13:	c4 82 79 3b 04 9f    	vpminud (%r15,%r11,4),%xmm0,%xmm0
    5a19:	41 83 c2 04          	add    $0x4,%r10d
    5a1d:	49 83 c1 04          	add    $0x4,%r9
    5a21:	75 ed                	jne    5a10 <main+0x24c0>
    5a23:	c5 f9 70 c8 ee       	vpshufd $0xee,%xmm0,%xmm1
    5a28:	c4 e2 79 3b c1       	vpminud %xmm1,%xmm0,%xmm0
    5a2d:	c5 f9 70 c8 55       	vpshufd $0x55,%xmm0,%xmm1
    5a32:	c4 e2 79 3b c1       	vpminud %xmm1,%xmm0,%xmm0
    5a37:	c4 c1 79 7e c1       	vmovd  %xmm0,%r9d
    5a3c:	49 89 d3             	mov    %rdx,%r11
    5a3f:	44 39 e2             	cmp    %r12d,%edx
    5a42:	0f 84 18 fd ff ff    	je     5760 <main+0x2210>
    5a48:	e9 4d fd ff ff       	jmp    579a <main+0x224a>
    5a4d:	62 d1 5e 08 7b c1    	vcvtusi2ss %r9d,%xmm4,%xmm0
    5a53:	c5 fa 11 44 24 70    	vmovss %xmm0,0x70(%rsp)
    5a59:	c5 f8 77             	vzeroupper
    5a5c:	e8 ff c6 ff ff       	call   2160 <log2f@plt>
    5a61:	c5 fa 11 44 24 10    	vmovss %xmm0,0x10(%rsp)
    5a67:	62 f1 5e 08 7b c5    	vcvtusi2ss %ebp,%xmm4,%xmm0
    5a6d:	c5 fa 5e 44 24 70    	vdivss 0x70(%rsp),%xmm0,%xmm0
    5a73:	e8 e8 c6 ff ff       	call   2160 <log2f@plt>
    5a78:	48 8b 84 24 18 01 00 	mov    0x118(%rsp),%rax
    5a7f:	00 
    5a80:	48 85 c0             	test   %rax,%rax
    5a83:	74 61                	je     5ae6 <main+0x2596>
    5a85:	c5 fa 11 44 24 70    	vmovss %xmm0,0x70(%rsp)
    5a8b:	44 8d 2c 40          	lea    (%rax,%rax,2),%r13d
    5a8f:	4c 89 ef             	mov    %r13,%rdi
    5a92:	e8 69 c6 ff ff       	call   2100 <_Znwm@plt>
    5a97:	49 89 c6             	mov    %rax,%r14
    5a9a:	48 89 84 24 20 01 00 	mov    %rax,0x120(%rsp)
    5aa1:	00 
    5aa2:	4e 8d 3c 28          	lea    (%rax,%r13,1),%r15
    5aa6:	4c 89 bc 24 30 01 00 	mov    %r15,0x130(%rsp)
    5aad:	00 
    5aae:	c6 00 00             	movb   $0x0,(%rax)
    5ab1:	48 89 c7             	mov    %rax,%rdi
    5ab4:	48 ff c7             	inc    %rdi
    5ab7:	49 ff cd             	dec    %r13
    5aba:	4c 89 7c 24 40       	mov    %r15,0x40(%rsp)
    5abf:	74 0d                	je     5ace <main+0x257e>
    5ac1:	31 f6                	xor    %esi,%esi
    5ac3:	4c 89 ea             	mov    %r13,%rdx
    5ac6:	e8 d5 c5 ff ff       	call   20a0 <memset@plt>
    5acb:	4c 89 ff             	mov    %r15,%rdi
    5ace:	c5 fa 10 44 24 70    	vmovss 0x70(%rsp),%xmm0
    5ad4:	48 89 bc 24 28 01 00 	mov    %rdi,0x128(%rsp)
    5adb:	00 
    5adc:	4d 85 e4             	test   %r12,%r12
    5adf:	75 3d                	jne    5b1e <main+0x25ce>
    5ae1:	e9 18 02 00 00       	jmp    5cfe <main+0x27ae>
    5ae6:	c5 f0 57 c9          	vxorps %xmm1,%xmm1,%xmm1
    5aea:	c5 f8 29 8c 24 20 01 	vmovaps %xmm1,0x120(%rsp)
    5af1:	00 00 
    5af3:	48 c7 84 24 30 01 00 	movq   $0x0,0x130(%rsp)
    5afa:	00 00 00 00 00 
    5aff:	48 c7 44 24 40 00 00 	movq   $0x0,0x40(%rsp)
    5b06:	00 00 
    5b08:	45 31 f6             	xor    %r14d,%r14d
    5b0b:	31 ff                	xor    %edi,%edi
    5b0d:	48 89 bc 24 28 01 00 	mov    %rdi,0x128(%rsp)
    5b14:	00 
    5b15:	4d 85 e4             	test   %r12,%r12
    5b18:	0f 84 e0 01 00 00    	je     5cfe <main+0x27ae>
    5b1e:	44 89 e0             	mov    %r12d,%eax
    5b21:	83 e0 fe             	and    $0xfffffffe,%eax
    5b24:	48 89 84 24 c0 00 00 	mov    %rax,0xc0(%rsp)
    5b2b:	00 
    5b2c:	c5 fa 10 0d d0 34 00 	vmovss 0x34d0(%rip),%xmm1        # 9004 <_IO_stdin_used+0x4>
    5b33:	00 
    5b34:	c5 f2 5e c0          	vdivss %xmm0,%xmm1,%xmm0
    5b38:	c5 fa 11 44 24 70    	vmovss %xmm0,0x70(%rsp)
    5b3e:	47 8d 2c 64          	lea    (%r12,%r12,2),%r13d
    5b42:	31 c0                	xor    %eax,%eax
    5b44:	b9 05 00 00 00       	mov    $0x5,%ecx
    5b49:	c7 44 24 50 01 00 00 	movl   $0x1,0x50(%rsp)
    5b50:	00 
    5b51:	44 89 6c 24 60       	mov    %r13d,0x60(%rsp)
    5b56:	eb 67                	jmp    5bbf <main+0x266f>
    5b58:	0f 1f 84 00 00 00 00 	nopl   0x0(%rax,%rax,1)
    5b5f:	00 
    5b60:	62 f1 5e 08 7b c0    	vcvtusi2ss %eax,%xmm4,%xmm0
    5b66:	e8 f5 c5 ff ff       	call   2160 <log2f@plt>
    5b6b:	c5 fa 5c 44 24 10    	vsubss 0x10(%rsp),%xmm0,%xmm0
    5b71:	c5 fa 59 05 a3 34 00 	vmulss 0x34a3(%rip),%xmm0,%xmm0        # 901c <_IO_stdin_used+0x1c>
    5b78:	00 
    5b79:	c5 fa 59 44 24 70    	vmulss 0x70(%rsp),%xmm0,%xmm0
    5b7f:	c5 fa 2c c0          	vcvttss2si %xmm0,%eax
    5b83:	04 20                	add    $0x20,%al
    5b85:	b1 20                	mov    $0x20,%cl
    5b87:	8d 14 5b             	lea    (%rbx,%rbx,2),%edx
    5b8a:	41 88 0c 16          	mov    %cl,(%r14,%rdx,1)
    5b8e:	8d 14 5b             	lea    (%rbx,%rbx,2),%edx
    5b91:	ff c2                	inc    %edx
    5b93:	41 88 04 16          	mov    %al,(%r14,%rdx,1)
    5b97:	8d 44 5b 02          	lea    0x2(%rbx,%rbx,2),%eax
    5b9b:	41 88 0c 06          	mov    %cl,(%r14,%rax,1)
    5b9f:	48 8b 1c 24          	mov    (%rsp),%rbx
    5ba3:	48 8b 44 24 18       	mov    0x18(%rsp),%rax
    5ba8:	8b 4c 24 48          	mov    0x48(%rsp),%ecx
    5bac:	ff c0                	inc    %eax
    5bae:	44 01 e9             	add    %r13d,%ecx
    5bb1:	44 01 64 24 50       	add    %r12d,0x50(%rsp)
    5bb6:	44 39 e0             	cmp    %r12d,%eax
    5bb9:	0f 84 3f 01 00 00    	je     5cfe <main+0x27ae>
    5bbf:	41 bf 00 00 00 00    	mov    $0x0,%r15d
    5bc5:	49 83 fc 01          	cmp    $0x1,%r12
    5bc9:	48 89 44 24 18       	mov    %rax,0x18(%rsp)
    5bce:	89 4c 24 48          	mov    %ecx,0x48(%rsp)
    5bd2:	0f 84 fa 00 00 00    	je     5cd2 <main+0x2782>
    5bd8:	44 8b 6c 24 50       	mov    0x50(%rsp),%r13d
    5bdd:	89 cb                	mov    %ecx,%ebx
    5bdf:	45 31 ff             	xor    %r15d,%r15d
    5be2:	eb 60                	jmp    5c44 <main+0x26f4>
    5be4:	66 66 66 2e 0f 1f 84 	data16 data16 cs nopw 0x0(%rax,%rax,1)
    5beb:	00 00 00 00 00 
    5bf0:	62 f1 5e 08 7b c0    	vcvtusi2ss %eax,%xmm4,%xmm0
    5bf6:	e8 65 c5 ff ff       	call   2160 <log2f@plt>
    5bfb:	c5 fa 5c 44 24 10    	vsubss 0x10(%rsp),%xmm0,%xmm0
    5c01:	c5 fa 59 05 13 34 00 	vmulss 0x3413(%rip),%xmm0,%xmm0        # 901c <_IO_stdin_used+0x1c>
    5c08:	00 
    5c09:	c5 fa 59 44 24 70    	vmulss 0x70(%rsp),%xmm0,%xmm0
    5c0f:	c5 fa 2c c0          	vcvttss2si %xmm0,%eax
    5c13:	04 20                	add    $0x20,%al
    5c15:	b1 20                	mov    $0x20,%cl
    5c17:	8d 53 fe             	lea    -0x2(%rbx),%edx
    5c1a:	41 88 0c 16          	mov    %cl,(%r14,%rdx,1)
    5c1e:	8d 53 ff             	lea    -0x1(%rbx),%edx
    5c21:	41 88 04 16          	mov    %al,(%r14,%rdx,1)
    5c25:	89 d8                	mov    %ebx,%eax
    5c27:	41 88 0c 06          	mov    %cl,(%r14,%rax,1)
    5c2b:	49 83 c7 02          	add    $0x2,%r15
    5c2f:	83 c3 06             	add    $0x6,%ebx
    5c32:	41 83 c5 02          	add    $0x2,%r13d
    5c36:	4c 39 bc 24 c0 00 00 	cmp    %r15,0xc0(%rsp)
    5c3d:	00 
    5c3e:	0f 84 7c 00 00 00    	je     5cc0 <main+0x2770>
    5c44:	41 8d 45 ff          	lea    -0x1(%r13),%eax
    5c48:	48 8b 4c 24 08       	mov    0x8(%rsp),%rcx
    5c4d:	8b 04 81             	mov    (%rcx,%rax,4),%eax
    5c50:	39 e8                	cmp    %ebp,%eax
    5c52:	73 2c                	jae    5c80 <main+0x2730>
    5c54:	62 f1 5e 08 7b c0    	vcvtusi2ss %eax,%xmm4,%xmm0
    5c5a:	e8 01 c5 ff ff       	call   2160 <log2f@plt>
    5c5f:	c5 fa 5c 44 24 10    	vsubss 0x10(%rsp),%xmm0,%xmm0
    5c65:	c5 fa 59 05 af 33 00 	vmulss 0x33af(%rip),%xmm0,%xmm0        # 901c <_IO_stdin_used+0x1c>
    5c6c:	00 
    5c6d:	c5 fa 59 44 24 70    	vmulss 0x70(%rsp),%xmm0,%xmm0
    5c73:	c5 fa 2c c0          	vcvttss2si %xmm0,%eax
    5c77:	04 20                	add    $0x20,%al
    5c79:	b1 20                	mov    $0x20,%cl
    5c7b:	eb 07                	jmp    5c84 <main+0x2734>
    5c7d:	0f 1f 00             	nopl   (%rax)
    5c80:	31 c0                	xor    %eax,%eax
    5c82:	31 c9                	xor    %ecx,%ecx
    5c84:	8d 53 fb             	lea    -0x5(%rbx),%edx
    5c87:	41 88 0c 16          	mov    %cl,(%r14,%rdx,1)
    5c8b:	8d 53 fc             	lea    -0x4(%rbx),%edx
    5c8e:	41 88 04 16          	mov    %al,(%r14,%rdx,1)
    5c92:	8d 43 fd             	lea    -0x3(%rbx),%eax
    5c95:	41 88 0c 06          	mov    %cl,(%r14,%rax,1)
    5c99:	44 89 e8             	mov    %r13d,%eax
    5c9c:	48 8b 4c 24 08       	mov    0x8(%rsp),%rcx
    5ca1:	8b 04 81             	mov    (%rcx,%rax,4),%eax
    5ca4:	39 e8                	cmp    %ebp,%eax
    5ca6:	0f 82 44 ff ff ff    	jb     5bf0 <main+0x26a0>
    5cac:	31 c0                	xor    %eax,%eax
    5cae:	31 c9                	xor    %ecx,%ecx
    5cb0:	e9 62 ff ff ff       	jmp    5c17 <main+0x26c7>
    5cb5:	66 66 2e 0f 1f 84 00 	data16 cs nopw 0x0(%rax,%rax,1)
    5cbc:	00 00 00 00 
    5cc0:	48 8b 1c 24          	mov    (%rsp),%rbx
    5cc4:	44 8b 6c 24 60       	mov    0x60(%rsp),%r13d
    5cc9:	48 8b 44 24 18       	mov    0x18(%rsp),%rax
    5cce:	8b 4c 24 48          	mov    0x48(%rsp),%ecx
    5cd2:	41 f6 c4 01          	test   $0x1,%r12b
    5cd6:	0f 84 d0 fe ff ff    	je     5bac <main+0x265c>
    5cdc:	89 c3                	mov    %eax,%ebx
    5cde:	41 0f af dc          	imul   %r12d,%ebx
    5ce2:	44 01 fb             	add    %r15d,%ebx
    5ce5:	48 8b 44 24 08       	mov    0x8(%rsp),%rax
    5cea:	8b 04 98             	mov    (%rax,%rbx,4),%eax
    5ced:	39 e8                	cmp    %ebp,%eax
    5cef:	0f 82 6b fe ff ff    	jb     5b60 <main+0x2610>
    5cf5:	31 c0                	xor    %eax,%eax
    5cf7:	31 c9                	xor    %ecx,%ecx
    5cf9:	e9 89 fe ff ff       	jmp    5b87 <main+0x2637>
    5cfe:	48 8d 3d 3e 36 00 00 	lea    0x363e(%rip),%rdi        # 9343 <_IO_stdin_used+0x343>
    5d05:	48 8d 94 24 20 01 00 	lea    0x120(%rsp),%rdx
    5d0c:	00 
    5d0d:	44 89 e6             	mov    %r12d,%esi
    5d10:	e8 1b ce ff ff       	call   2b30 <_Z8writeBMPPKcjRKSt6vectorIhSaIhEE>
    5d15:	4d 85 f6             	test   %r14,%r14
    5d18:	4c 8b 7c 24 08       	mov    0x8(%rsp),%r15
    5d1d:	74 10                	je     5d2f <main+0x27df>
    5d1f:	48 8b 74 24 40       	mov    0x40(%rsp),%rsi
    5d24:	4c 29 f6             	sub    %r14,%rsi
    5d27:	4c 89 f7             	mov    %r14,%rdi
    5d2a:	e8 e1 c3 ff ff       	call   2110 <_ZdlPvm@plt>
    5d2f:	48 8b 3d 82 52 00 00 	mov    0x5282(%rip),%rdi        # afb8 <_ZSt4cout@GLIBCXX_3.4>
    5d36:	48 8d 35 ab 35 00 00 	lea    0x35ab(%rip),%rsi        # 92e8 <_IO_stdin_used+0x2e8>
    5d3d:	ba 3a 00 00 00       	mov    $0x3a,%edx
    5d42:	e8 e9 c3 ff ff       	call   2130 <_ZSt16__ostream_insertIcSt11char_traitsIcEERSt13basic_ostreamIT_T0_ES6_PKS3_l@plt>
    5d47:	8b 44 24 5c          	mov    0x5c(%rsp),%eax
    5d4b:	48 85 c0             	test   %rax,%rax
    5d4e:	0f 84 eb 02 00 00    	je     603f <main+0x2aef>
    5d54:	48 8d 48 ff          	lea    -0x1(%rax),%rcx
    5d58:	89 c2                	mov    %eax,%edx
    5d5a:	83 e2 f0             	and    $0xfffffff0,%edx
    5d5d:	48 89 54 24 10       	mov    %rdx,0x10(%rsp)
    5d62:	89 c2                	mov    %eax,%edx
    5d64:	83 e2 fc             	and    $0xfffffffc,%edx
    5d67:	89 c7                	mov    %eax,%edi
    5d69:	83 e7 03             	and    $0x3,%edi
    5d6c:	48 89 54 24 70       	mov    %rdx,0x70(%rsp)
    5d71:	48 f7 da             	neg    %rdx
    5d74:	48 89 94 24 c0 00 00 	mov    %rdx,0xc0(%rsp)
    5d7b:	00 
    5d7c:	45 31 c9             	xor    %r9d,%r9d
    5d7f:	45 31 d2             	xor    %r10d,%r10d
    5d82:	45 31 db             	xor    %r11d,%r11d
    5d85:	eb 18                	jmp    5d9f <main+0x284f>
    5d87:	66 0f 1f 84 00 00 00 	nopw   0x0(%rax,%rax,1)
    5d8e:	00 00 
    5d90:	41 ff c2             	inc    %r10d
    5d93:	49 01 c1             	add    %rax,%r9
    5d96:	41 39 c2             	cmp    %eax,%r10d
    5d99:	0f 84 95 02 00 00    	je     6034 <main+0x2ae4>
    5d9f:	83 f8 03             	cmp    $0x3,%eax
    5da2:	76 1f                	jbe    5dc3 <main+0x2873>
    5da4:	49 89 c8             	mov    %rcx,%r8
    5da7:	49 c1 e8 20          	shr    $0x20,%r8
    5dab:	41 0f 95 c0          	setne  %r8b
    5daf:	89 c3                	mov    %eax,%ebx
    5db1:	41 0f af da          	imul   %r10d,%ebx
    5db5:	01 cb                	add    %ecx,%ebx
    5db7:	0f 92 c3             	setb   %bl
    5dba:	44 08 c3             	or     %r8b,%bl
    5dbd:	0f 84 1d 01 00 00    	je     5ee0 <main+0x2990>
    5dc3:	31 db                	xor    %ebx,%ebx
    5dc5:	48 85 ff             	test   %rdi,%rdi
    5dc8:	74 56                	je     5e20 <main+0x28d0>
    5dca:	49 89 ff             	mov    %rdi,%r15
    5dcd:	49 89 de             	mov    %rbx,%r14
    5dd0:	48 8b 74 24 08       	mov    0x8(%rsp),%rsi
    5dd5:	48 8b 14 24          	mov    (%rsp),%rdx
    5dd9:	0f 1f 80 00 00 00 00 	nopl   0x0(%rax)
    5de0:	47 8d 24 31          	lea    (%r9,%r14,1),%r12d
    5de4:	46 8b 04 a6          	mov    (%rsi,%r12,4),%r8d
    5de8:	46 8b 24 a2          	mov    (%rdx,%r12,4),%r12d
    5dec:	45 89 c5             	mov    %r8d,%r13d
    5def:	45 29 e5             	sub    %r12d,%r13d
    5df2:	45 29 c4             	sub    %r8d,%r12d
    5df5:	45 0f 4c e5          	cmovl  %r13d,%r12d
    5df9:	4d 01 e3             	add    %r12,%r11
    5dfc:	49 ff c6             	inc    %r14
    5dff:	49 ff cf             	dec    %r15
    5e02:	75 dc                	jne    5de0 <main+0x2890>
    5e04:	48 29 c3             	sub    %rax,%rbx
    5e07:	48 83 fb fc          	cmp    $0xfffffffffffffffc,%rbx
    5e0b:	49 89 f7             	mov    %rsi,%r15
    5e0e:	76 30                	jbe    5e40 <main+0x28f0>
    5e10:	e9 7b ff ff ff       	jmp    5d90 <main+0x2840>
    5e15:	66 66 2e 0f 1f 84 00 	data16 cs nopw 0x0(%rax,%rax,1)
    5e1c:	00 00 00 00 
    5e20:	49 89 de             	mov    %rbx,%r14
    5e23:	48 8b 74 24 08       	mov    0x8(%rsp),%rsi
    5e28:	48 8b 14 24          	mov    (%rsp),%rdx
    5e2c:	48 29 c3             	sub    %rax,%rbx
    5e2f:	48 83 fb fc          	cmp    $0xfffffffffffffffc,%rbx
    5e33:	49 89 f7             	mov    %rsi,%r15
    5e36:	0f 87 54 ff ff ff    	ja     5d90 <main+0x2840>
    5e3c:	0f 1f 40 00          	nopl   0x0(%rax)
    5e40:	47 8d 04 31          	lea    (%r9,%r14,1),%r8d
    5e44:	48 8b 74 24 08       	mov    0x8(%rsp),%rsi
    5e49:	46 8b 3c 86          	mov    (%rsi,%r8,4),%r15d
    5e4d:	42 8b 1c 82          	mov    (%rdx,%r8,4),%ebx
    5e51:	45 89 f8             	mov    %r15d,%r8d
    5e54:	41 29 d8             	sub    %ebx,%r8d
    5e57:	44 29 fb             	sub    %r15d,%ebx
    5e5a:	41 0f 4c d8          	cmovl  %r8d,%ebx
    5e5e:	4c 01 db             	add    %r11,%rbx
    5e61:	47 8d 04 31          	lea    (%r9,%r14,1),%r8d
    5e65:	41 ff c0             	inc    %r8d
    5e68:	48 8b 74 24 08       	mov    0x8(%rsp),%rsi
    5e6d:	46 8b 1c 86          	mov    (%rsi,%r8,4),%r11d
    5e71:	46 8b 04 82          	mov    (%rdx,%r8,4),%r8d
    5e75:	45 89 df             	mov    %r11d,%r15d
    5e78:	45 29 c7             	sub    %r8d,%r15d
    5e7b:	45 29 d8             	sub    %r11d,%r8d
    5e7e:	45 0f 4c c7          	cmovl  %r15d,%r8d
    5e82:	47 8d 5c 31 02       	lea    0x2(%r9,%r14,1),%r11d
    5e87:	48 8b 74 24 08       	mov    0x8(%rsp),%rsi
    5e8c:	46 8b 3c 9e          	mov    (%rsi,%r11,4),%r15d
    5e90:	46 8b 24 9a          	mov    (%rdx,%r11,4),%r12d
    5e94:	45 89 fb             	mov    %r15d,%r11d
    5e97:	45 29 e3             	sub    %r12d,%r11d
    5e9a:	45 29 fc             	sub    %r15d,%r12d
    5e9d:	4c 8b 7c 24 08       	mov    0x8(%rsp),%r15
    5ea2:	45 0f 4c e3          	cmovl  %r11d,%r12d
    5ea6:	4d 01 c4             	add    %r8,%r12
    5ea9:	49 01 dc             	add    %rbx,%r12
    5eac:	47 8d 04 31          	lea    (%r9,%r14,1),%r8d
    5eb0:	41 83 c0 03          	add    $0x3,%r8d
    5eb4:	43 8b 1c 87          	mov    (%r15,%r8,4),%ebx
    5eb8:	46 8b 1c 82          	mov    (%rdx,%r8,4),%r11d
    5ebc:	41 89 d8             	mov    %ebx,%r8d
    5ebf:	45 29 d8             	sub    %r11d,%r8d
    5ec2:	41 29 db             	sub    %ebx,%r11d
    5ec5:	45 0f 4c d8          	cmovl  %r8d,%r11d
    5ec9:	4d 01 e3             	add    %r12,%r11
    5ecc:	49 83 c6 04          	add    $0x4,%r14
    5ed0:	4c 39 f0             	cmp    %r14,%rax
    5ed3:	0f 85 67 ff ff ff    	jne    5e40 <main+0x28f0>
    5ed9:	e9 b2 fe ff ff       	jmp    5d90 <main+0x2840>
    5ede:	66 90                	xchg   %ax,%ax
    5ee0:	83 f8 10             	cmp    $0x10,%eax
    5ee3:	73 0c                	jae    5ef1 <main+0x29a1>
    5ee5:	45 31 f6             	xor    %r14d,%r14d
    5ee8:	48 8b 14 24          	mov    (%rsp),%rdx
    5eec:	e9 db 00 00 00       	jmp    5fcc <main+0x2a7c>
    5ef1:	c4 c1 f9 6e c3       	vmovq  %r11,%xmm0
    5ef6:	c5 f0 57 c9          	vxorps %xmm1,%xmm1,%xmm1
    5efa:	45 89 cb             	mov    %r9d,%r11d
    5efd:	48 8b 5c 24 10       	mov    0x10(%rsp),%rbx
    5f02:	c5 e8 57 d2          	vxorps %xmm2,%xmm2,%xmm2
    5f06:	c5 e0 57 db          	vxorps %xmm3,%xmm3,%xmm3
    5f0a:	48 8b 14 24          	mov    (%rsp),%rdx
    5f0e:	66 90                	xchg   %ax,%ax
    5f10:	45 89 d8             	mov    %r11d,%r8d
    5f13:	c4 81 7a 6f 24 87    	vmovdqu (%r15,%r8,4),%xmm4
    5f19:	c4 81 7a 6f 6c 87 10 	vmovdqu 0x10(%r15,%r8,4),%xmm5
    5f20:	c4 81 7a 6f 74 87 20 	vmovdqu 0x20(%r15,%r8,4),%xmm6
    5f27:	c4 81 7a 6f 7c 87 30 	vmovdqu 0x30(%r15,%r8,4),%xmm7
    5f2e:	c4 a1 59 fa 24 82    	vpsubd (%rdx,%r8,4),%xmm4,%xmm4
    5f34:	c4 a1 51 fa 6c 82 10 	vpsubd 0x10(%rdx,%r8,4),%xmm5,%xmm5
    5f3b:	c4 a1 49 fa 74 82 20 	vpsubd 0x20(%rdx,%r8,4),%xmm6,%xmm6
    5f42:	c4 a1 41 fa 7c 82 30 	vpsubd 0x30(%rdx,%r8,4),%xmm7,%xmm7
    5f49:	c4 e2 79 1e e4       	vpabsd %xmm4,%xmm4
    5f4e:	c4 e2 79 1e ed       	vpabsd %xmm5,%xmm5
    5f53:	c4 e2 79 1e f6       	vpabsd %xmm6,%xmm6
    5f58:	c4 e2 79 1e ff       	vpabsd %xmm7,%xmm7
    5f5d:	c4 e2 7d 35 e4       	vpmovzxdq %xmm4,%ymm4
    5f62:	c5 fd d4 c4          	vpaddq %ymm4,%ymm0,%ymm0
    5f66:	c4 e2 7d 35 e5       	vpmovzxdq %xmm5,%ymm4
    5f6b:	c5 f5 d4 cc          	vpaddq %ymm4,%ymm1,%ymm1
    5f6f:	c4 e2 7d 35 e6       	vpmovzxdq %xmm6,%ymm4
    5f74:	c5 ed d4 d4          	vpaddq %ymm4,%ymm2,%ymm2
    5f78:	c4 e2 7d 35 e7       	vpmovzxdq %xmm7,%ymm4
    5f7d:	c5 e5 d4 dc          	vpaddq %ymm4,%ymm3,%ymm3
    5f81:	41 83 c3 10          	add    $0x10,%r11d
    5f85:	48 83 c3 f0          	add    $0xfffffffffffffff0,%rbx
    5f89:	75 85                	jne    5f10 <main+0x29c0>
    5f8b:	c5 f5 d4 c0          	vpaddq %ymm0,%ymm1,%ymm0
    5f8f:	c5 ed d4 c0          	vpaddq %ymm0,%ymm2,%ymm0
    5f93:	c5 e5 d4 c0          	vpaddq %ymm0,%ymm3,%ymm0
    5f97:	c4 e3 7d 39 c1 01    	vextracti128 $0x1,%ymm0,%xmm1
    5f9d:	c5 f9 d4 c1          	vpaddq %xmm1,%xmm0,%xmm0
    5fa1:	c5 f9 70 c8 ee       	vpshufd $0xee,%xmm0,%xmm1
    5fa6:	c5 f9 d4 c1          	vpaddq %xmm1,%xmm0,%xmm0
    5faa:	c4 c1 f9 7e c3       	vmovq  %xmm0,%r11
    5faf:	4c 8b 74 24 10       	mov    0x10(%rsp),%r14
    5fb4:	41 39 c6             	cmp    %eax,%r14d
    5fb7:	0f 84 d3 fd ff ff    	je     5d90 <main+0x2840>
    5fbd:	4c 89 f3             	mov    %r14,%rbx
    5fc0:	a8 0c                	test   $0xc,%al
    5fc2:	48 8b 14 24          	mov    (%rsp),%rdx
    5fc6:	0f 84 f9 fd ff ff    	je     5dc5 <main+0x2875>
    5fcc:	c4 c1 f9 6e c3       	vmovq  %r11,%xmm0
    5fd1:	48 8b b4 24 c0 00 00 	mov    0xc0(%rsp),%rsi
    5fd8:	00 
    5fd9:	4e 8d 1c 36          	lea    (%rsi,%r14,1),%r11
    5fdd:	45 01 ce             	add    %r9d,%r14d
    5fe0:	45 89 f0             	mov    %r14d,%r8d
    5fe3:	c4 81 7a 6f 0c 87    	vmovdqu (%r15,%r8,4),%xmm1
    5fe9:	c4 a1 71 fa 0c 82    	vpsubd (%rdx,%r8,4),%xmm1,%xmm1
    5fef:	c4 e2 79 1e c9       	vpabsd %xmm1,%xmm1
    5ff4:	c4 e2 7d 35 c9       	vpmovzxdq %xmm1,%ymm1
    5ff9:	c5 fd d4 c1          	vpaddq %ymm1,%ymm0,%ymm0
    5ffd:	41 83 c6 04          	add    $0x4,%r14d
    6001:	49 83 c3 04          	add    $0x4,%r11
    6005:	75 d9                	jne    5fe0 <main+0x2a90>
    6007:	c4 e3 7d 39 c1 01    	vextracti128 $0x1,%ymm0,%xmm1
    600d:	c5 f9 d4 c1          	vpaddq %xmm1,%xmm0,%xmm0
    6011:	c5 f9 70 c8 ee       	vpshufd $0xee,%xmm0,%xmm1
    6016:	c5 f9 d4 c1          	vpaddq %xmm1,%xmm0,%xmm0
    601a:	c4 c1 f9 7e c3       	vmovq  %xmm0,%r11
    601f:	48 8b 54 24 70       	mov    0x70(%rsp),%rdx
    6024:	48 89 d3             	mov    %rdx,%rbx
    6027:	39 c2                	cmp    %eax,%edx
    6029:	0f 84 61 fd ff ff    	je     5d90 <main+0x2840>
    602f:	e9 91 fd ff ff       	jmp    5dc5 <main+0x2875>
    6034:	c4 c1 bb 2a c3       	vcvtsi2sd %r11,%xmm8,%xmm0
    6039:	48 8b 1c 24          	mov    (%rsp),%rbx
    603d:	eb 04                	jmp    6043 <main+0x2af3>
    603f:	c5 f9 57 c0          	vxorpd %xmm0,%xmm0,%xmm0
    6043:	0f af e8             	imul   %eax,%ebp
    6046:	0f af e8             	imul   %eax,%ebp
    6049:	62 f1 3f 08 7b cd    	vcvtusi2sd %ebp,%xmm8,%xmm1
    604f:	c5 fb 5e c1          	vdivsd %xmm1,%xmm0,%xmm0
    6053:	48 8b 3d 5e 4f 00 00 	mov    0x4f5e(%rip),%rdi        # afb8 <_ZSt4cout@GLIBCXX_3.4>
    605a:	c5 f8 77             	vzeroupper
    605d:	e8 5e c1 ff ff       	call   21c0 <_ZNSo9_M_insertIdEERSoT_@plt>
    6062:	49 89 c6             	mov    %rax,%r14
    6065:	48 8b 00             	mov    (%rax),%rax
    6068:	48 8b 40 e8          	mov    -0x18(%rax),%rax
    606c:	4d 8b a4 06 f0 00 00 	mov    0xf0(%r14,%rax,1),%r12
    6073:	00 
    6074:	4d 85 e4             	test   %r12,%r12
    6077:	0f 84 61 1c 00 00    	je     7cde <main+0x478e>
    607d:	41 80 7c 24 38 00    	cmpb   $0x0,0x38(%r12)
    6083:	74 08                	je     608d <main+0x2b3d>
    6085:	41 0f b6 44 24 43    	movzbl 0x43(%r12),%eax
    608b:	eb 17                	jmp    60a4 <main+0x2b54>
    608d:	4c 89 e7             	mov    %r12,%rdi
    6090:	e8 ab c0 ff ff       	call   2140 <_ZNKSt5ctypeIcE13_M_widen_initEv@plt>
    6095:	49 8b 04 24          	mov    (%r12),%rax
    6099:	4c 89 e7             	mov    %r12,%rdi
    609c:	be 0a 00 00 00       	mov    $0xa,%esi
    60a1:	ff 50 30             	call   *0x30(%rax)
    60a4:	0f be f0             	movsbl %al,%esi
    60a7:	4c 89 f7             	mov    %r14,%rdi
    60aa:	e8 81 bf ff ff       	call   2030 <_ZNSo3putEc@plt>
    60af:	48 89 c7             	mov    %rax,%rdi
    60b2:	e8 09 c0 ff ff       	call   20c0 <_ZNSo5flushEv@plt>
    60b7:	8b 4c 24 68          	mov    0x68(%rsp),%ecx
    60bb:	89 c8                	mov    %ecx,%eax
    60bd:	83 e0 fd             	and    $0xfffffffd,%eax
    60c0:	83 f8 04             	cmp    $0x4,%eax
    60c3:	0f 85 e3 0d 00 00    	jne    6eac <main+0x395c>
    60c9:	8b 5c 24 5c          	mov    0x5c(%rsp),%ebx
    60cd:	48 89 da             	mov    %rbx,%rdx
    60d0:	48 0f af d3          	imul   %rbx,%rdx
    60d4:	48 c1 e2 02          	shl    $0x2,%rdx
    60d8:	4c 89 ff             	mov    %r15,%rdi
    60db:	31 f6                	xor    %esi,%esi
    60dd:	e8 be bf ff ff       	call   20a0 <memset@plt>
    60e2:	48 8b 05 cf 4e 00 00 	mov    0x4ecf(%rip),%rax        # afb8 <_ZSt4cout@GLIBCXX_3.4>
    60e9:	48 8b 08             	mov    (%rax),%rcx
    60ec:	48 8b 49 e8          	mov    -0x18(%rcx),%rcx
    60f0:	4c 8b b4 08 f0 00 00 	mov    0xf0(%rax,%rcx,1),%r14
    60f7:	00 
    60f8:	4d 85 f6             	test   %r14,%r14
    60fb:	0f 84 dd 1b 00 00    	je     7cde <main+0x478e>
    6101:	41 80 7e 38 00       	cmpb   $0x0,0x38(%r14)
    6106:	74 07                	je     610f <main+0x2bbf>
    6108:	41 0f b6 46 43       	movzbl 0x43(%r14),%eax
    610d:	eb 16                	jmp    6125 <main+0x2bd5>
    610f:	4c 89 f7             	mov    %r14,%rdi
    6112:	e8 29 c0 ff ff       	call   2140 <_ZNKSt5ctypeIcE13_M_widen_initEv@plt>
    6117:	49 8b 06             	mov    (%r14),%rax
    611a:	4c 89 f7             	mov    %r14,%rdi
    611d:	be 0a 00 00 00       	mov    $0xa,%esi
    6122:	ff 50 30             	call   *0x30(%rax)
    6125:	0f be f0             	movsbl %al,%esi
    6128:	48 8b 3d 89 4e 00 00 	mov    0x4e89(%rip),%rdi        # afb8 <_ZSt4cout@GLIBCXX_3.4>
    612f:	e8 fc be ff ff       	call   2030 <_ZNSo3putEc@plt>
    6134:	48 89 c7             	mov    %rax,%rdi
    6137:	e8 84 bf ff ff       	call   20c0 <_ZNSo5flushEv@plt>
    613c:	49 89 c6             	mov    %rax,%r14
    613f:	48 8d 35 13 31 00 00 	lea    0x3113(%rip),%rsi        # 9259 <_IO_stdin_used+0x259>
    6146:	ba 08 00 00 00       	mov    $0x8,%edx
    614b:	48 89 c7             	mov    %rax,%rdi
    614e:	e8 dd bf ff ff       	call   2130 <_ZSt16__ostream_insertIcSt11char_traitsIcEERSt13basic_ostreamIT_T0_ES6_PKS3_l@plt>
    6153:	48 8d 35 11 32 00 00 	lea    0x3211(%rip),%rsi        # 936b <_IO_stdin_used+0x36b>
    615a:	ba 2b 00 00 00       	mov    $0x2b,%edx
    615f:	4c 89 f7             	mov    %r14,%rdi
    6162:	e8 c9 bf ff ff       	call   2130 <_ZSt16__ostream_insertIcSt11char_traitsIcEERSt13basic_ostreamIT_T0_ES6_PKS3_l@plt>
    6167:	48 8d 35 0a 31 00 00 	lea    0x310a(%rip),%rsi        # 9278 <_IO_stdin_used+0x278>
    616e:	ba 05 00 00 00       	mov    $0x5,%edx
    6173:	4c 89 f7             	mov    %r14,%rdi
    6176:	e8 b5 bf ff ff       	call   2130 <_ZSt16__ostream_insertIcSt11char_traitsIcEERSt13basic_ostreamIT_T0_ES6_PKS3_l@plt>
    617b:	bf 50 00 00 00       	mov    $0x50,%edi
    6180:	e8 7b bf ff ff       	call   2100 <_Znwm@plt>
    6185:	48 89 c5             	mov    %rax,%rbp
    6188:	c5 f8 57 c0          	vxorps %xmm0,%xmm0,%xmm0
    618c:	c5 fc 11 40 30       	vmovups %ymm0,0x30(%rax)
    6191:	c5 fc 11 40 20       	vmovups %ymm0,0x20(%rax)
    6196:	c5 fc 11 00          	vmovups %ymm0,(%rax)
    619a:	c5 f8 77             	vzeroupper
    619d:	e8 9e be ff ff       	call   2040 <_ZNSt6chrono3_V212system_clock3nowEv@plt>
    61a2:	49 89 c6             	mov    %rax,%r14
    61a5:	e8 96 be ff ff       	call   2040 <_ZNSt6chrono3_V212system_clock3nowEv@plt>
    61aa:	4c 29 f0             	sub    %r14,%rax
    61ad:	62 f1 9f 08 7b c0    	vcvtusi2sd %rax,%xmm12,%xmm0
    61b3:	c5 fb 11 45 00       	vmovsd %xmm0,0x0(%rbp)
    61b8:	e8 83 be ff ff       	call   2040 <_ZNSt6chrono3_V212system_clock3nowEv@plt>
    61bd:	49 89 c6             	mov    %rax,%r14
    61c0:	e8 7b be ff ff       	call   2040 <_ZNSt6chrono3_V212system_clock3nowEv@plt>
    61c5:	4c 29 f0             	sub    %r14,%rax
    61c8:	62 f1 9f 08 7b c0    	vcvtusi2sd %rax,%xmm12,%xmm0
    61ce:	c5 fb 11 45 08       	vmovsd %xmm0,0x8(%rbp)
    61d3:	e8 68 be ff ff       	call   2040 <_ZNSt6chrono3_V212system_clock3nowEv@plt>
    61d8:	49 89 c6             	mov    %rax,%r14
    61db:	e8 60 be ff ff       	call   2040 <_ZNSt6chrono3_V212system_clock3nowEv@plt>
    61e0:	4c 29 f0             	sub    %r14,%rax
    61e3:	62 f1 9f 08 7b c0    	vcvtusi2sd %rax,%xmm12,%xmm0
    61e9:	c5 fb 11 45 10       	vmovsd %xmm0,0x10(%rbp)
    61ee:	e8 4d be ff ff       	call   2040 <_ZNSt6chrono3_V212system_clock3nowEv@plt>
    61f3:	49 89 c6             	mov    %rax,%r14
    61f6:	e8 45 be ff ff       	call   2040 <_ZNSt6chrono3_V212system_clock3nowEv@plt>
    61fb:	4c 29 f0             	sub    %r14,%rax
    61fe:	62 f1 9f 08 7b c0    	vcvtusi2sd %rax,%xmm12,%xmm0
    6204:	c5 fb 11 45 18       	vmovsd %xmm0,0x18(%rbp)
    6209:	e8 32 be ff ff       	call   2040 <_ZNSt6chrono3_V212system_clock3nowEv@plt>
    620e:	49 89 c6             	mov    %rax,%r14
    6211:	e8 2a be ff ff       	call   2040 <_ZNSt6chrono3_V212system_clock3nowEv@plt>
    6216:	4c 29 f0             	sub    %r14,%rax
    6219:	62 f1 9f 08 7b c0    	vcvtusi2sd %rax,%xmm12,%xmm0
    621f:	c5 fb 11 45 20       	vmovsd %xmm0,0x20(%rbp)
    6224:	e8 17 be ff ff       	call   2040 <_ZNSt6chrono3_V212system_clock3nowEv@plt>
    6229:	49 89 c6             	mov    %rax,%r14
    622c:	e8 0f be ff ff       	call   2040 <_ZNSt6chrono3_V212system_clock3nowEv@plt>
    6231:	4c 29 f0             	sub    %r14,%rax
    6234:	62 f1 9f 08 7b c0    	vcvtusi2sd %rax,%xmm12,%xmm0
    623a:	c5 fb 11 45 28       	vmovsd %xmm0,0x28(%rbp)
    623f:	e8 fc bd ff ff       	call   2040 <_ZNSt6chrono3_V212system_clock3nowEv@plt>
    6244:	49 89 c6             	mov    %rax,%r14
    6247:	e8 f4 bd ff ff       	call   2040 <_ZNSt6chrono3_V212system_clock3nowEv@plt>
    624c:	4c 29 f0             	sub    %r14,%rax
    624f:	62 f1 ef 08 7b c0    	vcvtusi2sd %rax,%xmm2,%xmm0
    6255:	c5 fb 11 45 30       	vmovsd %xmm0,0x30(%rbp)
    625a:	e8 e1 bd ff ff       	call   2040 <_ZNSt6chrono3_V212system_clock3nowEv@plt>
    625f:	49 89 c6             	mov    %rax,%r14
    6262:	e8 d9 bd ff ff       	call   2040 <_ZNSt6chrono3_V212system_clock3nowEv@plt>
    6267:	4c 29 f0             	sub    %r14,%rax
    626a:	62 f1 ef 08 7b c0    	vcvtusi2sd %rax,%xmm2,%xmm0
    6270:	c5 fb 11 45 38       	vmovsd %xmm0,0x38(%rbp)
    6275:	e8 c6 bd ff ff       	call   2040 <_ZNSt6chrono3_V212system_clock3nowEv@plt>
    627a:	49 89 c6             	mov    %rax,%r14
    627d:	e8 be bd ff ff       	call   2040 <_ZNSt6chrono3_V212system_clock3nowEv@plt>
    6282:	4c 29 f0             	sub    %r14,%rax
    6285:	62 f1 f7 08 7b c0    	vcvtusi2sd %rax,%xmm1,%xmm0
    628b:	c5 fb 11 45 40       	vmovsd %xmm0,0x40(%rbp)
    6290:	e8 ab bd ff ff       	call   2040 <_ZNSt6chrono3_V212system_clock3nowEv@plt>
    6295:	49 89 c6             	mov    %rax,%r14
    6298:	e8 a3 bd ff ff       	call   2040 <_ZNSt6chrono3_V212system_clock3nowEv@plt>
    629d:	4c 29 f0             	sub    %r14,%rax
    62a0:	62 f1 f7 08 7b c0    	vcvtusi2sd %rax,%xmm1,%xmm0
    62a6:	c5 fb 11 45 48       	vmovsd %xmm0,0x48(%rbp)
    62ab:	49 89 ee             	mov    %rbp,%r14
    62ae:	49 83 c6 50          	add    $0x50,%r14
    62b2:	ba 06 00 00 00       	mov    $0x6,%edx
    62b7:	48 89 ef             	mov    %rbp,%rdi
    62ba:	4c 89 f6             	mov    %r14,%rsi
    62bd:	e8 3e 1c 00 00       	call   7f00 <_ZSt16__introsort_loopIN9__gnu_cxx17__normal_iteratorIPdSt6vectorIdSaIdEEEElNS0_5__ops15_Iter_less_iterEEvT_S9_T0_T1_>
    62c2:	48 89 ef             	mov    %rbp,%rdi
    62c5:	4c 89 f6             	mov    %r14,%rsi
    62c8:	e8 d3 1e 00 00       	call   81a0 <_ZSt22__final_insertion_sortIN9__gnu_cxx17__normal_iteratorIPdSt6vectorIdSaIdEEEENS0_5__ops15_Iter_less_iterEEvT_S9_T0_>
    62cd:	48 8d bc 24 20 01 00 	lea    0x120(%rsp),%rdi
    62d4:	00 
    62d5:	e8 f6 bd ff ff       	call   20d0 <_ZNSt7__cxx1118basic_stringstreamIcSt11char_traitsIcESaIcEEC1Ev@plt>
    62da:	48 89 5c 24 18       	mov    %rbx,0x18(%rsp)
    62df:	48 8d bc 24 30 01 00 	lea    0x130(%rsp),%rdi
    62e6:	00 
    62e7:	48 8b 84 24 30 01 00 	mov    0x130(%rsp),%rax
    62ee:	00 
    62ef:	48 8b 48 e8          	mov    -0x18(%rax),%rcx
    62f3:	ba fb fe ff ff       	mov    $0xfffffefb,%edx
    62f8:	23 94 0c 48 01 00 00 	and    0x148(%rsp,%rcx,1),%edx
    62ff:	83 ca 04             	or     $0x4,%edx
    6302:	89 94 0c 48 01 00 00 	mov    %edx,0x148(%rsp,%rcx,1)
    6309:	48 8b 48 e8          	mov    -0x18(%rax),%rcx
    630d:	48 c7 84 0c 40 01 00 	movq   $0x6,0x140(%rsp,%rcx,1)
    6314:	00 06 00 00 00 
    6319:	48 8b 40 e8          	mov    -0x18(%rax),%rax
    631d:	48 c7 84 04 38 01 00 	movq   $0x2,0x138(%rsp,%rax,1)
    6324:	00 02 00 00 00 
    6329:	c5 fb 10 45 00       	vmovsd 0x0(%rbp),%xmm0
    632e:	c5 fb 59 05 22 2e 00 	vmulsd 0x2e22(%rip),%xmm0,%xmm0        # 9158 <_IO_stdin_used+0x158>
    6335:	00 
    6336:	e8 85 be ff ff       	call   21c0 <_ZNSo9_M_insertIdEERSoT_@plt>
    633b:	48 8b 3d 76 4c 00 00 	mov    0x4c76(%rip),%rdi        # afb8 <_ZSt4cout@GLIBCXX_3.4>
    6342:	48 8d 35 35 2f 00 00 	lea    0x2f35(%rip),%rsi        # 927e <_IO_stdin_used+0x27e>
    6349:	ba 0b 00 00 00       	mov    $0xb,%edx
    634e:	e8 dd bd ff ff       	call   2130 <_ZSt16__ostream_insertIcSt11char_traitsIcEERSt13basic_ostreamIT_T0_ES6_PKS3_l@plt>
    6353:	4c 8d 6c 24 30       	lea    0x30(%rsp),%r13
    6358:	4c 89 6c 24 20       	mov    %r13,0x20(%rsp)
    635d:	48 c7 44 24 28 00 00 	movq   $0x0,0x28(%rsp)
    6364:	00 00 
    6366:	c6 44 24 30 00       	movb   $0x0,0x30(%rsp)
    636b:	4c 8b 84 24 50 01 00 	mov    0x150(%rsp),%r8
    6372:	00 
    6373:	48 8b 84 24 60 01 00 	mov    0x160(%rsp),%rax
    637a:	00 
    637b:	48 85 c0             	test   %rax,%rax
    637e:	0f 94 c1             	sete   %cl
    6381:	4c 39 c0             	cmp    %r8,%rax
    6384:	4c 0f 47 c0          	cmova  %rax,%r8
    6388:	4d 85 c0             	test   %r8,%r8
    638b:	0f 94 c0             	sete   %al
    638e:	08 c8                	or     %cl,%al
    6390:	74 14                	je     63a6 <main+0x2e56>
    6392:	48 8d b4 24 80 01 00 	lea    0x180(%rsp),%rsi
    6399:	00 
    639a:	48 8d 7c 24 20       	lea    0x20(%rsp),%rdi
    639f:	e8 0c 25 00 00       	call   88b0 <_ZNSt7__cxx1112basic_stringIcSt11char_traitsIcESaIcEE9_M_assignERKS4_>
    63a4:	eb 19                	jmp    63bf <main+0x2e6f>
    63a6:	48 8b 8c 24 58 01 00 	mov    0x158(%rsp),%rcx
    63ad:	00 
    63ae:	49 29 c8             	sub    %rcx,%r8
    63b1:	48 8d 7c 24 20       	lea    0x20(%rsp),%rdi
    63b6:	31 f6                	xor    %esi,%esi
    63b8:	31 d2                	xor    %edx,%edx
    63ba:	e8 21 22 00 00       	call   85e0 <_ZNSt7__cxx1112basic_stringIcSt11char_traitsIcESaIcEE10_M_replaceEmmPKcm>
    63bf:	48 8b 74 24 20       	mov    0x20(%rsp),%rsi
    63c4:	48 8b 54 24 28       	mov    0x28(%rsp),%rdx
    63c9:	48 8b 3d e8 4b 00 00 	mov    0x4be8(%rip),%rdi        # afb8 <_ZSt4cout@GLIBCXX_3.4>
    63d0:	e8 5b bd ff ff       	call   2130 <_ZSt16__ostream_insertIcSt11char_traitsIcEERSt13basic_ostreamIT_T0_ES6_PKS3_l@plt>
    63d5:	49 89 c6             	mov    %rax,%r14
    63d8:	48 8d 35 ab 2e 00 00 	lea    0x2eab(%rip),%rsi        # 928a <_IO_stdin_used+0x28a>
    63df:	ba 03 00 00 00       	mov    $0x3,%edx
    63e4:	48 89 c7             	mov    %rax,%rdi
    63e7:	e8 44 bd ff ff       	call   2130 <_ZSt16__ostream_insertIcSt11char_traitsIcEERSt13basic_ostreamIT_T0_ES6_PKS3_l@plt>
    63ec:	49 8b 06             	mov    (%r14),%rax
    63ef:	48 8b 40 e8          	mov    -0x18(%rax),%rax
    63f3:	4d 8b a4 06 f0 00 00 	mov    0xf0(%r14,%rax,1),%r12
    63fa:	00 
    63fb:	4d 85 e4             	test   %r12,%r12
    63fe:	0f 84 ee 18 00 00    	je     7cf2 <main+0x47a2>
    6404:	41 80 7c 24 38 00    	cmpb   $0x0,0x38(%r12)
    640a:	74 08                	je     6414 <main+0x2ec4>
    640c:	41 0f b6 44 24 43    	movzbl 0x43(%r12),%eax
    6412:	eb 17                	jmp    642b <main+0x2edb>
    6414:	4c 89 e7             	mov    %r12,%rdi
    6417:	e8 24 bd ff ff       	call   2140 <_ZNKSt5ctypeIcE13_M_widen_initEv@plt>
    641c:	49 8b 04 24          	mov    (%r12),%rax
    6420:	4c 89 e7             	mov    %r12,%rdi
    6423:	be 0a 00 00 00       	mov    $0xa,%esi
    6428:	ff 50 30             	call   *0x30(%rax)
    642b:	0f be f0             	movsbl %al,%esi
    642e:	4c 89 f7             	mov    %r14,%rdi
    6431:	e8 fa bb ff ff       	call   2030 <_ZNSo3putEc@plt>
    6436:	48 89 c7             	mov    %rax,%rdi
    6439:	e8 82 bc ff ff       	call   20c0 <_ZNSo5flushEv@plt>
    643e:	48 8b 7c 24 20       	mov    0x20(%rsp),%rdi
    6443:	4c 39 ef             	cmp    %r13,%rdi
    6446:	74 0d                	je     6455 <main+0x2f05>
    6448:	48 8b 74 24 30       	mov    0x30(%rsp),%rsi
    644d:	48 ff c6             	inc    %rsi
    6450:	e8 bb bc ff ff       	call   2110 <_ZdlPvm@plt>
    6455:	48 8b 1d 3c 4b 00 00 	mov    0x4b3c(%rip),%rbx        # af98 <_ZTTNSt7__cxx1118basic_stringstreamIcSt11char_traitsIcESaIcEEE@GLIBCXX_3.4.21>
    645c:	48 8b 03             	mov    (%rbx),%rax
    645f:	48 8b 4b 40          	mov    0x40(%rbx),%rcx
    6463:	48 89 84 24 20 01 00 	mov    %rax,0x120(%rsp)
    646a:	00 
    646b:	48 8b 40 e8          	mov    -0x18(%rax),%rax
    646f:	48 89 8c 04 20 01 00 	mov    %rcx,0x120(%rsp,%rax,1)
    6476:	00 
    6477:	48 8b 43 48          	mov    0x48(%rbx),%rax
    647b:	48 89 84 24 30 01 00 	mov    %rax,0x130(%rsp)
    6482:	00 
    6483:	48 8b 05 56 4b 00 00 	mov    0x4b56(%rip),%rax        # afe0 <_ZTVNSt7__cxx1115basic_stringbufIcSt11char_traitsIcESaIcEEE@GLIBCXX_3.4.21>
    648a:	48 83 c0 10          	add    $0x10,%rax
    648e:	48 89 84 24 38 01 00 	mov    %rax,0x138(%rsp)
    6495:	00 
    6496:	48 8b bc 24 80 01 00 	mov    0x180(%rsp),%rdi
    649d:	00 
    649e:	48 8d 84 24 90 01 00 	lea    0x190(%rsp),%rax
    64a5:	00 
    64a6:	48 39 c7             	cmp    %rax,%rdi
    64a9:	4c 8b 6c 24 18       	mov    0x18(%rsp),%r13
    64ae:	74 10                	je     64c0 <main+0x2f70>
    64b0:	48 8b b4 24 90 01 00 	mov    0x190(%rsp),%rsi
    64b7:	00 
    64b8:	48 ff c6             	inc    %rsi
    64bb:	e8 50 bc ff ff       	call   2110 <_ZdlPvm@plt>
    64c0:	48 8b 05 e1 4a 00 00 	mov    0x4ae1(%rip),%rax        # afa8 <_ZTVSt15basic_streambufIcSt11char_traitsIcEE@GLIBCXX_3.4>
    64c7:	48 83 c0 10          	add    $0x10,%rax
    64cb:	48 89 84 24 38 01 00 	mov    %rax,0x138(%rsp)
    64d2:	00 
    64d3:	48 8d bc 24 70 01 00 	lea    0x170(%rsp),%rdi
    64da:	00 
    64db:	e8 c0 bc ff ff       	call   21a0 <_ZNSt6localeD1Ev@plt>
    64e0:	48 8b 43 10          	mov    0x10(%rbx),%rax
    64e4:	48 8b 4b 18          	mov    0x18(%rbx),%rcx
    64e8:	48 89 84 24 20 01 00 	mov    %rax,0x120(%rsp)
    64ef:	00 
    64f0:	48 8b 40 e8          	mov    -0x18(%rax),%rax
    64f4:	48 89 8c 04 20 01 00 	mov    %rcx,0x120(%rsp,%rax,1)
    64fb:	00 
    64fc:	48 c7 84 24 28 01 00 	movq   $0x0,0x128(%rsp)
    6503:	00 00 00 00 00 
    6508:	48 8d bc 24 a0 01 00 	lea    0x1a0(%rsp),%rdi
    650f:	00 
    6510:	e8 3b bb ff ff       	call   2050 <_ZNSt8ios_baseD2Ev@plt>
    6515:	be 50 00 00 00       	mov    $0x50,%esi
    651a:	48 89 ef             	mov    %rbp,%rdi
    651d:	e8 ee bb ff ff       	call   2110 <_ZdlPvm@plt>
    6522:	44 8b 4c 24 6c       	mov    0x6c(%rsp),%r9d
    6527:	44 89 4c 24 10       	mov    %r9d,0x10(%rsp)
    652c:	4d 85 ed             	test   %r13,%r13
    652f:	48 8b 1c 24          	mov    (%rsp),%rbx
    6533:	0f 84 14 03 00 00    	je     684d <main+0x32fd>
    6539:	49 8d 45 ff          	lea    -0x1(%r13),%rax
    653d:	44 89 e9             	mov    %r13d,%ecx
    6540:	83 e1 e0             	and    $0xffffffe0,%ecx
    6543:	44 89 ea             	mov    %r13d,%edx
    6546:	83 e2 fc             	and    $0xfffffffc,%edx
    6549:	48 89 d6             	mov    %rdx,%rsi
    654c:	48 f7 de             	neg    %rsi
    654f:	31 ff                	xor    %edi,%edi
    6551:	45 31 c0             	xor    %r8d,%r8d
    6554:	44 8b 4c 24 10       	mov    0x10(%rsp),%r9d
    6559:	eb 14                	jmp    656f <main+0x301f>
    655b:	0f 1f 44 00 00       	nopl   0x0(%rax,%rax,1)
    6560:	41 ff c0             	inc    %r8d
    6563:	4c 01 ef             	add    %r13,%rdi
    6566:	45 39 e8             	cmp    %r13d,%r8d
    6569:	0f 84 de 02 00 00    	je     684d <main+0x32fd>
    656f:	41 83 fd 03          	cmp    $0x3,%r13d
    6573:	76 22                	jbe    6597 <main+0x3047>
    6575:	49 89 c2             	mov    %rax,%r10
    6578:	49 c1 ea 20          	shr    $0x20,%r10
    657c:	41 0f 95 c2          	setne  %r10b
    6580:	45 89 eb             	mov    %r13d,%r11d
    6583:	45 0f af d8          	imul   %r8d,%r11d
    6587:	41 01 c3             	add    %eax,%r11d
    658a:	41 0f 92 c3          	setb   %r11b
    658e:	45 08 d3             	or     %r10b,%r11b
    6591:	0f 84 b9 01 00 00    	je     6750 <main+0x3200>
    6597:	45 31 db             	xor    %r11d,%r11d
    659a:	44 89 eb             	mov    %r13d,%ebx
    659d:	44 29 db             	sub    %r11d,%ebx
    65a0:	4d 89 da             	mov    %r11,%r10
    65a3:	83 e3 07             	and    $0x7,%ebx
    65a6:	74 1f                	je     65c7 <main+0x3077>
    65a8:	0f 1f 84 00 00 00 00 	nopl   0x0(%rax,%rax,1)
    65af:	00 
    65b0:	46 8d 34 17          	lea    (%rdi,%r10,1),%r14d
    65b4:	43 8b 2c b7          	mov    (%r15,%r14,4),%ebp
    65b8:	44 39 cd             	cmp    %r9d,%ebp
    65bb:	44 0f 42 cd          	cmovb  %ebp,%r9d
    65bf:	49 ff c2             	inc    %r10
    65c2:	48 ff cb             	dec    %rbx
    65c5:	75 e9                	jne    65b0 <main+0x3060>
    65c7:	4d 29 eb             	sub    %r13,%r11
    65ca:	49 83 fb f8          	cmp    $0xfffffffffffffff8,%r11
    65ce:	48 8b 1c 24          	mov    (%rsp),%rbx
    65d2:	76 19                	jbe    65ed <main+0x309d>
    65d4:	eb 8a                	jmp    6560 <main+0x3010>
    65d6:	66 2e 0f 1f 84 00 00 	cs nopw 0x0(%rax,%rax,1)
    65dd:	00 00 00 
    65e0:	49 83 c2 08          	add    $0x8,%r10
    65e4:	4d 39 d5             	cmp    %r10,%r13
    65e7:	0f 84 73 ff ff ff    	je     6560 <main+0x3010>
    65ed:	46 8d 1c 17          	lea    (%rdi,%r10,1),%r11d
    65f1:	47 8b 1c 9f          	mov    (%r15,%r11,4),%r11d
    65f5:	45 39 cb             	cmp    %r9d,%r11d
    65f8:	0f 83 a2 00 00 00    	jae    66a0 <main+0x3150>
    65fe:	46 8d 0c 17          	lea    (%rdi,%r10,1),%r9d
    6602:	41 ff c1             	inc    %r9d
    6605:	47 8b 0c 8f          	mov    (%r15,%r9,4),%r9d
    6609:	45 39 d9             	cmp    %r11d,%r9d
    660c:	0f 83 a5 00 00 00    	jae    66b7 <main+0x3167>
    6612:	46 8d 1c 17          	lea    (%rdi,%r10,1),%r11d
    6616:	41 83 c3 02          	add    $0x2,%r11d
    661a:	47 8b 1c 9f          	mov    (%r15,%r11,4),%r11d
    661e:	45 39 cb             	cmp    %r9d,%r11d
    6621:	0f 83 a8 00 00 00    	jae    66cf <main+0x317f>
    6627:	46 8d 0c 17          	lea    (%rdi,%r10,1),%r9d
    662b:	41 83 c1 03          	add    $0x3,%r9d
    662f:	47 8b 0c 8f          	mov    (%r15,%r9,4),%r9d
    6633:	45 39 d9             	cmp    %r11d,%r9d
    6636:	0f 83 ab 00 00 00    	jae    66e7 <main+0x3197>
    663c:	46 8d 1c 17          	lea    (%rdi,%r10,1),%r11d
    6640:	41 83 c3 04          	add    $0x4,%r11d
    6644:	47 8b 1c 9f          	mov    (%r15,%r11,4),%r11d
    6648:	45 39 cb             	cmp    %r9d,%r11d
    664b:	0f 83 ae 00 00 00    	jae    66ff <main+0x31af>
    6651:	46 8d 0c 17          	lea    (%rdi,%r10,1),%r9d
    6655:	41 83 c1 05          	add    $0x5,%r9d
    6659:	47 8b 0c 8f          	mov    (%r15,%r9,4),%r9d
    665d:	45 39 d9             	cmp    %r11d,%r9d
    6660:	0f 83 b1 00 00 00    	jae    6717 <main+0x31c7>
    6666:	46 8d 1c 17          	lea    (%rdi,%r10,1),%r11d
    666a:	41 83 c3 06          	add    $0x6,%r11d
    666e:	47 8b 1c 9f          	mov    (%r15,%r11,4),%r11d
    6672:	45 39 cb             	cmp    %r9d,%r11d
    6675:	0f 83 b4 00 00 00    	jae    672f <main+0x31df>
    667b:	46 8d 0c 17          	lea    (%rdi,%r10,1),%r9d
    667f:	41 83 c1 07          	add    $0x7,%r9d
    6683:	47 8b 0c 8f          	mov    (%r15,%r9,4),%r9d
    6687:	45 39 d9             	cmp    %r11d,%r9d
    668a:	0f 82 50 ff ff ff    	jb     65e0 <main+0x3090>
